Microsoft (R) COFF/PE Dumper Version 14.24.28314.0
Copyright (C) Microsoft Corporation.  All rights reserved.


Dump of file libzmq.a

File Type: LIBRARY

  Summary

         168 .bss
           C .ctors
         130 .data
       427A7 .debug_abbrev
        B748 .debug_aranges
      FA405F .debug_info
       4E303 .debug_line
        B700 .debug_ranges
       461BD .debug_str
        E750 .eh_frame
          38 .eh_frame$IN6_IS_ADDR_MULTICAST
          38 .eh_frame$_Z13do_setsockoptIiEiPKvjPT_
          38 .eh_frame$_Z13do_setsockoptIxEiPKvjPT_
          38 .eh_frame$_Z13do_setsockoptIyEiPKvjPT_
          4C .eh_frame$_Z15zmq_poller_pollP14zmq_pollitem_til
          38 .eh_frame$_ZN3zmq10endpoint_tC1EOS0_
          38 .eh_frame$_ZN3zmq10endpoint_tC1ERKS0_
          38 .eh_frame$_ZN3zmq10endpoint_tC1Ev
          A8 .eh_frame$_ZN3zmq10endpoint_tD1Ev
          38 .eh_frame$_ZN3zmq10get_uint32EPKh
         198 .eh_frame$_ZN3zmq10get_uint64EPKh
          70 .eh_frame$_ZN3zmq10metadata_tD1Ev
          E0 .eh_frame$_ZN3zmq10put_uint32EPhj
         188 .eh_frame$_ZN3zmq10put_uint64EPhy
         1F8 .eh_frame$_ZN3zmq11mechanism_t17zap_msg_availableEv
          38 .eh_frame$_ZN3zmq11mechanism_t18get_zap_propertiesB5cxx11Ev
          38 .eh_frame$_ZN3zmq11mechanism_t19get_zmtp_propertiesB5cxx11Ev
         1C0 .eh_frame$_ZN3zmq11mechanism_t6decodeEPNS_5msg_tE
         1C0 .eh_frame$_ZN3zmq11mechanism_t6encodeEPNS_5msg_tE
          38 .eh_frame$_ZN3zmq12array_item_tILi0EE15get_array_indexEv
          38 .eh_frame$_ZN3zmq12array_item_tILi0EE15set_array_indexEi
          38 .eh_frame$_ZN3zmq12array_item_tILi0EEC2Ev
          38 .eh_frame$_ZN3zmq12array_item_tILi0EED0Ev
          38 .eh_frame$_ZN3zmq12array_item_tILi0EED1Ev
          38 .eh_frame$_ZN3zmq12array_item_tILi0EED2Ev
          38 .eh_frame$_ZN3zmq12array_item_tILi1EE15get_array_indexEv
          38 .eh_frame$_ZN3zmq12array_item_tILi1EE15set_array_indexEi
          38 .eh_frame$_ZN3zmq12array_item_tILi1EEC2Ev
          38 .eh_frame$_ZN3zmq12array_item_tILi1EED0Ev
          38 .eh_frame$_ZN3zmq12array_item_tILi1EED1Ev
          38 .eh_frame$_ZN3zmq12array_item_tILi1EED2Ev
          70 .eh_frame$_ZN3zmq12array_item_tILi2EE15get_array_indexEv
          70 .eh_frame$_ZN3zmq12array_item_tILi2EE15set_array_indexEi
          38 .eh_frame$_ZN3zmq12array_item_tILi2EEC2Ev
          38 .eh_frame$_ZN3zmq12array_item_tILi2EED0Ev
          38 .eh_frame$_ZN3zmq12array_item_tILi2EED1Ev
          38 .eh_frame$_ZN3zmq12array_item_tILi2EED2Ev
          38 .eh_frame$_ZN3zmq12array_item_tILi3EE15get_array_indexEv
          38 .eh_frame$_ZN3zmq12array_item_tILi3EE15set_array_indexEi
          38 .eh_frame$_ZN3zmq12array_item_tILi3EEC2Ev
          38 .eh_frame$_ZN3zmq12array_item_tILi3EED0Ev
          38 .eh_frame$_ZN3zmq12array_item_tILi3EED1Ev
          38 .eh_frame$_ZN3zmq12array_item_tILi3EED2Ev
          38 .eh_frame$_ZN3zmq12atomic_ptr_tINS_5msg_tEE3casEPS1_S3_
          38 .eh_frame$_ZN3zmq12atomic_ptr_tINS_5msg_tEE3setEPS1_
          38 .eh_frame$_ZN3zmq12atomic_ptr_tINS_5msg_tEEC1Ev
          38 .eh_frame$_ZN3zmq12atomic_ptr_tINS_8yqueue_tINS_5msg_tELi256EE7chunk_tEE4xchgEPS4_
          38 .eh_frame$_ZN3zmq12atomic_ptr_tINS_8yqueue_tINS_5msg_tELi256EE7chunk_tEEC1Ev
          70 .eh_frame$_ZN3zmq12atomic_ptr_tINS_8yqueue_tINS_9command_tELi16EE7chunk_tEE4xchgEPS4_
          70 .eh_frame$_ZN3zmq12atomic_ptr_tINS_8yqueue_tINS_9command_tELi16EE7chunk_tEEC1Ev
          70 .eh_frame$_ZN3zmq12atomic_ptr_tINS_9command_tEE3casEPS1_S3_
          70 .eh_frame$_ZN3zmq12atomic_ptr_tINS_9command_tEE3setEPS1_
          70 .eh_frame$_ZN3zmq12atomic_ptr_tINS_9command_tEEC1Ev
          38 .eh_frame$_ZN3zmq12thread_ctx_tD2Ev
          38 .eh_frame$_ZN3zmq12udp_engine_t17zap_msg_availableEv
          38 .eh_frame$_ZN3zmq12v1_decoder_t3msgEv
          38 .eh_frame$_ZN3zmq12v2_decoder_t3msgEv
          48 .eh_frame$_ZN3zmq12ws_address_tC1ERKS0_
          E0 .eh_frame$_ZN3zmq12ws_address_tD1Ev
          70 .eh_frame$_ZN3zmq12ws_address_tD2Ev
          38 .eh_frame$_ZN3zmq12ws_decoder_t3msgEv
          38 .eh_frame$_ZN3zmq12ypipe_base_tINS_5msg_tEEC2Ev
          38 .eh_frame$_ZN3zmq12ypipe_base_tINS_5msg_tEED2Ev
          70 .eh_frame$_ZN3zmq12ypipe_base_tINS_9command_tEEC2Ev
          70 .eh_frame$_ZN3zmq12ypipe_base_tINS_9command_tEED2Ev
          A8 .eh_frame$_ZN3zmq12zap_client_tD2Ev
          38 .eh_frame$_ZN3zmq13do_getsockoptIiEEiPvPjT_
          38 .eh_frame$_ZN3zmq13do_getsockoptIjEEiPvPjT_
          A8 .eh_frame$_ZN3zmq13fast_vector_tIjLj17EEC1Ej
          A8 .eh_frame$_ZN3zmq13fast_vector_tIjLj17EED1Ev
          A8 .eh_frame$_ZN3zmq13fast_vector_tIjLj17EEixEj
          70 .eh_frame$_ZN3zmq13i_pipe_eventsC2Ev
          70 .eh_frame$_ZN3zmq13i_pipe_eventsD2Ev
          E0 .eh_frame$_ZN3zmq13i_poll_eventsC2Ev
          E0 .eh_frame$_ZN3zmq13i_poll_eventsD2Ev
          38 .eh_frame$_ZN3zmq13raw_decoder_t13resize_bufferEj
          38 .eh_frame$_ZN3zmq13raw_decoder_t3msgEv
          E0 .eh_frame$_ZN3zmq13scoped_lock_tC1ERNS_7mutex_tE
         110 .eh_frame$_ZN3zmq13scoped_lock_tD1Ev
          38 .eh_frame$_ZN3zmq13socket_base_t9inprocs_tC1Ev
          38 .eh_frame$_ZN3zmq13socket_base_t9inprocs_tD1Ev
          70 .eh_frame$_ZN3zmq13wss_address_tD1Ev
          E0 .eh_frame$_ZN3zmq14atomic_value_t5storeEi
         150 .eh_frame$_ZN3zmq14atomic_value_tC1ERKS0_
          38 .eh_frame$_ZN3zmq14atomic_value_tC1Ei
          3C .eh_frame$_ZN3zmq14decoder_base_tINS_12v1_decoder_tENS_18c_single_allocatorEE10get_bufferEPPhPj
          38 .eh_frame$_ZN3zmq14decoder_base_tINS_12v1_decoder_tENS_18c_single_allocatorEE13resize_bufferEj
          3C .eh_frame$_ZN3zmq14decoder_base_tINS_12v1_decoder_tENS_18c_single_allocatorEE6decodeEPKhjRj
          38 .eh_frame$_ZN3zmq14decoder_base_tINS_12v1_decoder_tENS_18c_single_allocatorEE9next_stepEPvjMS1_FiPKhE
          48 .eh_frame$_ZN3zmq14decoder_base_tINS_12v1_decoder_tENS_18c_single_allocatorEEC2Ej
          38 .eh_frame$_ZN3zmq14decoder_base_tINS_12v1_decoder_tENS_18c_single_allocatorEED2Ev
          3C .eh_frame$_ZN3zmq14decoder_base_tINS_12v2_decoder_tENS_31shared_message_memory_allocatorEE10get_bufferEPPhPj
          38 .eh_frame$_ZN3zmq14decoder_base_tINS_12v2_decoder_tENS_31shared_message_memory_allocatorEE13get_allocatorEv
          38 .eh_frame$_ZN3zmq14decoder_base_tINS_12v2_decoder_tENS_31shared_message_memory_allocatorEE13resize_bufferEj
          3C .eh_frame$_ZN3zmq14decoder_base_tINS_12v2_decoder_tENS_31shared_message_memory_allocatorEE6decodeEPKhjRj
          38 .eh_frame$_ZN3zmq14decoder_base_tINS_12v2_decoder_tENS_31shared_message_memory_allocatorEE9next_stepEPvjMS1_FiPKhE
          48 .eh_frame$_ZN3zmq14decoder_base_tINS_12v2_decoder_tENS_31shared_message_memory_allocatorEEC2Ej
          44 .eh_frame$_ZN3zmq14decoder_base_tINS_12v2_decoder_tENS_31shared_message_memory_allocatorEED2Ev
          3C .eh_frame$_ZN3zmq14decoder_base_tINS_12ws_decoder_tENS_31shared_message_memory_allocatorEE10get_bufferEPPhPj
          38 .eh_frame$_ZN3zmq14decoder_base_tINS_12ws_decoder_tENS_31shared_message_memory_allocatorEE13get_allocatorEv
          38 .eh_frame$_ZN3zmq14decoder_base_tINS_12ws_decoder_tENS_31shared_message_memory_allocatorEE13resize_bufferEj
          3C .eh_frame$_ZN3zmq14decoder_base_tINS_12ws_decoder_tENS_31shared_message_memory_allocatorEE6decodeEPKhjRj
          38 .eh_frame$_ZN3zmq14decoder_base_tINS_12ws_decoder_tENS_31shared_message_memory_allocatorEE9next_stepEPvjMS1_FiPKhE
          48 .eh_frame$_ZN3zmq14decoder_base_tINS_12ws_decoder_tENS_31shared_message_memory_allocatorEEC2Ej
          44 .eh_frame$_ZN3zmq14decoder_base_tINS_12ws_decoder_tENS_31shared_message_memory_allocatorEED2Ev
          38 .eh_frame$_ZN3zmq14encoder_base_tINS_12v1_encoder_tEE11in_progressEv
          38 .eh_frame$_ZN3zmq14encoder_base_tINS_12v1_encoder_tEE6encodeEPPhj
          38 .eh_frame$_ZN3zmq14encoder_base_tINS_12v1_encoder_tEE8load_msgEPNS_5msg_tE
          38 .eh_frame$_ZN3zmq14encoder_base_tINS_12v1_encoder_tEE9next_stepEPvjMS1_FvvEb
          48 .eh_frame$_ZN3zmq14encoder_base_tINS_12v1_encoder_tEEC2Ej
          38 .eh_frame$_ZN3zmq14encoder_base_tINS_12v1_encoder_tEED0Ev
          38 .eh_frame$_ZN3zmq14encoder_base_tINS_12v1_encoder_tEED1Ev
          38 .eh_frame$_ZN3zmq14encoder_base_tINS_12v1_encoder_tEED2Ev
          38 .eh_frame$_ZN3zmq14encoder_base_tINS_12v2_encoder_tEE11in_progressEv
          38 .eh_frame$_ZN3zmq14encoder_base_tINS_12v2_encoder_tEE6encodeEPPhj
          38 .eh_frame$_ZN3zmq14encoder_base_tINS_12v2_encoder_tEE8load_msgEPNS_5msg_tE
          38 .eh_frame$_ZN3zmq14encoder_base_tINS_12v2_encoder_tEE9next_stepEPvjMS1_FvvEb
          48 .eh_frame$_ZN3zmq14encoder_base_tINS_12v2_encoder_tEEC2Ej
          38 .eh_frame$_ZN3zmq14encoder_base_tINS_12v2_encoder_tEED0Ev
          38 .eh_frame$_ZN3zmq14encoder_base_tINS_12v2_encoder_tEED1Ev
          38 .eh_frame$_ZN3zmq14encoder_base_tINS_12v2_encoder_tEED2Ev
          38 .eh_frame$_ZN3zmq14encoder_base_tINS_12ws_encoder_tEE11in_progressEv
          38 .eh_frame$_ZN3zmq14encoder_base_tINS_12ws_encoder_tEE6encodeEPPhj
          38 .eh_frame$_ZN3zmq14encoder_base_tINS_12ws_encoder_tEE8load_msgEPNS_5msg_tE
          38 .eh_frame$_ZN3zmq14encoder_base_tINS_12ws_encoder_tEE9next_stepEPvjMS1_FvvEb
          48 .eh_frame$_ZN3zmq14encoder_base_tINS_12ws_encoder_tEEC2Ej
          38 .eh_frame$_ZN3zmq14encoder_base_tINS_12ws_encoder_tEED0Ev
          38 .eh_frame$_ZN3zmq14encoder_base_tINS_12ws_encoder_tEED1Ev
          38 .eh_frame$_ZN3zmq14encoder_base_tINS_12ws_encoder_tEED2Ev
          38 .eh_frame$_ZN3zmq14encoder_base_tINS_13raw_encoder_tEE11in_progressEv
          38 .eh_frame$_ZN3zmq14encoder_base_tINS_13raw_encoder_tEE6encodeEPPhj
          38 .eh_frame$_ZN3zmq14encoder_base_tINS_13raw_encoder_tEE8load_msgEPNS_5msg_tE
          38 .eh_frame$_ZN3zmq14encoder_base_tINS_13raw_encoder_tEE9next_stepEPvjMS1_FvvEb
          48 .eh_frame$_ZN3zmq14encoder_base_tINS_13raw_encoder_tEEC2Ej
          38 .eh_frame$_ZN3zmq14encoder_base_tINS_13raw_encoder_tEED0Ev
          38 .eh_frame$_ZN3zmq14encoder_base_tINS_13raw_encoder_tEED1Ev
          38 .eh_frame$_ZN3zmq14encoder_base_tINS_13raw_encoder_tEED2Ev
          38 .eh_frame$_ZN3zmq14tcp_listener_tD0Ev
          38 .eh_frame$_ZN3zmq14tcp_listener_tD1Ev
          48 .eh_frame$_ZN3zmq15generic_mtrie_tINS_6pipe_tEE10add_helperEPKhjPS1_
          3C .eh_frame$_ZN3zmq15generic_mtrie_tINS_6pipe_tEE27rm_helper_multiple_subnodesIPNS_6xpub_tEEEvPPhjjPFvPKhjT_ESA_bPS1_
          3C .eh_frame$_ZN3zmq15generic_mtrie_tINS_6pipe_tEE27rm_helper_multiple_subnodesIPvEEvPPhjjPFvPKhjT_ES9_bPS1_
          38 .eh_frame$_ZN3zmq15generic_mtrie_tINS_6pipe_tEE2rmEPKhjPS1_
          38 .eh_frame$_ZN3zmq15generic_mtrie_tINS_6pipe_tEE2rmIPNS_6xpub_tEEEvPS1_PFvPKhjT_ES9_b
          38 .eh_frame$_ZN3zmq15generic_mtrie_tINS_6pipe_tEE2rmIPvEEvPS1_PFvPKhjT_ES8_b
          38 .eh_frame$_ZN3zmq15generic_mtrie_tINS_6pipe_tEE3addEPKhjPS1_
          38 .eh_frame$_ZN3zmq15generic_mtrie_tINS_6pipe_tEE5matchIPNS_6xpub_tEEEvPKhjPFvPS1_T_ES9_
          3C .eh_frame$_ZN3zmq15generic_mtrie_tINS_6pipe_tEE9rm_helperEPKhjPS1_
          3C .eh_frame$_ZN3zmq15generic_mtrie_tINS_6pipe_tEE9rm_helperIPNS_6xpub_tEEEvPS1_PPhjjPFvPKhjT_ESB_b
          3C .eh_frame$_ZN3zmq15generic_mtrie_tINS_6pipe_tEE9rm_helperIPvEEvPS1_PPhjjPFvPKhjT_ESA_b
          38 .eh_frame$_ZN3zmq15generic_mtrie_tINS_6pipe_tEEC1Ev
          38 .eh_frame$_ZN3zmq15generic_mtrie_tINS_6pipe_tEEC2Ev
          4C .eh_frame$_ZN3zmq15generic_mtrie_tINS_6pipe_tEED1Ev
          4C .eh_frame$_ZN3zmq15generic_mtrie_tINS_6pipe_tEED2Ev
          90 .eh_frame$_ZN3zmq15get_socket_nameINS_12ws_address_tEEENSt7__cxx1112basic_stringIcSt11char_traitsIcESaIcEEEjNS_12socket_end_tE
          D8 .eh_frame$_ZN3zmq15get_socket_nameINS_13tcp_address_tEEENSt7__cxx1112basic_stringIcSt11char_traitsIcESaIcEEEjNS_12socket_end_tE
          90 .eh_frame$_ZN3zmq15get_socket_nameINS_13wss_address_tEEENSt7__cxx1112basic_stringIcSt11char_traitsIcESaIcEEEjNS_12socket_end_tE
          38 .eh_frame$_ZN3zmq15socks_request_tD1Ev
         188 .eh_frame$_ZN3zmq16atomic_counter_t3addEj
          A8 .eh_frame$_ZN3zmq16atomic_counter_t3setEj
         118 .eh_frame$_ZN3zmq16atomic_counter_t3subEj
         188 .eh_frame$_ZN3zmq16atomic_counter_tC1Ej
          A8 .eh_frame$_ZN3zmq16close_and_returnEPNS_5msg_tEi
         150 .eh_frame$_ZN3zmq16mechanism_base_tD2Ev
          38 .eh_frame$_ZN3zmq16socks_response_tD1Ev
          38 .eh_frame$_ZN3zmq16ypipe_conflate_tINS_5msg_tEE10check_readEv
          38 .eh_frame$_ZN3zmq16ypipe_conflate_tINS_5msg_tEE4readEPS1_
          38 .eh_frame$_ZN3zmq16ypipe_conflate_tINS_5msg_tEE5flushEv
          38 .eh_frame$_ZN3zmq16ypipe_conflate_tINS_5msg_tEE5probeEPFbRKS1_E
          38 .eh_frame$_ZN3zmq16ypipe_conflate_tINS_5msg_tEE5writeERKS1_b
          38 .eh_frame$_ZN3zmq16ypipe_conflate_tINS_5msg_tEE7unwriteEPS1_
          48 .eh_frame$_ZN3zmq16ypipe_conflate_tINS_5msg_tEEC1Ev
          38 .eh_frame$_ZN3zmq16ypipe_conflate_tINS_5msg_tEED0Ev
          38 .eh_frame$_ZN3zmq16ypipe_conflate_tINS_5msg_tEED1Ev
          38 .eh_frame$_ZN3zmq18c_single_allocator10deallocateEv
          38 .eh_frame$_ZN3zmq18c_single_allocator6resizeEj
          38 .eh_frame$_ZN3zmq18c_single_allocator8allocateEv
          38 .eh_frame$_ZN3zmq18c_single_allocatorC1Ej
          38 .eh_frame$_ZN3zmq18c_single_allocatorD1Ev
          A8 .eh_frame$_ZN3zmq18optimized_fd_set_t3getEv
          A8 .eh_frame$_ZN3zmq18optimized_fd_set_tC1Ej
          A8 .eh_frame$_ZN3zmq18optimized_fd_set_tD1Ev
          70 .eh_frame$_ZN3zmq18secure_allocator_tIhEC1Ev
          70 .eh_frame$_ZN3zmq18secure_allocator_tIhED1Ev
         1B0 .eh_frame$_ZN3zmq19endpoint_uri_pair_tC1ERKNSt7__cxx1112basic_stringIcSt11char_traitsIcESaIcEEES8_NS_15endpoint_type_tE
         120 .eh_frame$_ZN3zmq19endpoint_uri_pair_tC1ERKS0_
          A8 .eh_frame$_ZN3zmq19endpoint_uri_pair_tC1Ev
         2A0 .eh_frame$_ZN3zmq19endpoint_uri_pair_tD1Ev
          38 .eh_frame$_ZN3zmq19endpoint_uri_pair_taSEOS0_
          70 .eh_frame$_ZN3zmq19valid_pollset_bytesERK6fd_set
          38 .eh_frame$_ZN3zmq20condition_variable_t4waitEPNS_7mutex_tEi
          38 .eh_frame$_ZN3zmq20condition_variable_t9broadcastEv
          38 .eh_frame$_ZN3zmq20condition_variable_tC1Ev
          38 .eh_frame$_ZN3zmq20condition_variable_tD1Ev
          50 .eh_frame$_ZN3zmq20curve_client_tools_t13produce_helloEPvPKhyS3_S3_
          40 .eh_frame$_ZN3zmq20curve_client_tools_t15process_welcomeEPKhjPh
          50 .eh_frame$_ZN3zmq20curve_client_tools_t15process_welcomeEPKhjS2_S2_PhS3_S3_
          54 .eh_frame$_ZN3zmq20curve_client_tools_t16produce_initiateEPvjyPKhS3_S3_S3_S3_S3_S3_S3_j
          44 .eh_frame$_ZN3zmq20curve_client_tools_t16produce_initiateEPvjyPKhj
          38 .eh_frame$_ZN3zmq20curve_client_tools_t20is_handshake_commandILj7EEEbPKhjRAT__Kc
          38 .eh_frame$_ZN3zmq20curve_client_tools_t20is_handshake_commandILj9EEEbPKhjRAT__Kc
          38 .eh_frame$_ZN3zmq20curve_client_tools_t26is_handshake_command_errorEPKhj
          38 .eh_frame$_ZN3zmq20curve_client_tools_t26is_handshake_command_readyEPKhj
          38 .eh_frame$_ZN3zmq20curve_client_tools_t28is_handshake_command_welcomeEPKhj
          38 .eh_frame$_ZN3zmq20curve_client_tools_tC1ERA32_KhS3_S3_
          E0 .eh_frame$_ZN3zmq20stream_engine_base_t10set_pollinEv
          E0 .eh_frame$_ZN3zmq20stream_engine_base_t11set_polloutEv
          38 .eh_frame$_ZN3zmq20stream_engine_base_t13plug_internalEv
          38 .eh_frame$_ZN3zmq20stream_engine_base_t13reset_polloutEv
          A8 .eh_frame$_ZN3zmq20stream_engine_base_t20produce_ping_messageEPNS_5msg_tE
          A8 .eh_frame$_ZN3zmq20stream_engine_base_t20produce_pong_messageEPNS_5msg_tE
          A8 .eh_frame$_ZN3zmq20stream_engine_base_t23process_command_messageEPNS_5msg_tE
          A8 .eh_frame$_ZN3zmq20stream_engine_base_t25process_heartbeat_messageEPNS_5msg_tE
          70 .eh_frame$_ZN3zmq20stream_engine_base_t6socketEv
          A8 .eh_frame$_ZN3zmq20stream_engine_base_t7sessionEv
          38 .eh_frame$_ZN3zmq20stream_engine_base_t9handshakeEv
          38 .eh_frame$_ZN3zmq20worker_poller_base_tD2Ev
          3C .eh_frame$_ZN3zmq21routing_socket_base_t16any_of_out_pipesIPFbRKNS_6pipe_tEEEEbT_
          70 .eh_frame$_ZN3zmq22curve_mechanism_base_tD2Ev
          38 .eh_frame$_ZN3zmq22scoped_optional_lock_tC1EPNS_7mutex_tE
          44 .eh_frame$_ZN3zmq22scoped_optional_lock_tD1Ev
          3C .eh_frame$_ZN3zmq23resizable_fast_vector_tIjLj17EE6resizeEj
          38 .eh_frame$_ZN3zmq23resizable_fast_vector_tIjLj17EE7get_bufEv
          38 .eh_frame$_ZN3zmq23resizable_fast_vector_tIjLj17EEC1Ev
          3C .eh_frame$_ZN3zmq23resizable_fast_vector_tIjLj17EED1Ev
          38 .eh_frame$_ZN3zmq23resizable_fast_vector_tIjLj17EEixEj
          38 .eh_frame$_ZN3zmq26socks_basic_auth_request_tD1Ev
          38 .eh_frame$_ZN3zmq28resizable_optimized_fd_set_t3getEv
          38 .eh_frame$_ZN3zmq28resizable_optimized_fd_set_t6resizeEj
          38 .eh_frame$_ZN3zmq28resizable_optimized_fd_set_tC1Ev
          38 .eh_frame$_ZN3zmq28resizable_optimized_fd_set_tD1Ev
          A8 .eh_frame$_ZN3zmq29get_effective_conflate_optionERKNS_9options_tE
          70 .eh_frame$_ZN3zmq29zap_client_common_handshake_tD2Ev
          A8 .eh_frame$_ZN3zmq31shared_message_memory_allocator15advance_contentEv
          A8 .eh_frame$_ZN3zmq31shared_message_memory_allocator15provide_contentEv
          A8 .eh_frame$_ZN3zmq31shared_message_memory_allocator6bufferEv
          70 .eh_frame$_ZN3zmq31shared_message_memory_allocator6resizeEj
          38 .eh_frame$_ZN3zmq5ctx_t20pending_connection_tC1ERKS1_
          38 .eh_frame$_ZN3zmq5ctx_t20pending_connection_tD1Ev
          38 .eh_frame$_ZN3zmq6blob_t13set_deep_copyERKS0_
          A8 .eh_frame$_ZN3zmq6blob_t3setEPKhj
          A8 .eh_frame$_ZN3zmq6blob_t4dataEv
          E0 .eh_frame$_ZN3zmq6blob_t5clearEv
          E0 .eh_frame$_ZN3zmq6blob_tC1EOS0_
          70 .eh_frame$_ZN3zmq6blob_tC1EPKhj
          70 .eh_frame$_ZN3zmq6blob_tC1EPhjNS_15reference_tag_tE
          38 .eh_frame$_ZN3zmq6blob_tC1Ej
          E0 .eh_frame$_ZN3zmq6blob_tC1Ev
         150 .eh_frame$_ZN3zmq6blob_tD1Ev
          38 .eh_frame$_ZN3zmq7array_tINS_13socket_base_tELi0EE4sizeEv
          38 .eh_frame$_ZN3zmq7array_tINS_13socket_base_tELi0EE5emptyEv
          38 .eh_frame$_ZN3zmq7array_tINS_13socket_base_tELi0EE5eraseEPS1_
          3C .eh_frame$_ZN3zmq7array_tINS_13socket_base_tELi0EE5eraseEj
          38 .eh_frame$_ZN3zmq7array_tINS_13socket_base_tELi0EE9push_backEPS1_
          38 .eh_frame$_ZN3zmq7array_tINS_13socket_base_tELi0EEC1Ev
          38 .eh_frame$_ZN3zmq7array_tINS_13socket_base_tELi0EED1Ev
          38 .eh_frame$_ZN3zmq7array_tINS_13socket_base_tELi0EEixEj
          38 .eh_frame$_ZN3zmq7array_tINS_6pipe_tELi1EE4sizeEv
          3C .eh_frame$_ZN3zmq7array_tINS_6pipe_tELi1EE4swapEjj
          38 .eh_frame$_ZN3zmq7array_tINS_6pipe_tELi1EE5emptyEv
          38 .eh_frame$_ZN3zmq7array_tINS_6pipe_tELi1EE5eraseEPS1_
          3C .eh_frame$_ZN3zmq7array_tINS_6pipe_tELi1EE5eraseEj
          38 .eh_frame$_ZN3zmq7array_tINS_6pipe_tELi1EE5indexEPS1_
          38 .eh_frame$_ZN3zmq7array_tINS_6pipe_tELi1EE9push_backEPS1_
          38 .eh_frame$_ZN3zmq7array_tINS_6pipe_tELi1EEC1Ev
          38 .eh_frame$_ZN3zmq7array_tINS_6pipe_tELi1EED1Ev
          38 .eh_frame$_ZN3zmq7array_tINS_6pipe_tELi1EEixEj
          38 .eh_frame$_ZN3zmq7array_tINS_6pipe_tELi2EE4sizeEv
          78 .eh_frame$_ZN3zmq7array_tINS_6pipe_tELi2EE4swapEjj
          70 .eh_frame$_ZN3zmq7array_tINS_6pipe_tELi2EE5emptyEv
          70 .eh_frame$_ZN3zmq7array_tINS_6pipe_tELi2EE5eraseEPS1_
          78 .eh_frame$_ZN3zmq7array_tINS_6pipe_tELi2EE5eraseEj
          70 .eh_frame$_ZN3zmq7array_tINS_6pipe_tELi2EE5indexEPS1_
          70 .eh_frame$_ZN3zmq7array_tINS_6pipe_tELi2EE9push_backEPS1_
          70 .eh_frame$_ZN3zmq7array_tINS_6pipe_tELi2EEC1Ev
          70 .eh_frame$_ZN3zmq7array_tINS_6pipe_tELi2EED1Ev
          70 .eh_frame$_ZN3zmq7array_tINS_6pipe_tELi2EEixEj
          38 .eh_frame$_ZN3zmq7array_tINS_6pipe_tELi3EE4sizeEv
          38 .eh_frame$_ZN3zmq7array_tINS_6pipe_tELi3EE5eraseEPS1_
          3C .eh_frame$_ZN3zmq7array_tINS_6pipe_tELi3EE5eraseEj
          38 .eh_frame$_ZN3zmq7array_tINS_6pipe_tELi3EE9push_backEPS1_
          38 .eh_frame$_ZN3zmq7array_tINS_6pipe_tELi3EEC1Ev
          38 .eh_frame$_ZN3zmq7array_tINS_6pipe_tELi3EED1Ev
          38 .eh_frame$_ZN3zmq7array_tINS_6pipe_tELi3EEixEj
         150 .eh_frame$_ZN3zmq7mutex_t4lockEv
         150 .eh_frame$_ZN3zmq7mutex_t6unlockEv
          38 .eh_frame$_ZN3zmq7mutex_t8try_lockEv
         118 .eh_frame$_ZN3zmq7mutex_tC1Ev
         154 .eh_frame$_ZN3zmq7mutex_tD1Ev
          38 .eh_frame$_ZN3zmq7ypipe_tINS_5msg_tELi256EE10check_readEv
          38 .eh_frame$_ZN3zmq7ypipe_tINS_5msg_tELi256EE4readEPS1_
          38 .eh_frame$_ZN3zmq7ypipe_tINS_5msg_tELi256EE5flushEv
          38 .eh_frame$_ZN3zmq7ypipe_tINS_5msg_tELi256EE5probeEPFbRKS1_E
          38 .eh_frame$_ZN3zmq7ypipe_tINS_5msg_tELi256EE5writeERKS1_b
          3C .eh_frame$_ZN3zmq7ypipe_tINS_5msg_tELi256EE7unwriteEPS1_
          48 .eh_frame$_ZN3zmq7ypipe_tINS_5msg_tELi256EEC1Ev
          38 .eh_frame$_ZN3zmq7ypipe_tINS_5msg_tELi256EED0Ev
          38 .eh_frame$_ZN3zmq7ypipe_tINS_5msg_tELi256EED1Ev
          70 .eh_frame$_ZN3zmq7ypipe_tINS_9command_tELi16EE10check_readEv
          70 .eh_frame$_ZN3zmq7ypipe_tINS_9command_tELi16EE4readEPS1_
          70 .eh_frame$_ZN3zmq7ypipe_tINS_9command_tELi16EE5flushEv
          70 .eh_frame$_ZN3zmq7ypipe_tINS_9command_tELi16EE5probeEPFbRKS1_E
          70 .eh_frame$_ZN3zmq7ypipe_tINS_9command_tELi16EE5writeERKS1_b
          78 .eh_frame$_ZN3zmq7ypipe_tINS_9command_tELi16EE7unwriteEPS1_
          90 .eh_frame$_ZN3zmq7ypipe_tINS_9command_tELi16EEC1Ev
          70 .eh_frame$_ZN3zmq7ypipe_tINS_9command_tELi16EED0Ev
          70 .eh_frame$_ZN3zmq7ypipe_tINS_9command_tELi16EED1Ev
          70 .eh_frame$_ZN3zmq8i_engineC2Ev
          70 .eh_frame$_ZN3zmq8i_engineD2Ev
          38 .eh_frame$_ZN3zmq8select_t14family_entry_tD1Ev
          70 .eh_frame$_ZN3zmq8thread_tC1Ev
          70 .eh_frame$_ZN3zmq8thread_tD1Ev
          38 .eh_frame$_ZN3zmq8timers_t11match_by_idC1Ei
          38 .eh_frame$_ZN3zmq8yqueue_tINS_5msg_tELi256EE14allocate_chunkEv
          38 .eh_frame$_ZN3zmq8yqueue_tINS_5msg_tELi256EE3popEv
          38 .eh_frame$_ZN3zmq8yqueue_tINS_5msg_tELi256EE4backEv
          3C .eh_frame$_ZN3zmq8yqueue_tINS_5msg_tELi256EE4pushEv
          38 .eh_frame$_ZN3zmq8yqueue_tINS_5msg_tELi256EE5frontEv
          38 .eh_frame$_ZN3zmq8yqueue_tINS_5msg_tELi256EE6unpushEv
          38 .eh_frame$_ZN3zmq8yqueue_tINS_5msg_tELi256EEC1Ev
          38 .eh_frame$_ZN3zmq8yqueue_tINS_5msg_tELi256EED1Ev
          70 .eh_frame$_ZN3zmq8yqueue_tINS_9command_tELi16EE14allocate_chunkEv
          70 .eh_frame$_ZN3zmq8yqueue_tINS_9command_tELi16EE3popEv
          70 .eh_frame$_ZN3zmq8yqueue_tINS_9command_tELi16EE4backEv
          78 .eh_frame$_ZN3zmq8yqueue_tINS_9command_tELi16EE4pushEv
          70 .eh_frame$_ZN3zmq8yqueue_tINS_9command_tELi16EE5frontEv
          70 .eh_frame$_ZN3zmq8yqueue_tINS_9command_tELi16EE6unpushEv
          70 .eh_frame$_ZN3zmq8yqueue_tINS_9command_tELi16EEC1Ev
          70 .eh_frame$_ZN3zmq8yqueue_tINS_9command_tELi16EED1Ev
          3C .eh_frame$_ZN3zmq9dbuffer_tINS_5msg_tEE10check_readEv
          48 .eh_frame$_ZN3zmq9dbuffer_tINS_5msg_tEE4readEPS1_
          48 .eh_frame$_ZN3zmq9dbuffer_tINS_5msg_tEE5probeEPFbRKS1_E
          38 .eh_frame$_ZN3zmq9dbuffer_tINS_5msg_tEE5writeERKS1_
          48 .eh_frame$_ZN3zmq9dbuffer_tINS_5msg_tEEC1Ev
          44 .eh_frame$_ZN3zmq9dbuffer_tINS_5msg_tEED1Ev
          E0 .eh_frame$_ZN3zmq9i_decoderC2Ev
          E0 .eh_frame$_ZN3zmq9i_decoderD2Ev
          E0 .eh_frame$_ZN3zmq9i_encoderC2Ev
          E0 .eh_frame$_ZN3zmq9i_encoderD2Ev
          70 .eh_frame$_ZN3zmq9i_mailboxC2Ev
          70 .eh_frame$_ZN3zmq9i_mailboxD2Ev
          48 .eh_frame$_ZN3zmq9options_tC1EOS0_
         1F8 .eh_frame$_ZN3zmq9options_tC1ERKS0_
         188 .eh_frame$_ZN3zmq9options_tD1Ev
          3C .eh_frame$_ZN6node_t10set_prefixEPKh
          3C .eh_frame$_ZN6node_t11first_bytesEv
          38 .eh_frame$_ZN6node_t11set_edge_atEjhS_
          38 .eh_frame$_ZN6node_t11set_node_atEjS_
          38 .eh_frame$_ZN6node_t12set_refcountEj
          38 .eh_frame$_ZN6node_t13first_byte_atEj
          40 .eh_frame$_ZN6node_t13node_pointersEv
          38 .eh_frame$_ZN6node_t13prefix_lengthEv
          38 .eh_frame$_ZN6node_t13set_edgecountEj
          3C .eh_frame$_ZN6node_t15set_first_bytesEPKh
          38 .eh_frame$_ZN6node_t17set_first_byte_atEjh
          3C .eh_frame$_ZN6node_t17set_node_pointersEPKh
          38 .eh_frame$_ZN6node_t17set_prefix_lengthEj
          38 .eh_frame$_ZN6node_t6prefixEv
          38 .eh_frame$_ZN6node_t7node_atEj
          38 .eh_frame$_ZN6node_t8refcountEv
          38 .eh_frame$_ZN6node_t9edgecountEv
          38 .eh_frame$_ZN9__gnu_cxx13new_allocatorIN3zmq15socket_poller_t6item_tEE10deallocateEPS3_j
          38 .eh_frame$_ZN9__gnu_cxx13new_allocatorIN3zmq15socket_poller_t6item_tEE7destroyIS3_EEvPT_
          38 .eh_frame$_ZN9__gnu_cxx13new_allocatorIN3zmq15socket_poller_t6item_tEE8allocateEjPKv
          3C .eh_frame$_ZN9__gnu_cxx13new_allocatorIN3zmq15socket_poller_t6item_tEE9constructIS3_JRKS3_EEEvPT_DpOT0_
          38 .eh_frame$_ZN9__gnu_cxx13new_allocatorIN3zmq15socket_poller_t6item_tEEC2Ev
          38 .eh_frame$_ZN9__gnu_cxx13new_allocatorIN3zmq15socket_poller_t6item_tEED2Ev
         1C0 .eh_frame$_ZN9__gnu_cxx13new_allocatorIN3zmq18tcp_address_mask_tEE10deallocateEPS2_j
          38 .eh_frame$_ZN9__gnu_cxx13new_allocatorIN3zmq18tcp_address_mask_tEE7destroyIS2_EEvPT_
         188 .eh_frame$_ZN9__gnu_cxx13new_allocatorIN3zmq18tcp_address_mask_tEE8allocateEjPKv
          3C .eh_frame$_ZN9__gnu_cxx13new_allocatorIN3zmq18tcp_address_mask_tEE9constructIS2_JRKS2_EEEvPT_DpOT0_
         150 .eh_frame$_ZN9__gnu_cxx13new_allocatorIN3zmq18tcp_address_mask_tEEC2ERKS3_
          38 .eh_frame$_ZN9__gnu_cxx13new_allocatorIN3zmq18tcp_address_mask_tEEC2Ev
         188 .eh_frame$_ZN9__gnu_cxx13new_allocatorIN3zmq18tcp_address_mask_tEED2Ev
          38 .eh_frame$_ZN9__gnu_cxx13new_allocatorIN3zmq6blob_tEE10deallocateEPS2_j
          38 .eh_frame$_ZN9__gnu_cxx13new_allocatorIN3zmq6blob_tEE7destroyIS2_EEvPT_
          38 .eh_frame$_ZN9__gnu_cxx13new_allocatorIN3zmq6blob_tEE8allocateEjPKv
          3C .eh_frame$_ZN9__gnu_cxx13new_allocatorIN3zmq6blob_tEE9constructIS2_JS2_EEEvPT_DpOT0_
          38 .eh_frame$_ZN9__gnu_cxx13new_allocatorIN3zmq6blob_tEEC2Ev
          38 .eh_frame$_ZN9__gnu_cxx13new_allocatorIN3zmq6blob_tEED2Ev
          38 .eh_frame$_ZN9__gnu_cxx13new_allocatorIN3zmq8select_t10fd_entry_tEE10deallocateEPS3_j
          38 .eh_frame$_ZN9__gnu_cxx13new_allocatorIN3zmq8select_t10fd_entry_tEE7destroyIS3_EEvPT_
          38 .eh_frame$_ZN9__gnu_cxx13new_allocatorIN3zmq8select_t10fd_entry_tEE8allocateEjPKv
          3C .eh_frame$_ZN9__gnu_cxx13new_allocatorIN3zmq8select_t10fd_entry_tEE9constructIS3_JRKS3_EEEvPT_DpOT0_
          38 .eh_frame$_ZN9__gnu_cxx13new_allocatorIN3zmq8select_t10fd_entry_tEEC2Ev
          38 .eh_frame$_ZN9__gnu_cxx13new_allocatorIN3zmq8select_t10fd_entry_tEED2Ev
          38 .eh_frame$_ZN9__gnu_cxx13new_allocatorIPN3zmq10metadata_tEE10deallocateEPS3_j
          38 .eh_frame$_ZN9__gnu_cxx13new_allocatorIPN3zmq10metadata_tEE7destroyIS3_EEvPT_
          38 .eh_frame$_ZN9__gnu_cxx13new_allocatorIPN3zmq10metadata_tEE8allocateEjPKv
          3C .eh_frame$_ZN9__gnu_cxx13new_allocatorIPN3zmq10metadata_tEE9constructIS3_JRKS3_EEEvPT_DpOT0_
          3C .eh_frame$_ZN9__gnu_cxx13new_allocatorIPN3zmq10metadata_tEE9constructIS3_JS3_EEEvPT_DpOT0_
          38 .eh_frame$_ZN9__gnu_cxx13new_allocatorIPN3zmq10metadata_tEEC2Ev
          38 .eh_frame$_ZN9__gnu_cxx13new_allocatorIPN3zmq10metadata_tEED2Ev
          38 .eh_frame$_ZN9__gnu_cxx13new_allocatorIPN3zmq10signaler_tEE10deallocateEPS3_j
          38 .eh_frame$_ZN9__gnu_cxx13new_allocatorIPN3zmq10signaler_tEE7destroyIS3_EEvPT_
          38 .eh_frame$_ZN9__gnu_cxx13new_allocatorIPN3zmq10signaler_tEE8allocateEjPKv
          3C .eh_frame$_ZN9__gnu_cxx13new_allocatorIPN3zmq10signaler_tEE9constructIS3_JRKS3_EEEvPT_DpOT0_
          38 .eh_frame$_ZN9__gnu_cxx13new_allocatorIPN3zmq10signaler_tEEC2Ev
          38 .eh_frame$_ZN9__gnu_cxx13new_allocatorIPN3zmq10signaler_tEED2Ev
          38 .eh_frame$_ZN9__gnu_cxx13new_allocatorIPN3zmq11io_thread_tEE10deallocateEPS3_j
          38 .eh_frame$_ZN9__gnu_cxx13new_allocatorIPN3zmq11io_thread_tEE7destroyIS3_EEvPT_
          38 .eh_frame$_ZN9__gnu_cxx13new_allocatorIPN3zmq11io_thread_tEE8allocateEjPKv
          3C .eh_frame$_ZN9__gnu_cxx13new_allocatorIPN3zmq11io_thread_tEE9constructIS3_JRKS3_EEEvPT_DpOT0_
          38 .eh_frame$_ZN9__gnu_cxx13new_allocatorIPN3zmq11io_thread_tEEC2Ev
          38 .eh_frame$_ZN9__gnu_cxx13new_allocatorIPN3zmq11io_thread_tEED2Ev
          38 .eh_frame$_ZN9__gnu_cxx13new_allocatorIPN3zmq13socket_base_tEE10deallocateEPS3_j
          38 .eh_frame$_ZN9__gnu_cxx13new_allocatorIPN3zmq13socket_base_tEE7destroyIS3_EEvPT_
          38 .eh_frame$_ZN9__gnu_cxx13new_allocatorIPN3zmq13socket_base_tEE8allocateEjPKv
          3C .eh_frame$_ZN9__gnu_cxx13new_allocatorIPN3zmq13socket_base_tEE9constructIS3_JRKS3_EEEvPT_DpOT0_
          38 .eh_frame$_ZN9__gnu_cxx13new_allocatorIPN3zmq13socket_base_tEEC2Ev
          38 .eh_frame$_ZN9__gnu_cxx13new_allocatorIPN3zmq13socket_base_tEED2Ev
          38 .eh_frame$_ZN9__gnu_cxx13new_allocatorIPN3zmq6blob_tEE10deallocateEPS3_j
          38 .eh_frame$_ZN9__gnu_cxx13new_allocatorIPN3zmq6blob_tEE8allocateEjPKv
          38 .eh_frame$_ZN9__gnu_cxx13new_allocatorIPN3zmq6blob_tEEC2Ev
          38 .eh_frame$_ZN9__gnu_cxx13new_allocatorIPN3zmq6blob_tEED2Ev
         150 .eh_frame$_ZN9__gnu_cxx13new_allocatorIPN3zmq6pipe_tEE10deallocateEPS3_j
         150 .eh_frame$_ZN9__gnu_cxx13new_allocatorIPN3zmq6pipe_tEE7destroyIS3_EEvPT_
         150 .eh_frame$_ZN9__gnu_cxx13new_allocatorIPN3zmq6pipe_tEE8allocateEjPKv
         168 .eh_frame$_ZN9__gnu_cxx13new_allocatorIPN3zmq6pipe_tEE9constructIS3_JRKS3_EEEvPT_DpOT0_
          3C .eh_frame$_ZN9__gnu_cxx13new_allocatorIPN3zmq6pipe_tEE9constructIS3_JS3_EEEvPT_DpOT0_
         150 .eh_frame$_ZN9__gnu_cxx13new_allocatorIPN3zmq6pipe_tEEC2Ev
         150 .eh_frame$_ZN9__gnu_cxx13new_allocatorIPN3zmq6pipe_tEED2Ev
          38 .eh_frame$_ZN9__gnu_cxx13new_allocatorIPN3zmq9i_mailboxEE10deallocateEPS3_j
          38 .eh_frame$_ZN9__gnu_cxx13new_allocatorIPN3zmq9i_mailboxEE8allocateEjPKv
          38 .eh_frame$_ZN9__gnu_cxx13new_allocatorIPN3zmq9i_mailboxEEC2Ev
          38 .eh_frame$_ZN9__gnu_cxx13new_allocatorIPN3zmq9i_mailboxEED2Ev
          38 .eh_frame$_ZN9__gnu_cxx13new_allocatorIPPN3zmq10metadata_tEE10deallocateEPS4_j
          38 .eh_frame$_ZN9__gnu_cxx13new_allocatorIPPN3zmq10metadata_tEE8allocateEjPKv
          38 .eh_frame$_ZN9__gnu_cxx13new_allocatorIPPN3zmq10metadata_tEEC2Ev
          38 .eh_frame$_ZN9__gnu_cxx13new_allocatorIPPN3zmq10metadata_tEED2Ev
          38 .eh_frame$_ZN9__gnu_cxx13new_allocatorIPPN3zmq6pipe_tEE10deallocateEPS4_j
          38 .eh_frame$_ZN9__gnu_cxx13new_allocatorIPPN3zmq6pipe_tEE8allocateEjPKv
          38 .eh_frame$_ZN9__gnu_cxx13new_allocatorIPPN3zmq6pipe_tEEC2Ev
          38 .eh_frame$_ZN9__gnu_cxx13new_allocatorIPPN3zmq6pipe_tEED2Ev
          38 .eh_frame$_ZN9__gnu_cxx13new_allocatorIPhE10deallocateEPS1_j
          38 .eh_frame$_ZN9__gnu_cxx13new_allocatorIPhE8allocateEjPKv
          38 .eh_frame$_ZN9__gnu_cxx13new_allocatorIPhEC2Ev
          38 .eh_frame$_ZN9__gnu_cxx13new_allocatorIPhED2Ev
          38 .eh_frame$_ZN9__gnu_cxx13new_allocatorISt13_Rb_tree_nodeINSt7__cxx1112basic_stringIcSt11char_traitsIcESaIcEEEEE10deallocateEPS8_j
          38 .eh_frame$_ZN9__gnu_cxx13new_allocatorISt13_Rb_tree_nodeINSt7__cxx1112basic_stringIcSt11char_traitsIcESaIcEEEEE7destroyIS7_EEvPT_
          38 .eh_frame$_ZN9__gnu_cxx13new_allocatorISt13_Rb_tree_nodeINSt7__cxx1112basic_stringIcSt11char_traitsIcESaIcEEEEE8allocateEjPKv
          50 .eh_frame$_ZN9__gnu_cxx13new_allocatorISt13_Rb_tree_nodeINSt7__cxx1112basic_stringIcSt11char_traitsIcESaIcEEEEE9constructIS7_JRKS7_EEEvPT_DpOT0_
          38 .eh_frame$_ZN9__gnu_cxx13new_allocatorISt13_Rb_tree_nodeINSt7__cxx1112basic_stringIcSt11char_traitsIcESaIcEEEEEC2Ev
          38 .eh_frame$_ZN9__gnu_cxx13new_allocatorISt13_Rb_tree_nodeINSt7__cxx1112basic_stringIcSt11char_traitsIcESaIcEEEEED2Ev
          38 .eh_frame$_ZN9__gnu_cxx13new_allocatorISt13_Rb_tree_nodeIPN3zmq5own_tEEE10deallocateEPS5_j
          38 .eh_frame$_ZN9__gnu_cxx13new_allocatorISt13_Rb_tree_nodeIPN3zmq5own_tEEE7destroyIS4_EEvPT_
          38 .eh_frame$_ZN9__gnu_cxx13new_allocatorISt13_Rb_tree_nodeIPN3zmq5own_tEEE8allocateEjPKv
          3C .eh_frame$_ZN9__gnu_cxx13new_allocatorISt13_Rb_tree_nodeIPN3zmq5own_tEEE9constructIS4_JRKS4_EEEvPT_DpOT0_
          38 .eh_frame$_ZN9__gnu_cxx13new_allocatorISt13_Rb_tree_nodeIPN3zmq5own_tEEEC2Ev
          38 .eh_frame$_ZN9__gnu_cxx13new_allocatorISt13_Rb_tree_nodeIPN3zmq5own_tEEED2Ev
          E0 .eh_frame$_ZN9__gnu_cxx13new_allocatorISt13_Rb_tree_nodeIPN3zmq6pipe_tEEE10deallocateEPS5_j
          E0 .eh_frame$_ZN9__gnu_cxx13new_allocatorISt13_Rb_tree_nodeIPN3zmq6pipe_tEEE7destroyIS4_EEvPT_
          A8 .eh_frame$_ZN9__gnu_cxx13new_allocatorISt13_Rb_tree_nodeIPN3zmq6pipe_tEEE8allocateEjPKv
          B4 .eh_frame$_ZN9__gnu_cxx13new_allocatorISt13_Rb_tree_nodeIPN3zmq6pipe_tEEE9constructIS4_JRKS4_EEEvPT_DpOT0_
          A8 .eh_frame$_ZN9__gnu_cxx13new_allocatorISt13_Rb_tree_nodeIPN3zmq6pipe_tEEEC2Ev
          E0 .eh_frame$_ZN9__gnu_cxx13new_allocatorISt13_Rb_tree_nodeIPN3zmq6pipe_tEEED2Ev
          38 .eh_frame$_ZN9__gnu_cxx13new_allocatorISt13_Rb_tree_nodeISt4pairIKN3zmq6blob_tENS3_21routing_socket_base_t10out_pipe_tEEEE10deallocateEPS9_j
          38 .eh_frame$_ZN9__gnu_cxx13new_allocatorISt13_Rb_tree_nodeISt4pairIKN3zmq6blob_tENS3_21routing_socket_base_t10out_pipe_tEEEE7destroyIS8_EEvPT_
          38 .eh_frame$_ZN9__gnu_cxx13new_allocatorISt13_Rb_tree_nodeISt4pairIKN3zmq6blob_tENS3_21routing_socket_base_t10out_pipe_tEEEE8allocateEjPKv
          40 .eh_frame$_ZN9__gnu_cxx13new_allocatorISt13_Rb_tree_nodeISt4pairIKN3zmq6blob_tENS3_21routing_socket_base_t10out_pipe_tEEEE9constructIS8_JS4_RKS7_EEEvPT_DpOT0_
          38 .eh_frame$_ZN9__gnu_cxx13new_allocatorISt13_Rb_tree_nodeISt4pairIKN3zmq6blob_tENS3_21routing_socket_base_t10out_pipe_tEEEEC2Ev
          38 .eh_frame$_ZN9__gnu_cxx13new_allocatorISt13_Rb_tree_nodeISt4pairIKN3zmq6blob_tENS3_21routing_socket_base_t10out_pipe_tEEEED2Ev
          38 .eh_frame$_ZN9__gnu_cxx13new_allocatorISt13_Rb_tree_nodeISt4pairIKNSt7__cxx1112basic_stringIcSt11char_traitsIcESaIcEEEMN3zmq14session_base_tEFPNSA_5own_tEPNSA_11io_thread_tEbEEEE10deallocateEPSJ_j
          38 .eh_frame$_ZN9__gnu_cxx13new_allocatorISt13_Rb_tree_nodeISt4pairIKNSt7__cxx1112basic_stringIcSt11char_traitsIcESaIcEEEMN3zmq14session_base_tEFPNSA_5own_tEPNSA_11io_thread_tEbEEEE7destroyISI_EEvPT_
          38 .eh_frame$_ZN9__gnu_cxx13new_allocatorISt13_Rb_tree_nodeISt4pairIKNSt7__cxx1112basic_stringIcSt11char_traitsIcESaIcEEEMN3zmq14session_base_tEFPNSA_5own_tEPNSA_11io_thread_tEbEEEE8allocateEjPKv
          50 .eh_frame$_ZN9__gnu_cxx13new_allocatorISt13_Rb_tree_nodeISt4pairIKNSt7__cxx1112basic_stringIcSt11char_traitsIcESaIcEEEMN3zmq14session_base_tEFPNSA_5own_tEPNSA_11io_thread_tEbEEEE9constructISI_JRSI_EEEvPT_DpOT0_
          38 .eh_frame$_ZN9__gnu_cxx13new_allocatorISt13_Rb_tree_nodeISt4pairIKNSt7__cxx1112basic_stringIcSt11char_traitsIcESaIcEEEMN3zmq14session_base_tEFPNSA_5own_tEPNSA_11io_thread_tEbEEEEC2Ev
          38 .eh_frame$_ZN9__gnu_cxx13new_allocatorISt13_Rb_tree_nodeISt4pairIKNSt7__cxx1112basic_stringIcSt11char_traitsIcESaIcEEEMN3zmq14session_base_tEFPNSA_5own_tEPNSA_11io_thread_tEbEEEED2Ev
          38 .eh_frame$_ZN9__gnu_cxx13new_allocatorISt13_Rb_tree_nodeISt4pairIKNSt7__cxx1112basic_stringIcSt11char_traitsIcESaIcEEEMN3zmq14session_base_tEFvPNSA_11io_thread_tEEEEE10deallocateEPSH_j
          38 .eh_frame$_ZN9__gnu_cxx13new_allocatorISt13_Rb_tree_nodeISt4pairIKNSt7__cxx1112basic_stringIcSt11char_traitsIcESaIcEEEMN3zmq14session_base_tEFvPNSA_11io_thread_tEEEEE7destroyISG_EEvPT_
          38 .eh_frame$_ZN9__gnu_cxx13new_allocatorISt13_Rb_tree_nodeISt4pairIKNSt7__cxx1112basic_stringIcSt11char_traitsIcESaIcEEEMN3zmq14session_base_tEFvPNSA_11io_thread_tEEEEE8allocateEjPKv
          50 .eh_frame$_ZN9__gnu_cxx13new_allocatorISt13_Rb_tree_nodeISt4pairIKNSt7__cxx1112basic_stringIcSt11char_traitsIcESaIcEEEMN3zmq14session_base_tEFvPNSA_11io_thread_tEEEEE9constructISG_JRSG_EEEvPT_DpOT0_
          38 .eh_frame$_ZN9__gnu_cxx13new_allocatorISt13_Rb_tree_nodeISt4pairIKNSt7__cxx1112basic_stringIcSt11char_traitsIcESaIcEEEMN3zmq14session_base_tEFvPNSA_11io_thread_tEEEEEC2Ev
          38 .eh_frame$_ZN9__gnu_cxx13new_allocatorISt13_Rb_tree_nodeISt4pairIKNSt7__cxx1112basic_stringIcSt11char_traitsIcESaIcEEEMN3zmq14session_base_tEFvPNSA_11io_thread_tEEEEED2Ev
          38 .eh_frame$_ZN9__gnu_cxx13new_allocatorISt13_Rb_tree_nodeISt4pairIKNSt7__cxx1112basic_stringIcSt11char_traitsIcESaIcEEEN3zmq10endpoint_tEEEE10deallocateEPSD_j
          38 .eh_frame$_ZN9__gnu_cxx13new_allocatorISt13_Rb_tree_nodeISt4pairIKNSt7__cxx1112basic_stringIcSt11char_traitsIcESaIcEEEN3zmq10endpoint_tEEEE7destroyISC_EEvPT_
          38 .eh_frame$_ZN9__gnu_cxx13new_allocatorISt13_Rb_tree_nodeISt4pairIKNSt7__cxx1112basic_stringIcSt11char_traitsIcESaIcEEEN3zmq10endpoint_tEEEE8allocateEjPKv
          50 .eh_frame$_ZN9__gnu_cxx13new_allocatorISt13_Rb_tree_nodeISt4pairIKNSt7__cxx1112basic_stringIcSt11char_traitsIcESaIcEEEN3zmq10endpoint_tEEEE9constructISC_JRKSt21piecewise_construct_tSt5tupleIJOS8_EESJ_IJEEEEEvPT_DpOT0_
          50 .eh_frame$_ZN9__gnu_cxx13new_allocatorISt13_Rb_tree_nodeISt4pairIKNSt7__cxx1112basic_stringIcSt11char_traitsIcESaIcEEEN3zmq10endpoint_tEEEE9constructISC_JS8_RKSB_EEEvPT_DpOT0_
          38 .eh_frame$_ZN9__gnu_cxx13new_allocatorISt13_Rb_tree_nodeISt4pairIKNSt7__cxx1112basic_stringIcSt11char_traitsIcESaIcEEEN3zmq10endpoint_tEEEEC2Ev
          38 .eh_frame$_ZN9__gnu_cxx13new_allocatorISt13_Rb_tree_nodeISt4pairIKNSt7__cxx1112basic_stringIcSt11char_traitsIcESaIcEEEN3zmq10endpoint_tEEEED2Ev
          38 .eh_frame$_ZN9__gnu_cxx13new_allocatorISt13_Rb_tree_nodeISt4pairIKNSt7__cxx1112basic_stringIcSt11char_traitsIcESaIcEEEN3zmq5ctx_t20pending_connection_tEEEE10deallocateEPSE_j
          38 .eh_frame$_ZN9__gnu_cxx13new_allocatorISt13_Rb_tree_nodeISt4pairIKNSt7__cxx1112basic_stringIcSt11char_traitsIcESaIcEEEN3zmq5ctx_t20pending_connection_tEEEE7destroyISD_EEvPT_
          38 .eh_frame$_ZN9__gnu_cxx13new_allocatorISt13_Rb_tree_nodeISt4pairIKNSt7__cxx1112basic_stringIcSt11char_traitsIcESaIcEEEN3zmq5ctx_t20pending_connection_tEEEE8allocateEjPKv
          50 .eh_frame$_ZN9__gnu_cxx13new_allocatorISt13_Rb_tree_nodeISt4pairIKNSt7__cxx1112basic_stringIcSt11char_traitsIcESaIcEEEN3zmq5ctx_t20pending_connection_tEEEE9constructISD_JRKSD_EEEvPT_DpOT0_
          50 .eh_frame$_ZN9__gnu_cxx13new_allocatorISt13_Rb_tree_nodeISt4pairIKNSt7__cxx1112basic_stringIcSt11char_traitsIcESaIcEEEN3zmq5ctx_t20pending_connection_tEEEE9constructISD_JRS9_RKSC_EEEvPT_DpOT0_
          38 .eh_frame$_ZN9__gnu_cxx13new_allocatorISt13_Rb_tree_nodeISt4pairIKNSt7__cxx1112basic_stringIcSt11char_traitsIcESaIcEEEN3zmq5ctx_t20pending_connection_tEEEEC2ERKSF_
          38 .eh_frame$_ZN9__gnu_cxx13new_allocatorISt13_Rb_tree_nodeISt4pairIKNSt7__cxx1112basic_stringIcSt11char_traitsIcESaIcEEEN3zmq5ctx_t20pending_connection_tEEEEC2Ev
          38 .eh_frame$_ZN9__gnu_cxx13new_allocatorISt13_Rb_tree_nodeISt4pairIKNSt7__cxx1112basic_stringIcSt11char_traitsIcESaIcEEEN3zmq5ctx_t20pending_connection_tEEEED2Ev
          70 .eh_frame$_ZN9__gnu_cxx13new_allocatorISt13_Rb_tree_nodeISt4pairIKNSt7__cxx1112basic_stringIcSt11char_traitsIcESaIcEEEPN3zmq6pipe_tEEEE10deallocateEPSE_j
          70 .eh_frame$_ZN9__gnu_cxx13new_allocatorISt13_Rb_tree_nodeISt4pairIKNSt7__cxx1112basic_stringIcSt11char_traitsIcESaIcEEEPN3zmq6pipe_tEEEE7destroyISD_EEvPT_
          70 .eh_frame$_ZN9__gnu_cxx13new_allocatorISt13_Rb_tree_nodeISt4pairIKNSt7__cxx1112basic_stringIcSt11char_traitsIcESaIcEEEPN3zmq6pipe_tEEEE8allocateEjPKv
          80 .eh_frame$_ZN9__gnu_cxx13new_allocatorISt13_Rb_tree_nodeISt4pairIKNSt7__cxx1112basic_stringIcSt11char_traitsIcESaIcEEEPN3zmq6pipe_tEEEE9constructISD_JS8_RSC_EEEvPT_DpOT0_
          70 .eh_frame$_ZN9__gnu_cxx13new_allocatorISt13_Rb_tree_nodeISt4pairIKNSt7__cxx1112basic_stringIcSt11char_traitsIcESaIcEEEPN3zmq6pipe_tEEEEC2Ev
          70 .eh_frame$_ZN9__gnu_cxx13new_allocatorISt13_Rb_tree_nodeISt4pairIKNSt7__cxx1112basic_stringIcSt11char_traitsIcESaIcEEEPN3zmq6pipe_tEEEED2Ev
          38 .eh_frame$_ZN9__gnu_cxx13new_allocatorISt13_Rb_tree_nodeISt4pairIKNSt7__cxx1112basic_stringIcSt11char_traitsIcESaIcEEES2_IPN3zmq5own_tEPNSA_6pipe_tEEEEE10deallocateEPSH_j
          38 .eh_frame$_ZN9__gnu_cxx13new_allocatorISt13_Rb_tree_nodeISt4pairIKNSt7__cxx1112basic_stringIcSt11char_traitsIcESaIcEEES2_IPN3zmq5own_tEPNSA_6pipe_tEEEEE7destroyISG_EEvPT_
          38 .eh_frame$_ZN9__gnu_cxx13new_allocatorISt13_Rb_tree_nodeISt4pairIKNSt7__cxx1112basic_stringIcSt11char_traitsIcESaIcEEES2_IPN3zmq5own_tEPNSA_6pipe_tEEEEE8allocateEjPKv
          50 .eh_frame$_ZN9__gnu_cxx13new_allocatorISt13_Rb_tree_nodeISt4pairIKNSt7__cxx1112basic_stringIcSt11char_traitsIcESaIcEEES2_IPN3zmq5own_tEPNSA_6pipe_tEEEEE9constructISG_JRS9_SF_EEEvPT_DpOT0_
          38 .eh_frame$_ZN9__gnu_cxx13new_allocatorISt13_Rb_tree_nodeISt4pairIKNSt7__cxx1112basic_stringIcSt11char_traitsIcESaIcEEES2_IPN3zmq5own_tEPNSA_6pipe_tEEEEEC2Ev
          38 .eh_frame$_ZN9__gnu_cxx13new_allocatorISt13_Rb_tree_nodeISt4pairIKNSt7__cxx1112basic_stringIcSt11char_traitsIcESaIcEEES2_IPN3zmq5own_tEPNSA_6pipe_tEEEEED2Ev
         268 .eh_frame$_ZN9__gnu_cxx13new_allocatorISt13_Rb_tree_nodeISt4pairIKNSt7__cxx1112basic_stringIcSt11char_traitsIcESaIcEEES8_EEE10deallocateEPSB_j
         230 .eh_frame$_ZN9__gnu_cxx13new_allocatorISt13_Rb_tree_nodeISt4pairIKNSt7__cxx1112basic_stringIcSt11char_traitsIcESaIcEEES8_EEE7destroyISA_EEvPT_
         1C0 .eh_frame$_ZN9__gnu_cxx13new_allocatorISt13_Rb_tree_nodeISt4pairIKNSt7__cxx1112basic_stringIcSt11char_traitsIcESaIcEEES8_EEE8allocateEjPKv
         230 .eh_frame$_ZN9__gnu_cxx13new_allocatorISt13_Rb_tree_nodeISt4pairIKNSt7__cxx1112basic_stringIcSt11char_traitsIcESaIcEEES8_EEE9constructISA_JRKSA_EEEvPT_DpOT0_
          50 .eh_frame$_ZN9__gnu_cxx13new_allocatorISt13_Rb_tree_nodeISt4pairIKNSt7__cxx1112basic_stringIcSt11char_traitsIcESaIcEEES8_EEE9constructISA_JRS9_S8_EEEvPT_DpOT0_
          3C .eh_frame$_ZN9__gnu_cxx13new_allocatorISt13_Rb_tree_nodeISt4pairIKNSt7__cxx1112basic_stringIcSt11char_traitsIcESaIcEEES8_EEE9constructISA_JS2_IS8_S8_EEEEvPT_DpOT0_
          50 .eh_frame$_ZN9__gnu_cxx13new_allocatorISt13_Rb_tree_nodeISt4pairIKNSt7__cxx1112basic_stringIcSt11char_traitsIcESaIcEEES8_EEE9constructISA_JS8_RS9_EEEvPT_DpOT0_
          80 .eh_frame$_ZN9__gnu_cxx13new_allocatorISt13_Rb_tree_nodeISt4pairIKNSt7__cxx1112basic_stringIcSt11char_traitsIcESaIcEEES8_EEE9constructISA_JS8_S8_EEEvPT_DpOT0_
         188 .eh_frame$_ZN9__gnu_cxx13new_allocatorISt13_Rb_tree_nodeISt4pairIKNSt7__cxx1112basic_stringIcSt11char_traitsIcESaIcEEES8_EEEC2ERKSC_
          E0 .eh_frame$_ZN9__gnu_cxx13new_allocatorISt13_Rb_tree_nodeISt4pairIKNSt7__cxx1112basic_stringIcSt11char_traitsIcESaIcEEES8_EEEC2Ev
         230 .eh_frame$_ZN9__gnu_cxx13new_allocatorISt13_Rb_tree_nodeISt4pairIKNSt7__cxx1112basic_stringIcSt11char_traitsIcESaIcEEES8_EEED2Ev
          38 .eh_frame$_ZN9__gnu_cxx13new_allocatorISt13_Rb_tree_nodeISt4pairIKjN3zmq8server_t9outpipe_tEEEE10deallocateEPS8_j
          38 .eh_frame$_ZN9__gnu_cxx13new_allocatorISt13_Rb_tree_nodeISt4pairIKjN3zmq8server_t9outpipe_tEEEE7destroyIS7_EEvPT_
          38 .eh_frame$_ZN9__gnu_cxx13new_allocatorISt13_Rb_tree_nodeISt4pairIKjN3zmq8server_t9outpipe_tEEEE8allocateEjPKv
          40 .eh_frame$_ZN9__gnu_cxx13new_allocatorISt13_Rb_tree_nodeISt4pairIKjN3zmq8server_t9outpipe_tEEEE9constructIS7_JRjRS6_EEEvPT_DpOT0_
          38 .eh_frame$_ZN9__gnu_cxx13new_allocatorISt13_Rb_tree_nodeISt4pairIKjN3zmq8server_t9outpipe_tEEEEC2Ev
          38 .eh_frame$_ZN9__gnu_cxx13new_allocatorISt13_Rb_tree_nodeISt4pairIKjN3zmq8server_t9outpipe_tEEEED2Ev
          38 .eh_frame$_ZN9__gnu_cxx13new_allocatorISt13_Rb_tree_nodeISt4pairIKtN3zmq8select_t14family_entry_tEEEE10deallocateEPS8_j
          38 .eh_frame$_ZN9__gnu_cxx13new_allocatorISt13_Rb_tree_nodeISt4pairIKtN3zmq8select_t14family_entry_tEEEE7destroyIS7_EEvPT_
          38 .eh_frame$_ZN9__gnu_cxx13new_allocatorISt13_Rb_tree_nodeISt4pairIKtN3zmq8select_t14family_entry_tEEEE8allocateEjPKv
          50 .eh_frame$_ZN9__gnu_cxx13new_allocatorISt13_Rb_tree_nodeISt4pairIKtN3zmq8select_t14family_entry_tEEEE9constructIS7_JRKSt21piecewise_construct_tSt5tupleIJRS3_EESE_IJEEEEEvPT_DpOT0_
          38 .eh_frame$_ZN9__gnu_cxx13new_allocatorISt13_Rb_tree_nodeISt4pairIKtN3zmq8select_t14family_entry_tEEEEC2Ev
          38 .eh_frame$_ZN9__gnu_cxx13new_allocatorISt13_Rb_tree_nodeISt4pairIKtN3zmq8select_t14family_entry_tEEEED2Ev
          38 .eh_frame$_ZN9__gnu_cxx13new_allocatorISt13_Rb_tree_nodeISt4pairIKyN3zmq13poller_base_t12timer_info_tEEEE10deallocateEPS8_j
          38 .eh_frame$_ZN9__gnu_cxx13new_allocatorISt13_Rb_tree_nodeISt4pairIKyN3zmq13poller_base_t12timer_info_tEEEE7destroyIS7_EEvPT_
          38 .eh_frame$_ZN9__gnu_cxx13new_allocatorISt13_Rb_tree_nodeISt4pairIKyN3zmq13poller_base_t12timer_info_tEEEE8allocateEjPKv
          3C .eh_frame$_ZN9__gnu_cxx13new_allocatorISt13_Rb_tree_nodeISt4pairIKyN3zmq13poller_base_t12timer_info_tEEEE9constructIS7_JS7_EEEvPT_DpOT0_
          38 .eh_frame$_ZN9__gnu_cxx13new_allocatorISt13_Rb_tree_nodeISt4pairIKyN3zmq13poller_base_t12timer_info_tEEEEC2Ev
          38 .eh_frame$_ZN9__gnu_cxx13new_allocatorISt13_Rb_tree_nodeISt4pairIKyN3zmq13poller_base_t12timer_info_tEEEED2Ev
          38 .eh_frame$_ZN9__gnu_cxx13new_allocatorISt13_Rb_tree_nodeISt4pairIKyN3zmq8timers_t7timer_tEEEE10deallocateEPS8_j
          38 .eh_frame$_ZN9__gnu_cxx13new_allocatorISt13_Rb_tree_nodeISt4pairIKyN3zmq8timers_t7timer_tEEEE7destroyIS7_EEvPT_
          38 .eh_frame$_ZN9__gnu_cxx13new_allocatorISt13_Rb_tree_nodeISt4pairIKyN3zmq8timers_t7timer_tEEEE8allocateEjPKv
          3C .eh_frame$_ZN9__gnu_cxx13new_allocatorISt13_Rb_tree_nodeISt4pairIKyN3zmq8timers_t7timer_tEEEE9constructIS7_JS7_EEEvPT_DpOT0_
          38 .eh_frame$_ZN9__gnu_cxx13new_allocatorISt13_Rb_tree_nodeISt4pairIKyN3zmq8timers_t7timer_tEEEEC2Ev
          38 .eh_frame$_ZN9__gnu_cxx13new_allocatorISt13_Rb_tree_nodeISt4pairIKyN3zmq8timers_t7timer_tEEEED2Ev
          E0 .eh_frame$_ZN9__gnu_cxx13new_allocatorISt13_Rb_tree_nodeIiEE10deallocateEPS2_j
          E0 .eh_frame$_ZN9__gnu_cxx13new_allocatorISt13_Rb_tree_nodeIiEE7destroyIiEEvPT_
          70 .eh_frame$_ZN9__gnu_cxx13new_allocatorISt13_Rb_tree_nodeIiEE8allocateEjPKv
          78 .eh_frame$_ZN9__gnu_cxx13new_allocatorISt13_Rb_tree_nodeIiEE9constructIiJRKiEEEvPT_DpOT0_
          E0 .eh_frame$_ZN9__gnu_cxx13new_allocatorISt13_Rb_tree_nodeIiEEC2Ev
          E0 .eh_frame$_ZN9__gnu_cxx13new_allocatorISt13_Rb_tree_nodeIiEED2Ev
          38 .eh_frame$_ZN9__gnu_cxx13new_allocatorISt23_Sp_counted_ptr_inplaceISt5mutexSaIS2_ELNS_12_Lock_policyE2EEE10deallocateEPS5_j
          38 .eh_frame$_ZN9__gnu_cxx13new_allocatorISt23_Sp_counted_ptr_inplaceISt5mutexSaIS2_ELNS_12_Lock_policyE2EEE8allocateEjPKv
          38 .eh_frame$_ZN9__gnu_cxx13new_allocatorISt23_Sp_counted_ptr_inplaceISt5mutexSaIS2_ELNS_12_Lock_policyE2EEEC2Ev
          38 .eh_frame$_ZN9__gnu_cxx13new_allocatorISt23_Sp_counted_ptr_inplaceISt5mutexSaIS2_ELNS_12_Lock_policyE2EEED2Ev
          38 .eh_frame$_ZN9__gnu_cxx13new_allocatorISt5mutexE7destroyIS1_EEvPT_
          38 .eh_frame$_ZN9__gnu_cxx13new_allocatorISt5mutexE9constructIS1_JEEEvPT_DpOT0_
          38 .eh_frame$_ZN9__gnu_cxx13new_allocatorISt5mutexEC2ERKS2_
          38 .eh_frame$_ZN9__gnu_cxx13new_allocatorISt5mutexEC2Ev
          38 .eh_frame$_ZN9__gnu_cxx13new_allocatorISt5mutexED2Ev
         118 .eh_frame$_ZN9__gnu_cxx13new_allocatorIhE10deallocateEPhj
          70 .eh_frame$_ZN9__gnu_cxx13new_allocatorIhE7destroyIhEEvPT_
         118 .eh_frame$_ZN9__gnu_cxx13new_allocatorIhE8allocateEjPKv
          3C .eh_frame$_ZN9__gnu_cxx13new_allocatorIhE9constructIhJRKhEEEvPT_DpOT0_
          3C .eh_frame$_ZN9__gnu_cxx13new_allocatorIhE9constructIhJhEEEvPT_DpOT0_
          A8 .eh_frame$_ZN9__gnu_cxx13new_allocatorIhEC2ERKS1_
         118 .eh_frame$_ZN9__gnu_cxx13new_allocatorIhEC2Ev
         118 .eh_frame$_ZN9__gnu_cxx13new_allocatorIhED2Ev
          70 .eh_frame$_ZN9__gnu_cxx13new_allocatorIjE10deallocateEPjj
          38 .eh_frame$_ZN9__gnu_cxx13new_allocatorIjE7destroyIjEEvPT_
          70 .eh_frame$_ZN9__gnu_cxx13new_allocatorIjE8allocateEjPKv
          3C .eh_frame$_ZN9__gnu_cxx13new_allocatorIjE9constructIjJRKjEEEvPT_DpOT0_
          3C .eh_frame$_ZN9__gnu_cxx13new_allocatorIjE9constructIjJjEEEvPT_DpOT0_
          70 .eh_frame$_ZN9__gnu_cxx13new_allocatorIjEC2Ev
          70 .eh_frame$_ZN9__gnu_cxx13new_allocatorIjED2Ev
         150 .eh_frame$_ZN9__gnu_cxx14__alloc_traitsISaIN3zmq18tcp_address_mask_tEEE17_S_select_on_copyERKS3_
          38 .eh_frame$_ZN9__gnu_cxx14__alloc_traitsISaISt13_Rb_tree_nodeISt4pairIKNSt7__cxx1112basic_stringIcSt11char_traitsIcESaIcEEEN3zmq5ctx_t20pending_connection_tEEEEE17_S_select_on_copyERKSF_
         188 .eh_frame$_ZN9__gnu_cxx14__alloc_traitsISaISt13_Rb_tree_nodeISt4pairIKNSt7__cxx1112basic_stringIcSt11char_traitsIcESaIcEEES8_EEEE17_S_select_on_copyERKSC_
          38 .eh_frame$_ZN9__gnu_cxx16__aligned_bufferISt5mutexE6_M_ptrEv
          38 .eh_frame$_ZN9__gnu_cxx16__aligned_bufferISt5mutexE7_M_addrEv
          38 .eh_frame$_ZN9__gnu_cxx16__aligned_bufferISt5mutexEC1Ev
          38 .eh_frame$_ZN9__gnu_cxx16__aligned_membufINSt7__cxx1112basic_stringIcSt11char_traitsIcESaIcEEEE6_M_ptrEv
          38 .eh_frame$_ZN9__gnu_cxx16__aligned_membufINSt7__cxx1112basic_stringIcSt11char_traitsIcESaIcEEEE7_M_addrEv
          38 .eh_frame$_ZN9__gnu_cxx16__aligned_membufINSt7__cxx1112basic_stringIcSt11char_traitsIcESaIcEEEEC1Ev
          38 .eh_frame$_ZN9__gnu_cxx16__aligned_membufIPN3zmq5own_tEE6_M_ptrEv
          38 .eh_frame$_ZN9__gnu_cxx16__aligned_membufIPN3zmq5own_tEE7_M_addrEv
          38 .eh_frame$_ZN9__gnu_cxx16__aligned_membufIPN3zmq5own_tEEC1Ev
          E0 .eh_frame$_ZN9__gnu_cxx16__aligned_membufIPN3zmq6pipe_tEE6_M_ptrEv
          E0 .eh_frame$_ZN9__gnu_cxx16__aligned_membufIPN3zmq6pipe_tEE7_M_addrEv
          A8 .eh_frame$_ZN9__gnu_cxx16__aligned_membufIPN3zmq6pipe_tEEC1Ev
          70 .eh_frame$_ZN9__gnu_cxx16__aligned_membufISt4pairIKN3zmq6blob_tENS2_21routing_socket_base_t10out_pipe_tEEE6_M_ptrEv
          70 .eh_frame$_ZN9__gnu_cxx16__aligned_membufISt4pairIKN3zmq6blob_tENS2_21routing_socket_base_t10out_pipe_tEEE7_M_addrEv
          38 .eh_frame$_ZN9__gnu_cxx16__aligned_membufISt4pairIKN3zmq6blob_tENS2_21routing_socket_base_t10out_pipe_tEEEC1Ev
          38 .eh_frame$_ZN9__gnu_cxx16__aligned_membufISt4pairIKNSt7__cxx1112basic_stringIcSt11char_traitsIcESaIcEEEMN3zmq14session_base_tEFPNS9_5own_tEPNS9_11io_thread_tEbEEE6_M_ptrEv
          38 .eh_frame$_ZN9__gnu_cxx16__aligned_membufISt4pairIKNSt7__cxx1112basic_stringIcSt11char_traitsIcESaIcEEEMN3zmq14session_base_tEFPNS9_5own_tEPNS9_11io_thread_tEbEEE7_M_addrEv
          38 .eh_frame$_ZN9__gnu_cxx16__aligned_membufISt4pairIKNSt7__cxx1112basic_stringIcSt11char_traitsIcESaIcEEEMN3zmq14session_base_tEFPNS9_5own_tEPNS9_11io_thread_tEbEEEC1Ev
          38 .eh_frame$_ZN9__gnu_cxx16__aligned_membufISt4pairIKNSt7__cxx1112basic_stringIcSt11char_traitsIcESaIcEEEMN3zmq14session_base_tEFvPNS9_11io_thread_tEEEE6_M_ptrEv
          38 .eh_frame$_ZN9__gnu_cxx16__aligned_membufISt4pairIKNSt7__cxx1112basic_stringIcSt11char_traitsIcESaIcEEEMN3zmq14session_base_tEFvPNS9_11io_thread_tEEEE7_M_addrEv
          38 .eh_frame$_ZN9__gnu_cxx16__aligned_membufISt4pairIKNSt7__cxx1112basic_stringIcSt11char_traitsIcESaIcEEEMN3zmq14session_base_tEFvPNS9_11io_thread_tEEEEC1Ev
          38 .eh_frame$_ZN9__gnu_cxx16__aligned_membufISt4pairIKNSt7__cxx1112basic_stringIcSt11char_traitsIcESaIcEEEN3zmq10endpoint_tEEE6_M_ptrEv
          38 .eh_frame$_ZN9__gnu_cxx16__aligned_membufISt4pairIKNSt7__cxx1112basic_stringIcSt11char_traitsIcESaIcEEEN3zmq10endpoint_tEEE7_M_addrEv
          38 .eh_frame$_ZN9__gnu_cxx16__aligned_membufISt4pairIKNSt7__cxx1112basic_stringIcSt11char_traitsIcESaIcEEEN3zmq10endpoint_tEEEC1Ev
          38 .eh_frame$_ZN9__gnu_cxx16__aligned_membufISt4pairIKNSt7__cxx1112basic_stringIcSt11char_traitsIcESaIcEEEN3zmq5ctx_t20pending_connection_tEEE6_M_ptrEv
          38 .eh_frame$_ZN9__gnu_cxx16__aligned_membufISt4pairIKNSt7__cxx1112basic_stringIcSt11char_traitsIcESaIcEEEN3zmq5ctx_t20pending_connection_tEEE7_M_addrEv
          38 .eh_frame$_ZN9__gnu_cxx16__aligned_membufISt4pairIKNSt7__cxx1112basic_stringIcSt11char_traitsIcESaIcEEEN3zmq5ctx_t20pending_connection_tEEEC1Ev
          70 .eh_frame$_ZN9__gnu_cxx16__aligned_membufISt4pairIKNSt7__cxx1112basic_stringIcSt11char_traitsIcESaIcEEEPN3zmq6pipe_tEEE6_M_ptrEv
          70 .eh_frame$_ZN9__gnu_cxx16__aligned_membufISt4pairIKNSt7__cxx1112basic_stringIcSt11char_traitsIcESaIcEEEPN3zmq6pipe_tEEE7_M_addrEv
          70 .eh_frame$_ZN9__gnu_cxx16__aligned_membufISt4pairIKNSt7__cxx1112basic_stringIcSt11char_traitsIcESaIcEEEPN3zmq6pipe_tEEEC1Ev
          38 .eh_frame$_ZN9__gnu_cxx16__aligned_membufISt4pairIKNSt7__cxx1112basic_stringIcSt11char_traitsIcESaIcEEES1_IPN3zmq5own_tEPNS9_6pipe_tEEEE6_M_ptrEv
          38 .eh_frame$_ZN9__gnu_cxx16__aligned_membufISt4pairIKNSt7__cxx1112basic_stringIcSt11char_traitsIcESaIcEEES1_IPN3zmq5own_tEPNS9_6pipe_tEEEE7_M_addrEv
          38 .eh_frame$_ZN9__gnu_cxx16__aligned_membufISt4pairIKNSt7__cxx1112basic_stringIcSt11char_traitsIcESaIcEEES1_IPN3zmq5own_tEPNS9_6pipe_tEEEEC1Ev
         268 .eh_frame$_ZN9__gnu_cxx16__aligned_membufISt4pairIKNSt7__cxx1112basic_stringIcSt11char_traitsIcESaIcEEES7_EE6_M_ptrEv
         268 .eh_frame$_ZN9__gnu_cxx16__aligned_membufISt4pairIKNSt7__cxx1112basic_stringIcSt11char_traitsIcESaIcEEES7_EE7_M_addrEv
         1C0 .eh_frame$_ZN9__gnu_cxx16__aligned_membufISt4pairIKNSt7__cxx1112basic_stringIcSt11char_traitsIcESaIcEEES7_EEC1Ev
          38 .eh_frame$_ZN9__gnu_cxx16__aligned_membufISt4pairIKjN3zmq8server_t9outpipe_tEEE6_M_ptrEv
          38 .eh_frame$_ZN9__gnu_cxx16__aligned_membufISt4pairIKjN3zmq8server_t9outpipe_tEEE7_M_addrEv
          38 .eh_frame$_ZN9__gnu_cxx16__aligned_membufISt4pairIKjN3zmq8server_t9outpipe_tEEEC1Ev
          38 .eh_frame$_ZN9__gnu_cxx16__aligned_membufISt4pairIKtN3zmq8select_t14family_entry_tEEE6_M_ptrEv
          38 .eh_frame$_ZN9__gnu_cxx16__aligned_membufISt4pairIKtN3zmq8select_t14family_entry_tEEE7_M_addrEv
          38 .eh_frame$_ZN9__gnu_cxx16__aligned_membufISt4pairIKtN3zmq8select_t14family_entry_tEEEC1Ev
          38 .eh_frame$_ZN9__gnu_cxx16__aligned_membufISt4pairIKyN3zmq13poller_base_t12timer_info_tEEE6_M_ptrEv
          38 .eh_frame$_ZN9__gnu_cxx16__aligned_membufISt4pairIKyN3zmq13poller_base_t12timer_info_tEEE7_M_addrEv
          38 .eh_frame$_ZN9__gnu_cxx16__aligned_membufISt4pairIKyN3zmq13poller_base_t12timer_info_tEEEC1Ev
          38 .eh_frame$_ZN9__gnu_cxx16__aligned_membufISt4pairIKyN3zmq8timers_t7timer_tEEE6_M_ptrEv
          38 .eh_frame$_ZN9__gnu_cxx16__aligned_membufISt4pairIKyN3zmq8timers_t7timer_tEEE7_M_addrEv
          38 .eh_frame$_ZN9__gnu_cxx16__aligned_membufISt4pairIKyN3zmq8timers_t7timer_tEEEC1Ev
          E0 .eh_frame$_ZN9__gnu_cxx16__aligned_membufIiE6_M_ptrEv
          E0 .eh_frame$_ZN9__gnu_cxx16__aligned_membufIiE7_M_addrEv
          70 .eh_frame$_ZN9__gnu_cxx16__aligned_membufIiEC1Ev
          38 .eh_frame$_ZN9__gnu_cxx17__normal_iteratorIPKN3zmq15socket_poller_t6item_tESt6vectorIS3_SaIS3_EEEC1ERKS5_
          38 .eh_frame$_ZN9__gnu_cxx17__normal_iteratorIPKN3zmq15socket_poller_t6item_tESt6vectorIS3_SaIS3_EEEC1IPS3_EERKNS0_IT_NS_11__enable_ifIXsrSt10__are_sameISC_SB_E7__valueES8_E6__typeEEE
         188 .eh_frame$_ZN9__gnu_cxx17__normal_iteratorIPKN3zmq18tcp_address_mask_tESt6vectorIS2_SaIS2_EEEC1ERKS4_
         150 .eh_frame$_ZN9__gnu_cxx17__normal_iteratorIPKN3zmq18tcp_address_mask_tESt6vectorIS2_SaIS2_EEEppEv
          38 .eh_frame$_ZN9__gnu_cxx17__normal_iteratorIPKN3zmq8select_t10fd_entry_tESt6vectorIS3_SaIS3_EEEC1ERKS5_
          38 .eh_frame$_ZN9__gnu_cxx17__normal_iteratorIPKN3zmq8select_t10fd_entry_tESt6vectorIS3_SaIS3_EEEC1IPS3_EERKNS0_IT_NS_11__enable_ifIXsrSt10__are_sameISC_SB_E7__valueES8_E6__typeEEE
          38 .eh_frame$_ZN9__gnu_cxx17__normal_iteratorIPKPN3zmq10signaler_tESt6vectorIS3_SaIS3_EEEC1ERKS5_
          38 .eh_frame$_ZN9__gnu_cxx17__normal_iteratorIPKPN3zmq10signaler_tESt6vectorIS3_SaIS3_EEEC1IPS3_EERKNS0_IT_NS_11__enable_ifIXsrSt10__are_sameISC_SB_E7__valueES8_E6__typeEEE
          38 .eh_frame$_ZN9__gnu_cxx17__normal_iteratorIPKPN3zmq11io_thread_tESt6vectorIS3_SaIS3_EEEC1ERKS5_
          38 .eh_frame$_ZN9__gnu_cxx17__normal_iteratorIPKPN3zmq13socket_base_tESt6vectorIS3_SaIS3_EEEC1ERKS5_
          E0 .eh_frame$_ZN9__gnu_cxx17__normal_iteratorIPKPN3zmq6pipe_tESt6vectorIS3_SaIS3_EEEC1ERKS5_
          38 .eh_frame$_ZN9__gnu_cxx17__normal_iteratorIPKPN3zmq6pipe_tESt6vectorIS3_SaIS3_EEEC1IPS3_EERKNS0_IT_NS_11__enable_ifIXsrSt10__are_sameISC_SB_E7__valueES8_E6__typeEEE
          38 .eh_frame$_ZN9__gnu_cxx17__normal_iteratorIPKPN3zmq9i_mailboxESt6vectorIS3_SaIS3_EEEC1ERKS5_
          38 .eh_frame$_ZN9__gnu_cxx17__normal_iteratorIPKPN3zmq9i_mailboxESt6vectorIS3_SaIS3_EEEC1IPS3_EERKNS0_IT_NS_11__enable_ifIXsrSt10__are_sameISC_SB_E7__valueES8_E6__typeEEE
          38 .eh_frame$_ZN9__gnu_cxx17__normal_iteratorIPKhSt6vectorIhSaIhEEEC1ERKS2_
          38 .eh_frame$_ZN9__gnu_cxx17__normal_iteratorIPKjSt6vectorIjSaIjEEEC1ERKS2_
          38 .eh_frame$_ZN9__gnu_cxx17__normal_iteratorIPN3zmq15socket_poller_t6item_tESt6vectorIS3_SaIS3_EEEC1ERKS4_
          38 .eh_frame$_ZN9__gnu_cxx17__normal_iteratorIPN3zmq15socket_poller_t6item_tESt6vectorIS3_SaIS3_EEEppEv
          38 .eh_frame$_ZN9__gnu_cxx17__normal_iteratorIPN3zmq8select_t10fd_entry_tESt6vectorIS3_SaIS3_EEEC1ERKS4_
          38 .eh_frame$_ZN9__gnu_cxx17__normal_iteratorIPN3zmq8select_t10fd_entry_tESt6vectorIS3_SaIS3_EEEppEv
          38 .eh_frame$_ZN9__gnu_cxx17__normal_iteratorIPPN3zmq10signaler_tESt6vectorIS3_SaIS3_EEEC1ERKS4_
          38 .eh_frame$_ZN9__gnu_cxx17__normal_iteratorIPPN3zmq10signaler_tESt6vectorIS3_SaIS3_EEEppEv
          38 .eh_frame$_ZN9__gnu_cxx17__normal_iteratorIPPN3zmq13socket_base_tESt6vectorIS3_SaIS3_EEEC1ERKS4_
         118 .eh_frame$_ZN9__gnu_cxx17__normal_iteratorIPPN3zmq6pipe_tESt6vectorIS3_SaIS3_EEEC1ERKS4_
          38 .eh_frame$_ZN9__gnu_cxx17__normal_iteratorIPPN3zmq6pipe_tESt6vectorIS3_SaIS3_EEEppEv
          38 .eh_frame$_ZN9__gnu_cxx17__normal_iteratorIPPN3zmq9i_mailboxESt6vectorIS3_SaIS3_EEEC1ERKS4_
          70 .eh_frame$_ZN9__gnu_cxx17__normal_iteratorIPhSt6vectorIhN3zmq18secure_allocator_tIhEEEEC1ERKS1_
          A8 .eh_frame$_ZN9__gnu_cxx17__normal_iteratorIPhSt6vectorIhSaIhEEEC1ERKS1_
          38 .eh_frame$_ZN9__gnu_cxx17__normal_iteratorIPjSt6vectorIjSaIjEEEC1ERKS1_
          38 .eh_frame$_ZN9__gnu_cxx5__ops10_Iter_predIN3zmq8timers_t11match_by_idEEC1ES4_
          38 .eh_frame$_ZN9__gnu_cxx5__ops10_Iter_predIN3zmq8timers_t11match_by_idEEclISt17_Rb_tree_iteratorISt4pairIKyNS3_7timer_tEEEEEbT_
          38 .eh_frame$_ZN9__gnu_cxx5__ops10_Iter_predIPFbRKN3zmq8select_t10fd_entry_tEEEC1ES8_
          3C .eh_frame$_ZN9__gnu_cxx5__ops10_Iter_predIPFbRKN3zmq8select_t10fd_entry_tEEEclINS_17__normal_iteratorIPS4_St6vectorIS4_SaIS4_EEEEEEbT_
          38 .eh_frame$_ZN9__gnu_cxx5__ops11__pred_iterIN3zmq8timers_t11match_by_idEEENS0_10_Iter_predIT_EES6_
          38 .eh_frame$_ZN9__gnu_cxx5__ops11__pred_iterIPFbRKN3zmq8select_t10fd_entry_tEEEENS0_10_Iter_predIT_EESA_
          38 .eh_frame$_ZN9__gnu_cxx5__ops16_Iter_equals_valIKPN3zmq10signaler_tEEC1ERS5_
          38 .eh_frame$_ZN9__gnu_cxx5__ops16_Iter_equals_valIKPN3zmq10signaler_tEEclINS_17__normal_iteratorIPS4_St6vectorIS4_SaIS4_EEEEEEbT_
          38 .eh_frame$_ZN9__gnu_cxx5__ops16_Iter_equals_valIKPN3zmq6pipe_tEEC1ERS5_
          38 .eh_frame$_ZN9__gnu_cxx5__ops16_Iter_equals_valIKPN3zmq6pipe_tEEclINS_17__normal_iteratorIPS4_St6vectorIS4_SaIS4_EEEEEEbT_
          38 .eh_frame$_ZN9__gnu_cxx5__ops17__iter_equals_valIKPN3zmq10signaler_tEEENS0_16_Iter_equals_valIT_EERS7_
          38 .eh_frame$_ZN9__gnu_cxx5__ops17__iter_equals_valIKPN3zmq6pipe_tEEENS0_16_Iter_equals_valIT_EERS7_
          3C .eh_frame$_ZN9__gnu_cxxeqIPKN3zmq15socket_poller_t6item_tESt6vectorIS3_SaIS3_EEEEbRKNS_17__normal_iteratorIT_T0_EESE_
          3C .eh_frame$_ZN9__gnu_cxxeqIPKN3zmq18tcp_address_mask_tESt6vectorIS2_SaIS2_EEEEbRKNS_17__normal_iteratorIT_T0_EESD_
          3C .eh_frame$_ZN9__gnu_cxxeqIPKN3zmq8select_t10fd_entry_tESt6vectorIS3_SaIS3_EEEEbRKNS_17__normal_iteratorIT_T0_EESE_
          3C .eh_frame$_ZN9__gnu_cxxeqIPKPN3zmq11io_thread_tESt6vectorIS3_SaIS3_EEEEbRKNS_17__normal_iteratorIT_T0_EESE_
          3C .eh_frame$_ZN9__gnu_cxxeqIPKPN3zmq13socket_base_tESt6vectorIS3_SaIS3_EEEEbRKNS_17__normal_iteratorIT_T0_EESE_
          B4 .eh_frame$_ZN9__gnu_cxxeqIPKPN3zmq6pipe_tESt6vectorIS3_SaIS3_EEEEbRKNS_17__normal_iteratorIT_T0_EESE_
          3C .eh_frame$_ZN9__gnu_cxxeqIPKhSt6vectorIhSaIhEEEEbRKNS_17__normal_iteratorIT_T0_EESB_
          3C .eh_frame$_ZN9__gnu_cxxeqIPKjSt6vectorIjSaIjEEEEbRKNS_17__normal_iteratorIT_T0_EESB_
          3C .eh_frame$_ZN9__gnu_cxxeqIPN3zmq15socket_poller_t6item_tESt6vectorIS3_SaIS3_EEEEbRKNS_17__normal_iteratorIT_T0_EESD_
          3C .eh_frame$_ZN9__gnu_cxxeqIPN3zmq8select_t10fd_entry_tESt6vectorIS3_SaIS3_EEEEbRKNS_17__normal_iteratorIT_T0_EESD_
          3C .eh_frame$_ZN9__gnu_cxxmiIPKN3zmq15socket_poller_t6item_tESt6vectorIS3_SaIS3_EEEENS_17__normal_iteratorIT_T0_E15difference_typeERKSC_SF_
          3C .eh_frame$_ZN9__gnu_cxxmiIPKN3zmq8select_t10fd_entry_tESt6vectorIS3_SaIS3_EEEENS_17__normal_iteratorIT_T0_E15difference_typeERKSC_SF_
          3C .eh_frame$_ZN9__gnu_cxxmiIPKPN3zmq10signaler_tESt6vectorIS3_SaIS3_EEEENS_17__normal_iteratorIT_T0_E15difference_typeERKSC_SF_
          3C .eh_frame$_ZN9__gnu_cxxmiIPKPN3zmq6pipe_tESt6vectorIS3_SaIS3_EEEENS_17__normal_iteratorIT_T0_E15difference_typeERKSC_SF_
          3C .eh_frame$_ZN9__gnu_cxxmiIPKPN3zmq9i_mailboxESt6vectorIS3_SaIS3_EEEENS_17__normal_iteratorIT_T0_E15difference_typeERKSC_SF_
          3C .eh_frame$_ZN9__gnu_cxxmiIPN3zmq8select_t10fd_entry_tESt6vectorIS3_SaIS3_EEEENS_17__normal_iteratorIT_T0_E15difference_typeERKSB_SE_
          3C .eh_frame$_ZN9__gnu_cxxmiIPPN3zmq10signaler_tESt6vectorIS3_SaIS3_EEEENS_17__normal_iteratorIT_T0_E15difference_typeERKSB_SE_
          3C .eh_frame$_ZN9__gnu_cxxmiIPPN3zmq6pipe_tESt6vectorIS3_SaIS3_EEEENS_17__normal_iteratorIT_T0_E15difference_typeERKSB_SE_
          3C .eh_frame$_ZN9__gnu_cxxmiIPPN3zmq9i_mailboxESt6vectorIS3_SaIS3_EEEENS_17__normal_iteratorIT_T0_E15difference_typeERKSB_SE_
         168 .eh_frame$_ZN9__gnu_cxxneIPKN3zmq18tcp_address_mask_tESt6vectorIS2_SaIS2_EEEEbRKNS_17__normal_iteratorIT_T0_EESD_
          3C .eh_frame$_ZN9__gnu_cxxneIPN3zmq15socket_poller_t6item_tESt6vectorIS3_SaIS3_EEEEbRKNS_17__normal_iteratorIT_T0_EESD_
          3C .eh_frame$_ZN9__gnu_cxxneIPN3zmq8select_t10fd_entry_tESt6vectorIS3_SaIS3_EEEEbRKNS_17__normal_iteratorIT_T0_EESD_
          3C .eh_frame$_ZN9__gnu_cxxneIPPN3zmq10signaler_tESt6vectorIS3_SaIS3_EEEEbRKNS_17__normal_iteratorIT_T0_EESD_
          3C .eh_frame$_ZN9__gnu_cxxneIPPN3zmq6pipe_tESt6vectorIS3_SaIS3_EEEEbRKNS_17__normal_iteratorIT_T0_EESD_
          38 .eh_frame$_ZNK3zmq12radix_tree_t5matchEPKhjb
         188 .eh_frame$_ZNK3zmq14atomic_value_t4loadEv
          38 .eh_frame$_ZNK3zmq15generic_mtrie_tINS_6pipe_tEE12is_redundantEv
          A8 .eh_frame$_ZNK3zmq16atomic_counter_t3getEv
          38 .eh_frame$_ZNK3zmq18c_single_allocator4sizeEv
          38 .eh_frame$_ZNK3zmq19endpoint_uri_pair_t10identifierB5cxx11Ev
          38 .eh_frame$_ZNK3zmq20curve_client_tools_t13produce_helloEPvy
          E0 .eh_frame$_ZNK3zmq5msg_t12is_subscribeEv
          E0 .eh_frame$_ZNK3zmq5msg_t9is_cancelEv
          A8 .eh_frame$_ZNK3zmq6blob_t4dataEv
         118 .eh_frame$_ZNK3zmq6blob_t4sizeEv
          38 .eh_frame$_ZNK3zmq6blob_tltERKS0_
          38 .eh_frame$_ZNK3zmq8timers_t11match_by_idclERKSt4pairIKyNS0_7timer_tEE
          38 .eh_frame$_ZNK9__gnu_cxx13new_allocatorIN3zmq15socket_poller_t6item_tEE8max_sizeEv
         188 .eh_frame$_ZNK9__gnu_cxx13new_allocatorIN3zmq18tcp_address_mask_tEE8max_sizeEv
          38 .eh_frame$_ZNK9__gnu_cxx13new_allocatorIN3zmq6blob_tEE8max_sizeEv
          38 .eh_frame$_ZNK9__gnu_cxx13new_allocatorIN3zmq8select_t10fd_entry_tEE8max_sizeEv
          38 .eh_frame$_ZNK9__gnu_cxx13new_allocatorIPN3zmq10metadata_tEE8max_sizeEv
          38 .eh_frame$_ZNK9__gnu_cxx13new_allocatorIPN3zmq10signaler_tEE8max_sizeEv
          38 .eh_frame$_ZNK9__gnu_cxx13new_allocatorIPN3zmq11io_thread_tEE8max_sizeEv
          38 .eh_frame$_ZNK9__gnu_cxx13new_allocatorIPN3zmq13socket_base_tEE8max_sizeEv
          38 .eh_frame$_ZNK9__gnu_cxx13new_allocatorIPN3zmq6blob_tEE8max_sizeEv
         150 .eh_frame$_ZNK9__gnu_cxx13new_allocatorIPN3zmq6pipe_tEE8max_sizeEv
          38 .eh_frame$_ZNK9__gnu_cxx13new_allocatorIPN3zmq9i_mailboxEE8max_sizeEv
          38 .eh_frame$_ZNK9__gnu_cxx13new_allocatorIPPN3zmq10metadata_tEE8max_sizeEv
          38 .eh_frame$_ZNK9__gnu_cxx13new_allocatorIPPN3zmq6pipe_tEE8max_sizeEv
          38 .eh_frame$_ZNK9__gnu_cxx13new_allocatorIPhE8max_sizeEv
          38 .eh_frame$_ZNK9__gnu_cxx13new_allocatorISt13_Rb_tree_nodeINSt7__cxx1112basic_stringIcSt11char_traitsIcESaIcEEEEE8max_sizeEv
          38 .eh_frame$_ZNK9__gnu_cxx13new_allocatorISt13_Rb_tree_nodeIPN3zmq5own_tEEE8max_sizeEv
          A8 .eh_frame$_ZNK9__gnu_cxx13new_allocatorISt13_Rb_tree_nodeIPN3zmq6pipe_tEEE8max_sizeEv
          38 .eh_frame$_ZNK9__gnu_cxx13new_allocatorISt13_Rb_tree_nodeISt4pairIKN3zmq6blob_tENS3_21routing_socket_base_t10out_pipe_tEEEE8max_sizeEv
          38 .eh_frame$_ZNK9__gnu_cxx13new_allocatorISt13_Rb_tree_nodeISt4pairIKNSt7__cxx1112basic_stringIcSt11char_traitsIcESaIcEEEMN3zmq14session_base_tEFPNSA_5own_tEPNSA_11io_thread_tEbEEEE8max_sizeEv
          38 .eh_frame$_ZNK9__gnu_cxx13new_allocatorISt13_Rb_tree_nodeISt4pairIKNSt7__cxx1112basic_stringIcSt11char_traitsIcESaIcEEEMN3zmq14session_base_tEFvPNSA_11io_thread_tEEEEE8max_sizeEv
          38 .eh_frame$_ZNK9__gnu_cxx13new_allocatorISt13_Rb_tree_nodeISt4pairIKNSt7__cxx1112basic_stringIcSt11char_traitsIcESaIcEEEN3zmq10endpoint_tEEEE8max_sizeEv
          38 .eh_frame$_ZNK9__gnu_cxx13new_allocatorISt13_Rb_tree_nodeISt4pairIKNSt7__cxx1112basic_stringIcSt11char_traitsIcESaIcEEEN3zmq5ctx_t20pending_connection_tEEEE8max_sizeEv
          70 .eh_frame$_ZNK9__gnu_cxx13new_allocatorISt13_Rb_tree_nodeISt4pairIKNSt7__cxx1112basic_stringIcSt11char_traitsIcESaIcEEEPN3zmq6pipe_tEEEE8max_sizeEv
          38 .eh_frame$_ZNK9__gnu_cxx13new_allocatorISt13_Rb_tree_nodeISt4pairIKNSt7__cxx1112basic_stringIcSt11char_traitsIcESaIcEEES2_IPN3zmq5own_tEPNSA_6pipe_tEEEEE8max_sizeEv
         1C0 .eh_frame$_ZNK9__gnu_cxx13new_allocatorISt13_Rb_tree_nodeISt4pairIKNSt7__cxx1112basic_stringIcSt11char_traitsIcESaIcEEES8_EEE8max_sizeEv
          38 .eh_frame$_ZNK9__gnu_cxx13new_allocatorISt13_Rb_tree_nodeISt4pairIKjN3zmq8server_t9outpipe_tEEEE8max_sizeEv
          38 .eh_frame$_ZNK9__gnu_cxx13new_allocatorISt13_Rb_tree_nodeISt4pairIKtN3zmq8select_t14family_entry_tEEEE8max_sizeEv
          38 .eh_frame$_ZNK9__gnu_cxx13new_allocatorISt13_Rb_tree_nodeISt4pairIKyN3zmq13poller_base_t12timer_info_tEEEE8max_sizeEv
          38 .eh_frame$_ZNK9__gnu_cxx13new_allocatorISt13_Rb_tree_nodeISt4pairIKyN3zmq8timers_t7timer_tEEEE8max_sizeEv
          70 .eh_frame$_ZNK9__gnu_cxx13new_allocatorISt13_Rb_tree_nodeIiEE8max_sizeEv
          38 .eh_frame$_ZNK9__gnu_cxx13new_allocatorISt23_Sp_counted_ptr_inplaceISt5mutexSaIS2_ELNS_12_Lock_policyE2EEE8max_sizeEv
         118 .eh_frame$_ZNK9__gnu_cxx13new_allocatorIhE8max_sizeEv
          70 .eh_frame$_ZNK9__gnu_cxx13new_allocatorIjE8max_sizeEv
          38 .eh_frame$_ZNK9__gnu_cxx16__aligned_membufINSt7__cxx1112basic_stringIcSt11char_traitsIcESaIcEEEE6_M_ptrEv
          38 .eh_frame$_ZNK9__gnu_cxx16__aligned_membufINSt7__cxx1112basic_stringIcSt11char_traitsIcESaIcEEEE7_M_addrEv
          38 .eh_frame$_ZNK9__gnu_cxx16__aligned_membufIPN3zmq5own_tEE6_M_ptrEv
          38 .eh_frame$_ZNK9__gnu_cxx16__aligned_membufIPN3zmq5own_tEE7_M_addrEv
          E0 .eh_frame$_ZNK9__gnu_cxx16__aligned_membufIPN3zmq6pipe_tEE6_M_ptrEv
          E0 .eh_frame$_ZNK9__gnu_cxx16__aligned_membufIPN3zmq6pipe_tEE7_M_addrEv
          38 .eh_frame$_ZNK9__gnu_cxx16__aligned_membufISt4pairIKN3zmq6blob_tENS2_21routing_socket_base_t10out_pipe_tEEE6_M_ptrEv
          38 .eh_frame$_ZNK9__gnu_cxx16__aligned_membufISt4pairIKN3zmq6blob_tENS2_21routing_socket_base_t10out_pipe_tEEE7_M_addrEv
          38 .eh_frame$_ZNK9__gnu_cxx16__aligned_membufISt4pairIKNSt7__cxx1112basic_stringIcSt11char_traitsIcESaIcEEEMN3zmq14session_base_tEFPNS9_5own_tEPNS9_11io_thread_tEbEEE6_M_ptrEv
          38 .eh_frame$_ZNK9__gnu_cxx16__aligned_membufISt4pairIKNSt7__cxx1112basic_stringIcSt11char_traitsIcESaIcEEEMN3zmq14session_base_tEFPNS9_5own_tEPNS9_11io_thread_tEbEEE7_M_addrEv
          38 .eh_frame$_ZNK9__gnu_cxx16__aligned_membufISt4pairIKNSt7__cxx1112basic_stringIcSt11char_traitsIcESaIcEEEMN3zmq14session_base_tEFvPNS9_11io_thread_tEEEE6_M_ptrEv
          38 .eh_frame$_ZNK9__gnu_cxx16__aligned_membufISt4pairIKNSt7__cxx1112basic_stringIcSt11char_traitsIcESaIcEEEMN3zmq14session_base_tEFvPNS9_11io_thread_tEEEE7_M_addrEv
          38 .eh_frame$_ZNK9__gnu_cxx16__aligned_membufISt4pairIKNSt7__cxx1112basic_stringIcSt11char_traitsIcESaIcEEEN3zmq10endpoint_tEEE6_M_ptrEv
          38 .eh_frame$_ZNK9__gnu_cxx16__aligned_membufISt4pairIKNSt7__cxx1112basic_stringIcSt11char_traitsIcESaIcEEEN3zmq10endpoint_tEEE7_M_addrEv
          38 .eh_frame$_ZNK9__gnu_cxx16__aligned_membufISt4pairIKNSt7__cxx1112basic_stringIcSt11char_traitsIcESaIcEEEN3zmq5ctx_t20pending_connection_tEEE6_M_ptrEv
          38 .eh_frame$_ZNK9__gnu_cxx16__aligned_membufISt4pairIKNSt7__cxx1112basic_stringIcSt11char_traitsIcESaIcEEEN3zmq5ctx_t20pending_connection_tEEE7_M_addrEv
          70 .eh_frame$_ZNK9__gnu_cxx16__aligned_membufISt4pairIKNSt7__cxx1112basic_stringIcSt11char_traitsIcESaIcEEEPN3zmq6pipe_tEEE6_M_ptrEv
          70 .eh_frame$_ZNK9__gnu_cxx16__aligned_membufISt4pairIKNSt7__cxx1112basic_stringIcSt11char_traitsIcESaIcEEEPN3zmq6pipe_tEEE7_M_addrEv
          38 .eh_frame$_ZNK9__gnu_cxx16__aligned_membufISt4pairIKNSt7__cxx1112basic_stringIcSt11char_traitsIcESaIcEEES1_IPN3zmq5own_tEPNS9_6pipe_tEEEE6_M_ptrEv
          38 .eh_frame$_ZNK9__gnu_cxx16__aligned_membufISt4pairIKNSt7__cxx1112basic_stringIcSt11char_traitsIcESaIcEEES1_IPN3zmq5own_tEPNS9_6pipe_tEEEE7_M_addrEv
         1C0 .eh_frame$_ZNK9__gnu_cxx16__aligned_membufISt4pairIKNSt7__cxx1112basic_stringIcSt11char_traitsIcESaIcEEES7_EE6_M_ptrEv
         1C0 .eh_frame$_ZNK9__gnu_cxx16__aligned_membufISt4pairIKNSt7__cxx1112basic_stringIcSt11char_traitsIcESaIcEEES7_EE7_M_addrEv
          38 .eh_frame$_ZNK9__gnu_cxx16__aligned_membufISt4pairIKjN3zmq8server_t9outpipe_tEEE6_M_ptrEv
          38 .eh_frame$_ZNK9__gnu_cxx16__aligned_membufISt4pairIKjN3zmq8server_t9outpipe_tEEE7_M_addrEv
          38 .eh_frame$_ZNK9__gnu_cxx16__aligned_membufISt4pairIKtN3zmq8select_t14family_entry_tEEE6_M_ptrEv
          38 .eh_frame$_ZNK9__gnu_cxx16__aligned_membufISt4pairIKtN3zmq8select_t14family_entry_tEEE7_M_addrEv
          38 .eh_frame$_ZNK9__gnu_cxx16__aligned_membufISt4pairIKyN3zmq13poller_base_t12timer_info_tEEE6_M_ptrEv
          38 .eh_frame$_ZNK9__gnu_cxx16__aligned_membufISt4pairIKyN3zmq13poller_base_t12timer_info_tEEE7_M_addrEv
          38 .eh_frame$_ZNK9__gnu_cxx16__aligned_membufISt4pairIKyN3zmq8timers_t7timer_tEEE6_M_ptrEv
          38 .eh_frame$_ZNK9__gnu_cxx16__aligned_membufISt4pairIKyN3zmq8timers_t7timer_tEEE7_M_addrEv
          70 .eh_frame$_ZNK9__gnu_cxx16__aligned_membufIiE6_M_ptrEv
          70 .eh_frame$_ZNK9__gnu_cxx16__aligned_membufIiE7_M_addrEv
          38 .eh_frame$_ZNK9__gnu_cxx17__normal_iteratorIPKN3zmq15socket_poller_t6item_tESt6vectorIS3_SaIS3_EEE4baseEv
         188 .eh_frame$_ZNK9__gnu_cxx17__normal_iteratorIPKN3zmq18tcp_address_mask_tESt6vectorIS2_SaIS2_EEE4baseEv
         150 .eh_frame$_ZNK9__gnu_cxx17__normal_iteratorIPKN3zmq18tcp_address_mask_tESt6vectorIS2_SaIS2_EEEdeEv
          38 .eh_frame$_ZNK9__gnu_cxx17__normal_iteratorIPKN3zmq8select_t10fd_entry_tESt6vectorIS3_SaIS3_EEE4baseEv
          38 .eh_frame$_ZNK9__gnu_cxx17__normal_iteratorIPKPN3zmq10signaler_tESt6vectorIS3_SaIS3_EEE4baseEv
          38 .eh_frame$_ZNK9__gnu_cxx17__normal_iteratorIPKPN3zmq11io_thread_tESt6vectorIS3_SaIS3_EEE4baseEv
          38 .eh_frame$_ZNK9__gnu_cxx17__normal_iteratorIPKPN3zmq13socket_base_tESt6vectorIS3_SaIS3_EEE4baseEv
          E0 .eh_frame$_ZNK9__gnu_cxx17__normal_iteratorIPKPN3zmq6pipe_tESt6vectorIS3_SaIS3_EEE4baseEv
          38 .eh_frame$_ZNK9__gnu_cxx17__normal_iteratorIPKPN3zmq9i_mailboxESt6vectorIS3_SaIS3_EEE4baseEv
          38 .eh_frame$_ZNK9__gnu_cxx17__normal_iteratorIPKhSt6vectorIhSaIhEEE4baseEv
          38 .eh_frame$_ZNK9__gnu_cxx17__normal_iteratorIPKjSt6vectorIjSaIjEEE4baseEv
          38 .eh_frame$_ZNK9__gnu_cxx17__normal_iteratorIPN3zmq15socket_poller_t6item_tESt6vectorIS3_SaIS3_EEE4baseEv
          38 .eh_frame$_ZNK9__gnu_cxx17__normal_iteratorIPN3zmq15socket_poller_t6item_tESt6vectorIS3_SaIS3_EEEplEi
          38 .eh_frame$_ZNK9__gnu_cxx17__normal_iteratorIPN3zmq15socket_poller_t6item_tESt6vectorIS3_SaIS3_EEEptEv
          38 .eh_frame$_ZNK9__gnu_cxx17__normal_iteratorIPN3zmq8select_t10fd_entry_tESt6vectorIS3_SaIS3_EEE4baseEv
          38 .eh_frame$_ZNK9__gnu_cxx17__normal_iteratorIPN3zmq8select_t10fd_entry_tESt6vectorIS3_SaIS3_EEEdeEv
          38 .eh_frame$_ZNK9__gnu_cxx17__normal_iteratorIPN3zmq8select_t10fd_entry_tESt6vectorIS3_SaIS3_EEEplEi
          38 .eh_frame$_ZNK9__gnu_cxx17__normal_iteratorIPN3zmq8select_t10fd_entry_tESt6vectorIS3_SaIS3_EEEptEv
          38 .eh_frame$_ZNK9__gnu_cxx17__normal_iteratorIPPN3zmq10signaler_tESt6vectorIS3_SaIS3_EEE4baseEv
          38 .eh_frame$_ZNK9__gnu_cxx17__normal_iteratorIPPN3zmq10signaler_tESt6vectorIS3_SaIS3_EEEdeEv
          38 .eh_frame$_ZNK9__gnu_cxx17__normal_iteratorIPPN3zmq10signaler_tESt6vectorIS3_SaIS3_EEEplEi
          38 .eh_frame$_ZNK9__gnu_cxx17__normal_iteratorIPPN3zmq13socket_base_tESt6vectorIS3_SaIS3_EEEdeEv
          38 .eh_frame$_ZNK9__gnu_cxx17__normal_iteratorIPPN3zmq13socket_base_tESt6vectorIS3_SaIS3_EEEmiEi
          38 .eh_frame$_ZNK9__gnu_cxx17__normal_iteratorIPPN3zmq6pipe_tESt6vectorIS3_SaIS3_EEE4baseEv
         118 .eh_frame$_ZNK9__gnu_cxx17__normal_iteratorIPPN3zmq6pipe_tESt6vectorIS3_SaIS3_EEEdeEv
          E0 .eh_frame$_ZNK9__gnu_cxx17__normal_iteratorIPPN3zmq6pipe_tESt6vectorIS3_SaIS3_EEEmiEi
          38 .eh_frame$_ZNK9__gnu_cxx17__normal_iteratorIPPN3zmq6pipe_tESt6vectorIS3_SaIS3_EEEplEi
          38 .eh_frame$_ZNK9__gnu_cxx17__normal_iteratorIPPN3zmq9i_mailboxESt6vectorIS3_SaIS3_EEE4baseEv
          38 .eh_frame$_ZNK9__gnu_cxx17__normal_iteratorIPPN3zmq9i_mailboxESt6vectorIS3_SaIS3_EEEplEi
          70 .eh_frame$_ZNK9__gnu_cxx17__normal_iteratorIPhSt6vectorIhN3zmq18secure_allocator_tIhEEEE4baseEv
          70 .eh_frame$_ZNK9__gnu_cxx17__normal_iteratorIPhSt6vectorIhN3zmq18secure_allocator_tIhEEEEplEi
          A8 .eh_frame$_ZNK9__gnu_cxx17__normal_iteratorIPhSt6vectorIhSaIhEEE4baseEv
          A8 .eh_frame$_ZNK9__gnu_cxx17__normal_iteratorIPhSt6vectorIhSaIhEEEplEi
          38 .eh_frame$_ZNK9__gnu_cxx17__normal_iteratorIPjSt6vectorIjSaIjEEEdeEv
          38 .eh_frame$_ZNK9__gnu_cxx17__normal_iteratorIPjSt6vectorIjSaIjEEEmiEi
          38 .eh_frame$_ZNKSt10_Select1stISt4pairIKN3zmq6blob_tENS1_21routing_socket_base_t10out_pipe_tEEEclERKS6_
          38 .eh_frame$_ZNKSt10_Select1stISt4pairIKNSt7__cxx1112basic_stringIcSt11char_traitsIcESaIcEEEMN3zmq14session_base_tEFPNS8_5own_tEPNS8_11io_thread_tEbEEEclERKSG_
          38 .eh_frame$_ZNKSt10_Select1stISt4pairIKNSt7__cxx1112basic_stringIcSt11char_traitsIcESaIcEEEMN3zmq14session_base_tEFPNS8_5own_tEPNS8_11io_thread_tEbEEEclERSG_
          38 .eh_frame$_ZNKSt10_Select1stISt4pairIKNSt7__cxx1112basic_stringIcSt11char_traitsIcESaIcEEEMN3zmq14session_base_tEFvPNS8_11io_thread_tEEEEclERKSE_
          38 .eh_frame$_ZNKSt10_Select1stISt4pairIKNSt7__cxx1112basic_stringIcSt11char_traitsIcESaIcEEEMN3zmq14session_base_tEFvPNS8_11io_thread_tEEEEclERSE_
          38 .eh_frame$_ZNKSt10_Select1stISt4pairIKNSt7__cxx1112basic_stringIcSt11char_traitsIcESaIcEEEN3zmq10endpoint_tEEEclERKSA_
          38 .eh_frame$_ZNKSt10_Select1stISt4pairIKNSt7__cxx1112basic_stringIcSt11char_traitsIcESaIcEEEN3zmq5ctx_t20pending_connection_tEEEclERKSB_
          70 .eh_frame$_ZNKSt10_Select1stISt4pairIKNSt7__cxx1112basic_stringIcSt11char_traitsIcESaIcEEEPN3zmq6pipe_tEEEclERKSB_
          38 .eh_frame$_ZNKSt10_Select1stISt4pairIKNSt7__cxx1112basic_stringIcSt11char_traitsIcESaIcEEES0_IPN3zmq5own_tEPNS8_6pipe_tEEEEclERKSE_
          E0 .eh_frame$_ZNKSt10_Select1stISt4pairIKNSt7__cxx1112basic_stringIcSt11char_traitsIcESaIcEEES6_EEclERKS8_
          38 .eh_frame$_ZNKSt10_Select1stISt4pairIKNSt7__cxx1112basic_stringIcSt11char_traitsIcESaIcEEES6_EEclIS0_IS6_S6_EEERNT_10first_typeERSC_
          38 .eh_frame$_ZNKSt10_Select1stISt4pairIKjN3zmq8server_t9outpipe_tEEEclERKS5_
          38 .eh_frame$_ZNKSt10_Select1stISt4pairIKtN3zmq8select_t14family_entry_tEEEclERKS5_
          38 .eh_frame$_ZNKSt10_Select1stISt4pairIKyN3zmq13poller_base_t12timer_info_tEEEclERKS5_
          38 .eh_frame$_ZNKSt10_Select1stISt4pairIKyN3zmq13poller_base_t12timer_info_tEEEclERS5_
          38 .eh_frame$_ZNKSt10_Select1stISt4pairIKyN3zmq8timers_t7timer_tEEEclERKS5_
          38 .eh_frame$_ZNKSt10_Select1stISt4pairIKyN3zmq8timers_t7timer_tEEEclERS5_
          38 .eh_frame$_ZNKSt11_Deque_baseIN3zmq6blob_tESaIS1_EE19_M_get_Tp_allocatorEv
          38 .eh_frame$_ZNKSt11_Deque_baseIN3zmq6blob_tESaIS1_EE20_M_get_map_allocatorEv
          38 .eh_frame$_ZNKSt11_Deque_baseIPN3zmq10metadata_tESaIS2_EE19_M_get_Tp_allocatorEv
          38 .eh_frame$_ZNKSt11_Deque_baseIPN3zmq10metadata_tESaIS2_EE20_M_get_map_allocatorEv
          38 .eh_frame$_ZNKSt11_Deque_baseIPN3zmq6pipe_tESaIS2_EE19_M_get_Tp_allocatorEv
          38 .eh_frame$_ZNKSt11_Deque_baseIPN3zmq6pipe_tESaIS2_EE20_M_get_map_allocatorEv
          38 .eh_frame$_ZNKSt11_Deque_baseIhSaIhEE19_M_get_Tp_allocatorEv
          38 .eh_frame$_ZNKSt11_Deque_baseIhSaIhEE20_M_get_map_allocatorEv
          38 .eh_frame$_ZNKSt11unique_lockISt5mutexE5mutexEv
          38 .eh_frame$_ZNKSt12_Vector_baseIN3zmq15socket_poller_t6item_tESaIS2_EE19_M_get_Tp_allocatorEv
         188 .eh_frame$_ZNKSt12_Vector_baseIN3zmq18tcp_address_mask_tESaIS1_EE19_M_get_Tp_allocatorEv
          38 .eh_frame$_ZNKSt12_Vector_baseIN3zmq8select_t10fd_entry_tESaIS2_EE19_M_get_Tp_allocatorEv
          38 .eh_frame$_ZNKSt12_Vector_baseIPN3zmq10signaler_tESaIS2_EE19_M_get_Tp_allocatorEv
          38 .eh_frame$_ZNKSt12_Vector_baseIPN3zmq11io_thread_tESaIS2_EE19_M_get_Tp_allocatorEv
          38 .eh_frame$_ZNKSt12_Vector_baseIPN3zmq13socket_base_tESaIS2_EE19_M_get_Tp_allocatorEv
         118 .eh_frame$_ZNKSt12_Vector_baseIPN3zmq6pipe_tESaIS2_EE19_M_get_Tp_allocatorEv
          38 .eh_frame$_ZNKSt12_Vector_baseIPN3zmq9i_mailboxESaIS2_EE19_M_get_Tp_allocatorEv
          38 .eh_frame$_ZNKSt12_Vector_baseIhSaIhEE19_M_get_Tp_allocatorEv
          70 .eh_frame$_ZNKSt12_Vector_baseIjSaIjEE19_M_get_Tp_allocatorEv
          38 .eh_frame$_ZNKSt12__shared_ptrISt5mutexLN9__gnu_cxx12_Lock_policyE2EEdeEv
          38 .eh_frame$_ZNKSt13_Rb_tree_nodeINSt7__cxx1112basic_stringIcSt11char_traitsIcESaIcEEEE9_M_valptrEv
          38 .eh_frame$_ZNKSt13_Rb_tree_nodeIPN3zmq5own_tEE9_M_valptrEv
          E0 .eh_frame$_ZNKSt13_Rb_tree_nodeIPN3zmq6pipe_tEE9_M_valptrEv
          38 .eh_frame$_ZNKSt13_Rb_tree_nodeISt4pairIKN3zmq6blob_tENS1_21routing_socket_base_t10out_pipe_tEEE9_M_valptrEv
          38 .eh_frame$_ZNKSt13_Rb_tree_nodeISt4pairIKNSt7__cxx1112basic_stringIcSt11char_traitsIcESaIcEEEMN3zmq14session_base_tEFPNS8_5own_tEPNS8_11io_thread_tEbEEE9_M_valptrEv
          38 .eh_frame$_ZNKSt13_Rb_tree_nodeISt4pairIKNSt7__cxx1112basic_stringIcSt11char_traitsIcESaIcEEEMN3zmq14session_base_tEFvPNS8_11io_thread_tEEEE9_M_valptrEv
          38 .eh_frame$_ZNKSt13_Rb_tree_nodeISt4pairIKNSt7__cxx1112basic_stringIcSt11char_traitsIcESaIcEEEN3zmq10endpoint_tEEE9_M_valptrEv
          38 .eh_frame$_ZNKSt13_Rb_tree_nodeISt4pairIKNSt7__cxx1112basic_stringIcSt11char_traitsIcESaIcEEEN3zmq5ctx_t20pending_connection_tEEE9_M_valptrEv
          70 .eh_frame$_ZNKSt13_Rb_tree_nodeISt4pairIKNSt7__cxx1112basic_stringIcSt11char_traitsIcESaIcEEEPN3zmq6pipe_tEEE9_M_valptrEv
          38 .eh_frame$_ZNKSt13_Rb_tree_nodeISt4pairIKNSt7__cxx1112basic_stringIcSt11char_traitsIcESaIcEEES0_IPN3zmq5own_tEPNS8_6pipe_tEEEE9_M_valptrEv
         1C0 .eh_frame$_ZNKSt13_Rb_tree_nodeISt4pairIKNSt7__cxx1112basic_stringIcSt11char_traitsIcESaIcEEES6_EE9_M_valptrEv
          38 .eh_frame$_ZNKSt13_Rb_tree_nodeISt4pairIKjN3zmq8server_t9outpipe_tEEE9_M_valptrEv
          38 .eh_frame$_ZNKSt13_Rb_tree_nodeISt4pairIKtN3zmq8select_t14family_entry_tEEE9_M_valptrEv
          38 .eh_frame$_ZNKSt13_Rb_tree_nodeISt4pairIKyN3zmq13poller_base_t12timer_info_tEEE9_M_valptrEv
          38 .eh_frame$_ZNKSt13_Rb_tree_nodeISt4pairIKyN3zmq8timers_t7timer_tEEE9_M_valptrEv
          70 .eh_frame$_ZNKSt13_Rb_tree_nodeIiE9_M_valptrEv
          A8 .eh_frame$_ZNKSt13__atomic_baseIjEcvjEv
          38 .eh_frame$_ZNKSt13move_iteratorIPN3zmq15socket_poller_t6item_tEE4baseEv
          38 .eh_frame$_ZNKSt13move_iteratorIPN3zmq18tcp_address_mask_tEE4baseEv
          38 .eh_frame$_ZNKSt13move_iteratorIPN3zmq18tcp_address_mask_tEEdeEv
          38 .eh_frame$_ZNKSt13move_iteratorIPN3zmq8select_t10fd_entry_tEE4baseEv
          38 .eh_frame$_ZNKSt13move_iteratorIPPN3zmq10signaler_tEE4baseEv
          38 .eh_frame$_ZNKSt13move_iteratorIPPN3zmq11io_thread_tEE4baseEv
          38 .eh_frame$_ZNKSt13move_iteratorIPPN3zmq13socket_base_tEE4baseEv
         118 .eh_frame$_ZNKSt13move_iteratorIPPN3zmq6pipe_tEE4baseEv
          38 .eh_frame$_ZNKSt13move_iteratorIPPN3zmq9i_mailboxEE4baseEv
          38 .eh_frame$_ZNKSt13move_iteratorIPhE4baseEv
          70 .eh_frame$_ZNKSt13move_iteratorIPjE4baseEv
          3C .eh_frame$_ZNKSt14__shared_countILN9__gnu_cxx12_Lock_policyE2EE14_M_get_deleterERKSt9type_info
          38 .eh_frame$_ZNKSt15_Deque_iteratorIN3zmq6blob_tERS1_PS1_EdeEv
          38 .eh_frame$_ZNKSt15_Deque_iteratorIPN3zmq10metadata_tERS2_PS2_EdeEv
          38 .eh_frame$_ZNKSt15_Deque_iteratorIPN3zmq6pipe_tERS2_PS2_EdeEv
          38 .eh_frame$_ZNKSt15_Deque_iteratorIhRhPhEdeEv
          38 .eh_frame$_ZNKSt17_Rb_tree_iteratorINSt7__cxx1112basic_stringIcSt11char_traitsIcESaIcEEEEeqERKS6_
          38 .eh_frame$_ZNKSt17_Rb_tree_iteratorIPN3zmq5own_tEEeqERKS3_
          A8 .eh_frame$_ZNKSt17_Rb_tree_iteratorIPN3zmq6pipe_tEEeqERKS3_
          38 .eh_frame$_ZNKSt17_Rb_tree_iteratorISt4pairIKN3zmq6blob_tENS1_21routing_socket_base_t10out_pipe_tEEEeqERKS7_
          70 .eh_frame$_ZNKSt17_Rb_tree_iteratorISt4pairIKN3zmq6blob_tENS1_21routing_socket_base_t10out_pipe_tEEEneERKS7_
          70 .eh_frame$_ZNKSt17_Rb_tree_iteratorISt4pairIKN3zmq6blob_tENS1_21routing_socket_base_t10out_pipe_tEEEptEv
          38 .eh_frame$_ZNKSt17_Rb_tree_iteratorISt4pairIKNSt7__cxx1112basic_stringIcSt11char_traitsIcESaIcEEEMN3zmq14session_base_tEFPNS8_5own_tEPNS8_11io_thread_tEbEEEeqERKSH_
          38 .eh_frame$_ZNKSt17_Rb_tree_iteratorISt4pairIKNSt7__cxx1112basic_stringIcSt11char_traitsIcESaIcEEEMN3zmq14session_base_tEFvPNS8_11io_thread_tEEEEeqERKSF_
          38 .eh_frame$_ZNKSt17_Rb_tree_iteratorISt4pairIKNSt7__cxx1112basic_stringIcSt11char_traitsIcESaIcEEEN3zmq10endpoint_tEEEdeEv
          38 .eh_frame$_ZNKSt17_Rb_tree_iteratorISt4pairIKNSt7__cxx1112basic_stringIcSt11char_traitsIcESaIcEEEN3zmq10endpoint_tEEEeqERKSB_
          38 .eh_frame$_ZNKSt17_Rb_tree_iteratorISt4pairIKNSt7__cxx1112basic_stringIcSt11char_traitsIcESaIcEEEN3zmq10endpoint_tEEEneERKSB_
          38 .eh_frame$_ZNKSt17_Rb_tree_iteratorISt4pairIKNSt7__cxx1112basic_stringIcSt11char_traitsIcESaIcEEEN3zmq10endpoint_tEEEptEv
          38 .eh_frame$_ZNKSt17_Rb_tree_iteratorISt4pairIKNSt7__cxx1112basic_stringIcSt11char_traitsIcESaIcEEEN3zmq5ctx_t20pending_connection_tEEEneERKSC_
          38 .eh_frame$_ZNKSt17_Rb_tree_iteratorISt4pairIKNSt7__cxx1112basic_stringIcSt11char_traitsIcESaIcEEEN3zmq5ctx_t20pending_connection_tEEEptEv
          38 .eh_frame$_ZNKSt17_Rb_tree_iteratorISt4pairIKNSt7__cxx1112basic_stringIcSt11char_traitsIcESaIcEEEPN3zmq6pipe_tEEEeqERKSC_
          70 .eh_frame$_ZNKSt17_Rb_tree_iteratorISt4pairIKNSt7__cxx1112basic_stringIcSt11char_traitsIcESaIcEEEPN3zmq6pipe_tEEEneERKSC_
          70 .eh_frame$_ZNKSt17_Rb_tree_iteratorISt4pairIKNSt7__cxx1112basic_stringIcSt11char_traitsIcESaIcEEEPN3zmq6pipe_tEEEptEv
          38 .eh_frame$_ZNKSt17_Rb_tree_iteratorISt4pairIKNSt7__cxx1112basic_stringIcSt11char_traitsIcESaIcEEES0_IPN3zmq5own_tEPNS8_6pipe_tEEEEeqERKSF_
          38 .eh_frame$_ZNKSt17_Rb_tree_iteratorISt4pairIKNSt7__cxx1112basic_stringIcSt11char_traitsIcESaIcEEES0_IPN3zmq5own_tEPNS8_6pipe_tEEEEneERKSF_
          38 .eh_frame$_ZNKSt17_Rb_tree_iteratorISt4pairIKNSt7__cxx1112basic_stringIcSt11char_traitsIcESaIcEEES0_IPN3zmq5own_tEPNS8_6pipe_tEEEEptEv
          A8 .eh_frame$_ZNKSt17_Rb_tree_iteratorISt4pairIKNSt7__cxx1112basic_stringIcSt11char_traitsIcESaIcEEES6_EEeqERKS9_
          38 .eh_frame$_ZNKSt17_Rb_tree_iteratorISt4pairIKjN3zmq8server_t9outpipe_tEEEeqERKS6_
          38 .eh_frame$_ZNKSt17_Rb_tree_iteratorISt4pairIKjN3zmq8server_t9outpipe_tEEEneERKS6_
          38 .eh_frame$_ZNKSt17_Rb_tree_iteratorISt4pairIKjN3zmq8server_t9outpipe_tEEEptEv
          38 .eh_frame$_ZNKSt17_Rb_tree_iteratorISt4pairIKtN3zmq8select_t14family_entry_tEEEdeEv
          38 .eh_frame$_ZNKSt17_Rb_tree_iteratorISt4pairIKtN3zmq8select_t14family_entry_tEEEeqERKS6_
          38 .eh_frame$_ZNKSt17_Rb_tree_iteratorISt4pairIKtN3zmq8select_t14family_entry_tEEEneERKS6_
          38 .eh_frame$_ZNKSt17_Rb_tree_iteratorISt4pairIKtN3zmq8select_t14family_entry_tEEEptEv
          38 .eh_frame$_ZNKSt17_Rb_tree_iteratorISt4pairIKyN3zmq13poller_base_t12timer_info_tEEEneERKS6_
          38 .eh_frame$_ZNKSt17_Rb_tree_iteratorISt4pairIKyN3zmq13poller_base_t12timer_info_tEEEptEv
          38 .eh_frame$_ZNKSt17_Rb_tree_iteratorISt4pairIKyN3zmq8timers_t7timer_tEEEdeEv
          38 .eh_frame$_ZNKSt17_Rb_tree_iteratorISt4pairIKyN3zmq8timers_t7timer_tEEEeqERKS6_
          38 .eh_frame$_ZNKSt17_Rb_tree_iteratorISt4pairIKyN3zmq8timers_t7timer_tEEEneERKS6_
          38 .eh_frame$_ZNKSt17_Rb_tree_iteratorISt4pairIKyN3zmq8timers_t7timer_tEEEptEv
          70 .eh_frame$_ZNKSt17_Rb_tree_iteratorIiEeqERKS0_
          38 .eh_frame$_ZNKSt23_Rb_tree_const_iteratorINSt7__cxx1112basic_stringIcSt11char_traitsIcESaIcEEEE13_M_const_castEv
          38 .eh_frame$_ZNKSt23_Rb_tree_const_iteratorINSt7__cxx1112basic_stringIcSt11char_traitsIcESaIcEEEEeqERKS6_
          38 .eh_frame$_ZNKSt23_Rb_tree_const_iteratorINSt7__cxx1112basic_stringIcSt11char_traitsIcESaIcEEEEneERKS6_
          38 .eh_frame$_ZNKSt23_Rb_tree_const_iteratorINSt7__cxx1112basic_stringIcSt11char_traitsIcESaIcEEEEptEv
          38 .eh_frame$_ZNKSt23_Rb_tree_const_iteratorIPN3zmq5own_tEE13_M_const_castEv
          38 .eh_frame$_ZNKSt23_Rb_tree_const_iteratorIPN3zmq5own_tEEdeEv
          38 .eh_frame$_ZNKSt23_Rb_tree_const_iteratorIPN3zmq5own_tEEeqERKS3_
          38 .eh_frame$_ZNKSt23_Rb_tree_const_iteratorIPN3zmq5own_tEEneERKS3_
          E0 .eh_frame$_ZNKSt23_Rb_tree_const_iteratorIPN3zmq6pipe_tEE13_M_const_castEv
          38 .eh_frame$_ZNKSt23_Rb_tree_const_iteratorIPN3zmq6pipe_tEEdeEv
          E0 .eh_frame$_ZNKSt23_Rb_tree_const_iteratorIPN3zmq6pipe_tEEeqERKS3_
          E0 .eh_frame$_ZNKSt23_Rb_tree_const_iteratorIPN3zmq6pipe_tEEneERKS3_
          38 .eh_frame$_ZNKSt23_Rb_tree_const_iteratorISt4pairIKN3zmq6blob_tENS1_21routing_socket_base_t10out_pipe_tEEE13_M_const_castEv
          38 .eh_frame$_ZNKSt23_Rb_tree_const_iteratorISt4pairIKN3zmq6blob_tENS1_21routing_socket_base_t10out_pipe_tEEEeqERKS7_
          38 .eh_frame$_ZNKSt23_Rb_tree_const_iteratorISt4pairIKN3zmq6blob_tENS1_21routing_socket_base_t10out_pipe_tEEEneERKS7_
          38 .eh_frame$_ZNKSt23_Rb_tree_const_iteratorISt4pairIKN3zmq6blob_tENS1_21routing_socket_base_t10out_pipe_tEEEptEv
          38 .eh_frame$_ZNKSt23_Rb_tree_const_iteratorISt4pairIKNSt7__cxx1112basic_stringIcSt11char_traitsIcESaIcEEEMN3zmq14session_base_tEFPNS8_5own_tEPNS8_11io_thread_tEbEEE13_M_const_castEv
          38 .eh_frame$_ZNKSt23_Rb_tree_const_iteratorISt4pairIKNSt7__cxx1112basic_stringIcSt11char_traitsIcESaIcEEEMN3zmq14session_base_tEFPNS8_5own_tEPNS8_11io_thread_tEbEEEneERKSH_
          38 .eh_frame$_ZNKSt23_Rb_tree_const_iteratorISt4pairIKNSt7__cxx1112basic_stringIcSt11char_traitsIcESaIcEEEMN3zmq14session_base_tEFPNS8_5own_tEPNS8_11io_thread_tEbEEEptEv
          38 .eh_frame$_ZNKSt23_Rb_tree_const_iteratorISt4pairIKNSt7__cxx1112basic_stringIcSt11char_traitsIcESaIcEEEMN3zmq14session_base_tEFvPNS8_11io_thread_tEEEE13_M_const_castEv
          38 .eh_frame$_ZNKSt23_Rb_tree_const_iteratorISt4pairIKNSt7__cxx1112basic_stringIcSt11char_traitsIcESaIcEEEMN3zmq14session_base_tEFvPNS8_11io_thread_tEEEEneERKSF_
          38 .eh_frame$_ZNKSt23_Rb_tree_const_iteratorISt4pairIKNSt7__cxx1112basic_stringIcSt11char_traitsIcESaIcEEEMN3zmq14session_base_tEFvPNS8_11io_thread_tEEEEptEv
          38 .eh_frame$_ZNKSt23_Rb_tree_const_iteratorISt4pairIKNSt7__cxx1112basic_stringIcSt11char_traitsIcESaIcEEEN3zmq10endpoint_tEEE13_M_const_castEv
          38 .eh_frame$_ZNKSt23_Rb_tree_const_iteratorISt4pairIKNSt7__cxx1112basic_stringIcSt11char_traitsIcESaIcEEEN3zmq5ctx_t20pending_connection_tEEE13_M_const_castEv
          38 .eh_frame$_ZNKSt23_Rb_tree_const_iteratorISt4pairIKNSt7__cxx1112basic_stringIcSt11char_traitsIcESaIcEEEN3zmq5ctx_t20pending_connection_tEEEeqERKSC_
          38 .eh_frame$_ZNKSt23_Rb_tree_const_iteratorISt4pairIKNSt7__cxx1112basic_stringIcSt11char_traitsIcESaIcEEEN3zmq5ctx_t20pending_connection_tEEEneERKSC_
          38 .eh_frame$_ZNKSt23_Rb_tree_const_iteratorISt4pairIKNSt7__cxx1112basic_stringIcSt11char_traitsIcESaIcEEEPN3zmq6pipe_tEEE13_M_const_castEv
          38 .eh_frame$_ZNKSt23_Rb_tree_const_iteratorISt4pairIKNSt7__cxx1112basic_stringIcSt11char_traitsIcESaIcEEEPN3zmq6pipe_tEEEeqERKSC_
          38 .eh_frame$_ZNKSt23_Rb_tree_const_iteratorISt4pairIKNSt7__cxx1112basic_stringIcSt11char_traitsIcESaIcEEEPN3zmq6pipe_tEEEneERKSC_
          38 .eh_frame$_ZNKSt23_Rb_tree_const_iteratorISt4pairIKNSt7__cxx1112basic_stringIcSt11char_traitsIcESaIcEEES0_IPN3zmq5own_tEPNS8_6pipe_tEEEE13_M_const_castEv
          38 .eh_frame$_ZNKSt23_Rb_tree_const_iteratorISt4pairIKNSt7__cxx1112basic_stringIcSt11char_traitsIcESaIcEEES0_IPN3zmq5own_tEPNS8_6pipe_tEEEEeqERKSF_
          38 .eh_frame$_ZNKSt23_Rb_tree_const_iteratorISt4pairIKNSt7__cxx1112basic_stringIcSt11char_traitsIcESaIcEEES0_IPN3zmq5own_tEPNS8_6pipe_tEEEEneERKSF_
          38 .eh_frame$_ZNKSt23_Rb_tree_const_iteratorISt4pairIKNSt7__cxx1112basic_stringIcSt11char_traitsIcESaIcEEES6_EE13_M_const_castEv
          38 .eh_frame$_ZNKSt23_Rb_tree_const_iteratorISt4pairIKNSt7__cxx1112basic_stringIcSt11char_traitsIcESaIcEEES6_EEdeEv
          38 .eh_frame$_ZNKSt23_Rb_tree_const_iteratorISt4pairIKNSt7__cxx1112basic_stringIcSt11char_traitsIcESaIcEEES6_EEeqERKS9_
          70 .eh_frame$_ZNKSt23_Rb_tree_const_iteratorISt4pairIKNSt7__cxx1112basic_stringIcSt11char_traitsIcESaIcEEES6_EEneERKS9_
          70 .eh_frame$_ZNKSt23_Rb_tree_const_iteratorISt4pairIKNSt7__cxx1112basic_stringIcSt11char_traitsIcESaIcEEES6_EEptEv
          38 .eh_frame$_ZNKSt23_Rb_tree_const_iteratorISt4pairIKtN3zmq8select_t14family_entry_tEEE13_M_const_castEv
          38 .eh_frame$_ZNKSt23_Rb_tree_const_iteratorISt4pairIKyN3zmq13poller_base_t12timer_info_tEEE13_M_const_castEv
          38 .eh_frame$_ZNKSt23_Rb_tree_const_iteratorISt4pairIKyN3zmq13poller_base_t12timer_info_tEEEeqERKS6_
          38 .eh_frame$_ZNKSt23_Rb_tree_const_iteratorISt4pairIKyN3zmq13poller_base_t12timer_info_tEEEneERKS6_
          38 .eh_frame$_ZNKSt23_Rb_tree_const_iteratorISt4pairIKyN3zmq8timers_t7timer_tEEE13_M_const_castEv
          38 .eh_frame$_ZNKSt23_Rb_tree_const_iteratorISt4pairIKyN3zmq8timers_t7timer_tEEEeqERKS6_
          38 .eh_frame$_ZNKSt23_Rb_tree_const_iteratorISt4pairIKyN3zmq8timers_t7timer_tEEEneERKS6_
          70 .eh_frame$_ZNKSt23_Rb_tree_const_iteratorIiE13_M_const_castEv
          70 .eh_frame$_ZNKSt23_Rb_tree_const_iteratorIiEeqERKS0_
          70 .eh_frame$_ZNKSt23_Rb_tree_const_iteratorIiEneERKS0_
          38 .eh_frame$_ZNKSt3mapIN3zmq6blob_tENS0_21routing_socket_base_t10out_pipe_tESt4lessIS1_ESaISt4pairIKS1_S3_EEE3endEv
          38 .eh_frame$_ZNKSt3mapIN3zmq6blob_tENS0_21routing_socket_base_t10out_pipe_tESt4lessIS1_ESaISt4pairIKS1_S3_EEE4findERS7_
          38 .eh_frame$_ZNKSt3mapIN3zmq6blob_tENS0_21routing_socket_base_t10out_pipe_tESt4lessIS1_ESaISt4pairIKS1_S3_EEE5countERS7_
          38 .eh_frame$_ZNKSt3mapIN3zmq6blob_tENS0_21routing_socket_base_t10out_pipe_tESt4lessIS1_ESaISt4pairIKS1_S3_EEE5emptyEv
          3C .eh_frame$_ZNKSt3mapINSt7__cxx1112basic_stringIcSt11char_traitsIcESaIcEEEN3zmq10endpoint_tESt4lessIS5_ESaISt4pairIKS5_S7_EEE8key_compEv
          A8 .eh_frame$_ZNKSt3mapINSt7__cxx1112basic_stringIcSt11char_traitsIcESaIcEEES5_St4lessIS5_ESaISt4pairIKS5_S5_EEE3endEv
          38 .eh_frame$_ZNKSt3mapINSt7__cxx1112basic_stringIcSt11char_traitsIcESaIcEEES5_St4lessIS5_ESaISt4pairIKS5_S5_EEE4findERS9_
          70 .eh_frame$_ZNKSt3mapINSt7__cxx1112basic_stringIcSt11char_traitsIcESaIcEEES5_St4lessIS5_ESaISt4pairIKS5_S5_EEE5beginEv
          38 .eh_frame$_ZNKSt3mapINSt7__cxx1112basic_stringIcSt11char_traitsIcESaIcEEES5_St4lessIS5_ESaISt4pairIKS5_S5_EEE5emptyEv
          38 .eh_frame$_ZNKSt3mapIjN3zmq8server_t9outpipe_tESt4lessIjESaISt4pairIKjS2_EEE5emptyEv
          38 .eh_frame$_ZNKSt3mapItN3zmq8select_t14family_entry_tESt4lessItESaISt4pairIKtS2_EEE4sizeEv
          38 .eh_frame$_ZNKSt3mapItN3zmq8select_t14family_entry_tESt4lessItESaISt4pairIKtS2_EEE5emptyEv
          3C .eh_frame$_ZNKSt3mapItN3zmq8select_t14family_entry_tESt4lessItESaISt4pairIKtS2_EEE8key_compEv
          38 .eh_frame$_ZNKSt3setINSt7__cxx1112basic_stringIcSt11char_traitsIcESaIcEEESt4lessIS5_ESaIS5_EE3endEv
          38 .eh_frame$_ZNKSt3setINSt7__cxx1112basic_stringIcSt11char_traitsIcESaIcEEESt4lessIS5_ESaIS5_EE5beginEv
          38 .eh_frame$_ZNKSt3setINSt7__cxx1112basic_stringIcSt11char_traitsIcESaIcEEESt4lessIS5_ESaIS5_EE5countERKS5_
          38 .eh_frame$_ZNKSt3setIPN3zmq5own_tESt4lessIS2_ESaIS2_EE3endEv
          38 .eh_frame$_ZNKSt3setIPN3zmq5own_tESt4lessIS2_ESaIS2_EE4sizeEv
          38 .eh_frame$_ZNKSt3setIPN3zmq5own_tESt4lessIS2_ESaIS2_EE5beginEv
          38 .eh_frame$_ZNKSt3setIPN3zmq5own_tESt4lessIS2_ESaIS2_EE5emptyEv
          70 .eh_frame$_ZNKSt3setIPN3zmq6pipe_tESt4lessIS2_ESaIS2_EE3endEv
          38 .eh_frame$_ZNKSt3setIPN3zmq6pipe_tESt4lessIS2_ESaIS2_EE5beginEv
          38 .eh_frame$_ZNKSt3setIPN3zmq6pipe_tESt4lessIS2_ESaIS2_EE5countERKS2_
          E0 .eh_frame$_ZNKSt3setIPN3zmq6pipe_tESt4lessIS2_ESaIS2_EE5emptyEv
          38 .eh_frame$_ZNKSt3setIiSt4lessIiESaIiEE5countERKi
          38 .eh_frame$_ZNKSt4lessIN3zmq6blob_tEEclERKS1_S4_
         1F8 .eh_frame$_ZNKSt4lessINSt7__cxx1112basic_stringIcSt11char_traitsIcESaIcEEEEclERKS5_S8_
          38 .eh_frame$_ZNKSt4lessIPN3zmq5own_tEEclERKS2_S5_
          E0 .eh_frame$_ZNKSt4lessIPN3zmq6pipe_tEEclERKS2_S5_
          70 .eh_frame$_ZNKSt4lessIiEclERKiS2_
          38 .eh_frame$_ZNKSt4lessIjEclERKjS2_
          38 .eh_frame$_ZNKSt4lessItEclERKtS2_
          80 .eh_frame$_ZNKSt4lessIyEclERKyS2_
          38 .eh_frame$_ZNKSt5dequeIN3zmq6blob_tESaIS1_EE5emptyEv
          38 .eh_frame$_ZNKSt5dequeIPN3zmq6pipe_tESaIS2_EE5emptyEv
          38 .eh_frame$_ZNKSt6chrono10time_pointINS_3_V212system_clockENS_8durationIxSt5ratioILx1ELx1000000000EEEEE16time_since_epochEv
          38 .eh_frame$_ZNKSt6chrono10time_pointINS_3_V212system_clockENS_8durationIxSt5ratioILx1ELx1EEEEE16time_since_epochEv
          38 .eh_frame$_ZNKSt6chrono8durationIxSt5ratioILx1ELx1000000000EEE5countEv
          38 .eh_frame$_ZNKSt6chrono8durationIxSt5ratioILx1ELx1000EEE5countEv
          38 .eh_frame$_ZNKSt6chrono8durationIxSt5ratioILx1ELx1EEE5countEv
          3C .eh_frame$_ZNKSt6vectorIN3zmq15socket_poller_t6item_tESaIS2_EE12_M_check_lenEjPKc
          38 .eh_frame$_ZNKSt6vectorIN3zmq15socket_poller_t6item_tESaIS2_EE3endEv
          38 .eh_frame$_ZNKSt6vectorIN3zmq15socket_poller_t6item_tESaIS2_EE4sizeEv
          38 .eh_frame$_ZNKSt6vectorIN3zmq15socket_poller_t6item_tESaIS2_EE5beginEv
          38 .eh_frame$_ZNKSt6vectorIN3zmq15socket_poller_t6item_tESaIS2_EE5emptyEv
          38 .eh_frame$_ZNKSt6vectorIN3zmq15socket_poller_t6item_tESaIS2_EE6cbeginEv
          38 .eh_frame$_ZNKSt6vectorIN3zmq15socket_poller_t6item_tESaIS2_EE8max_sizeEv
          3C .eh_frame$_ZNKSt6vectorIN3zmq18tcp_address_mask_tESaIS1_EE12_M_check_lenEjPKc
         188 .eh_frame$_ZNKSt6vectorIN3zmq18tcp_address_mask_tESaIS1_EE3endEv
         1C0 .eh_frame$_ZNKSt6vectorIN3zmq18tcp_address_mask_tESaIS1_EE4sizeEv
         188 .eh_frame$_ZNKSt6vectorIN3zmq18tcp_address_mask_tESaIS1_EE5beginEv
          38 .eh_frame$_ZNKSt6vectorIN3zmq18tcp_address_mask_tESaIS1_EE5emptyEv
          38 .eh_frame$_ZNKSt6vectorIN3zmq18tcp_address_mask_tESaIS1_EE8max_sizeEv
          3C .eh_frame$_ZNKSt6vectorIN3zmq8select_t10fd_entry_tESaIS2_EE12_M_check_lenEjPKc
          38 .eh_frame$_ZNKSt6vectorIN3zmq8select_t10fd_entry_tESaIS2_EE3endEv
          38 .eh_frame$_ZNKSt6vectorIN3zmq8select_t10fd_entry_tESaIS2_EE4sizeEv
          38 .eh_frame$_ZNKSt6vectorIN3zmq8select_t10fd_entry_tESaIS2_EE5beginEv
          38 .eh_frame$_ZNKSt6vectorIN3zmq8select_t10fd_entry_tESaIS2_EE5emptyEv
          38 .eh_frame$_ZNKSt6vectorIN3zmq8select_t10fd_entry_tESaIS2_EE6cbeginEv
          38 .eh_frame$_ZNKSt6vectorIN3zmq8select_t10fd_entry_tESaIS2_EE8max_sizeEv
          38 .eh_frame$_ZNKSt6vectorIN3zmq8select_t10fd_entry_tESaIS2_EEixEj
          3C .eh_frame$_ZNKSt6vectorIPN3zmq10signaler_tESaIS2_EE12_M_check_lenEjPKc
          38 .eh_frame$_ZNKSt6vectorIPN3zmq10signaler_tESaIS2_EE4sizeEv
          38 .eh_frame$_ZNKSt6vectorIPN3zmq10signaler_tESaIS2_EE6cbeginEv
          38 .eh_frame$_ZNKSt6vectorIPN3zmq10signaler_tESaIS2_EE8max_sizeEv
          3C .eh_frame$_ZNKSt6vectorIPN3zmq11io_thread_tESaIS2_EE12_M_check_lenEjPKc
          38 .eh_frame$_ZNKSt6vectorIPN3zmq11io_thread_tESaIS2_EE3endEv
          38 .eh_frame$_ZNKSt6vectorIPN3zmq11io_thread_tESaIS2_EE4sizeEv
          38 .eh_frame$_ZNKSt6vectorIPN3zmq11io_thread_tESaIS2_EE5beginEv
          38 .eh_frame$_ZNKSt6vectorIPN3zmq11io_thread_tESaIS2_EE5emptyEv
          38 .eh_frame$_ZNKSt6vectorIPN3zmq11io_thread_tESaIS2_EE8max_sizeEv
          3C .eh_frame$_ZNKSt6vectorIPN3zmq13socket_base_tESaIS2_EE12_M_check_lenEjPKc
          38 .eh_frame$_ZNKSt6vectorIPN3zmq13socket_base_tESaIS2_EE3endEv
          38 .eh_frame$_ZNKSt6vectorIPN3zmq13socket_base_tESaIS2_EE4sizeEv
          38 .eh_frame$_ZNKSt6vectorIPN3zmq13socket_base_tESaIS2_EE5beginEv
          38 .eh_frame$_ZNKSt6vectorIPN3zmq13socket_base_tESaIS2_EE5emptyEv
          38 .eh_frame$_ZNKSt6vectorIPN3zmq13socket_base_tESaIS2_EE8max_sizeEv
         12C .eh_frame$_ZNKSt6vectorIPN3zmq6pipe_tESaIS2_EE12_M_check_lenEjPKc
          A8 .eh_frame$_ZNKSt6vectorIPN3zmq6pipe_tESaIS2_EE3endEv
         118 .eh_frame$_ZNKSt6vectorIPN3zmq6pipe_tESaIS2_EE4sizeEv
          A8 .eh_frame$_ZNKSt6vectorIPN3zmq6pipe_tESaIS2_EE5beginEv
          A8 .eh_frame$_ZNKSt6vectorIPN3zmq6pipe_tESaIS2_EE5emptyEv
          38 .eh_frame$_ZNKSt6vectorIPN3zmq6pipe_tESaIS2_EE6cbeginEv
         118 .eh_frame$_ZNKSt6vectorIPN3zmq6pipe_tESaIS2_EE8max_sizeEv
          3C .eh_frame$_ZNKSt6vectorIPN3zmq9i_mailboxESaIS2_EE12_M_check_lenEjPKc
          38 .eh_frame$_ZNKSt6vectorIPN3zmq9i_mailboxESaIS2_EE4sizeEv
          38 .eh_frame$_ZNKSt6vectorIPN3zmq9i_mailboxESaIS2_EE6cbeginEv
          38 .eh_frame$_ZNKSt6vectorIPN3zmq9i_mailboxESaIS2_EE8capacityEv
          38 .eh_frame$_ZNKSt6vectorIPN3zmq9i_mailboxESaIS2_EE8max_sizeEv
          70 .eh_frame$_ZNKSt6vectorIhN3zmq18secure_allocator_tIhEEE4sizeEv
          3C .eh_frame$_ZNKSt6vectorIhSaIhEE12_M_check_lenEjPKc
          38 .eh_frame$_ZNKSt6vectorIhSaIhEE3endEv
          38 .eh_frame$_ZNKSt6vectorIhSaIhEE4sizeEv
          38 .eh_frame$_ZNKSt6vectorIhSaIhEE5beginEv
          38 .eh_frame$_ZNKSt6vectorIhSaIhEE5emptyEv
          38 .eh_frame$_ZNKSt6vectorIhSaIhEE8max_sizeEv
          78 .eh_frame$_ZNKSt6vectorIjSaIjEE12_M_check_lenEjPKc
          38 .eh_frame$_ZNKSt6vectorIjSaIjEE3endEv
          70 .eh_frame$_ZNKSt6vectorIjSaIjEE4sizeEv
          38 .eh_frame$_ZNKSt6vectorIjSaIjEE5beginEv
          38 .eh_frame$_ZNKSt6vectorIjSaIjEE5emptyEv
          38 .eh_frame$_ZNKSt6vectorIjSaIjEE8capacityEv
          70 .eh_frame$_ZNKSt6vectorIjSaIjEE8max_sizeEv
          38 .eh_frame$_ZNKSt8_Rb_treeIN3zmq6blob_tESt4pairIKS1_NS0_21routing_socket_base_t10out_pipe_tEESt10_Select1stIS6_ESt4lessIS1_ESaIS6_EE14_M_lower_boundEPKSt13_Rb_tree_nodeIS6_ESG_RS3_
          38 .eh_frame$_ZNKSt8_Rb_treeIN3zmq6blob_tESt4pairIKS1_NS0_21routing_socket_base_t10out_pipe_tEESt10_Select1stIS6_ESt4lessIS1_ESaIS6_EE3endEv
          48 .eh_frame$_ZNKSt8_Rb_treeIN3zmq6blob_tESt4pairIKS1_NS0_21routing_socket_base_t10out_pipe_tEESt10_Select1stIS6_ESt4lessIS1_ESaIS6_EE4findERS3_
          38 .eh_frame$_ZNKSt8_Rb_treeIN3zmq6blob_tESt4pairIKS1_NS0_21routing_socket_base_t10out_pipe_tEESt10_Select1stIS6_ESt4lessIS1_ESaIS6_EE4sizeEv
          38 .eh_frame$_ZNKSt8_Rb_treeIN3zmq6blob_tESt4pairIKS1_NS0_21routing_socket_base_t10out_pipe_tEESt10_Select1stIS6_ESt4lessIS1_ESaIS6_EE5emptyEv
          38 .eh_frame$_ZNKSt8_Rb_treeIN3zmq6blob_tESt4pairIKS1_NS0_21routing_socket_base_t10out_pipe_tEESt10_Select1stIS6_ESt4lessIS1_ESaIS6_EE6_M_endEv
          38 .eh_frame$_ZNKSt8_Rb_treeIN3zmq6blob_tESt4pairIKS1_NS0_21routing_socket_base_t10out_pipe_tEESt10_Select1stIS6_ESt4lessIS1_ESaIS6_EE8_M_beginEv
          38 .eh_frame$_ZNKSt8_Rb_treeINSt7__cxx1112basic_stringIcSt11char_traitsIcESaIcEEES5_St9_IdentityIS5_ESt4lessIS5_ESaIS5_EE11_Alloc_nodeclIRKS5_EEPSt13_Rb_tree_nodeIS5_EOT_
          38 .eh_frame$_ZNKSt8_Rb_treeINSt7__cxx1112basic_stringIcSt11char_traitsIcESaIcEEES5_St9_IdentityIS5_ESt4lessIS5_ESaIS5_EE14_M_lower_boundEPKSt13_Rb_tree_nodeIS5_ESF_RKS5_
          38 .eh_frame$_ZNKSt8_Rb_treeINSt7__cxx1112basic_stringIcSt11char_traitsIcESaIcEEES5_St9_IdentityIS5_ESt4lessIS5_ESaIS5_EE3endEv
          48 .eh_frame$_ZNKSt8_Rb_treeINSt7__cxx1112basic_stringIcSt11char_traitsIcESaIcEEES5_St9_IdentityIS5_ESt4lessIS5_ESaIS5_EE4findERKS5_
          38 .eh_frame$_ZNKSt8_Rb_treeINSt7__cxx1112basic_stringIcSt11char_traitsIcESaIcEEES5_St9_IdentityIS5_ESt4lessIS5_ESaIS5_EE4sizeEv
          38 .eh_frame$_ZNKSt8_Rb_treeINSt7__cxx1112basic_stringIcSt11char_traitsIcESaIcEEES5_St9_IdentityIS5_ESt4lessIS5_ESaIS5_EE5beginEv
          38 .eh_frame$_ZNKSt8_Rb_treeINSt7__cxx1112basic_stringIcSt11char_traitsIcESaIcEEES5_St9_IdentityIS5_ESt4lessIS5_ESaIS5_EE6_M_endEv
          38 .eh_frame$_ZNKSt8_Rb_treeINSt7__cxx1112basic_stringIcSt11char_traitsIcESaIcEEES5_St9_IdentityIS5_ESt4lessIS5_ESaIS5_EE8_M_beginEv
          38 .eh_frame$_ZNKSt8_Rb_treeINSt7__cxx1112basic_stringIcSt11char_traitsIcESaIcEEESt4pairIKS5_MN3zmq14session_base_tEFPNS8_5own_tEPNS8_11io_thread_tEbEESt10_Select1stISG_ESt4lessIS5_ESaISG_EE11_Alloc_nodeclIRSG_EEPSt13_Rb_tree_nodeISG_EOT_
          38 .eh_frame$_ZNKSt8_Rb_treeINSt7__cxx1112basic_stringIcSt11char_traitsIcESaIcEEESt4pairIKS5_MN3zmq14session_base_tEFPNS8_5own_tEPNS8_11io_thread_tEbEESt10_Select1stISG_ESt4lessIS5_ESaISG_EE4sizeEv
          38 .eh_frame$_ZNKSt8_Rb_treeINSt7__cxx1112basic_stringIcSt11char_traitsIcESaIcEEESt4pairIKS5_MN3zmq14session_base_tEFvPNS8_11io_thread_tEEESt10_Select1stISE_ESt4lessIS5_ESaISE_EE11_Alloc_nodeclIRSE_EEPSt13_Rb_tree_nodeISE_EOT_
          38 .eh_frame$_ZNKSt8_Rb_treeINSt7__cxx1112basic_stringIcSt11char_traitsIcESaIcEEESt4pairIKS5_MN3zmq14session_base_tEFvPNS8_11io_thread_tEEESt10_Select1stISE_ESt4lessIS5_ESaISE_EE4sizeEv
          38 .eh_frame$_ZNKSt8_Rb_treeINSt7__cxx1112basic_stringIcSt11char_traitsIcESaIcEEESt4pairIKS5_N3zmq10endpoint_tEESt10_Select1stISA_ESt4lessIS5_ESaISA_EE4sizeEv
          38 .eh_frame$_ZNKSt8_Rb_treeINSt7__cxx1112basic_stringIcSt11char_traitsIcESaIcEEESt4pairIKS5_N3zmq10endpoint_tEESt10_Select1stISA_ESt4lessIS5_ESaISA_EE8key_compEv
          38 .eh_frame$_ZNKSt8_Rb_treeINSt7__cxx1112basic_stringIcSt11char_traitsIcESaIcEEESt4pairIKS5_N3zmq5ctx_t20pending_connection_tEESt10_Select1stISB_ESt4lessIS5_ESaISB_EE11_Alloc_nodeclIRKSB_EEPSt13_Rb_tree_nodeISB_EOT_
          38 .eh_frame$_ZNKSt8_Rb_treeINSt7__cxx1112basic_stringIcSt11char_traitsIcESaIcEEESt4pairIKS5_N3zmq5ctx_t20pending_connection_tEESt10_Select1stISB_ESt4lessIS5_ESaISB_EE21_M_get_Node_allocatorEv
          38 .eh_frame$_ZNKSt8_Rb_treeINSt7__cxx1112basic_stringIcSt11char_traitsIcESaIcEEESt4pairIKS5_N3zmq5ctx_t20pending_connection_tEESt10_Select1stISB_ESt4lessIS5_ESaISB_EE7_M_rootEv
          38 .eh_frame$_ZNKSt8_Rb_treeINSt7__cxx1112basic_stringIcSt11char_traitsIcESaIcEEESt4pairIKS5_N3zmq5ctx_t20pending_connection_tEESt10_Select1stISB_ESt4lessIS5_ESaISB_EE8_M_beginEv
         188 .eh_frame$_ZNKSt8_Rb_treeINSt7__cxx1112basic_stringIcSt11char_traitsIcESaIcEEESt4pairIKS5_S5_ESt10_Select1stIS8_ESt4lessIS5_ESaIS8_EE11_Alloc_nodeclIRKS8_EEPSt13_Rb_tree_nodeIS8_EOT_
          38 .eh_frame$_ZNKSt8_Rb_treeINSt7__cxx1112basic_stringIcSt11char_traitsIcESaIcEEESt4pairIKS5_S5_ESt10_Select1stIS8_ESt4lessIS5_ESaIS8_EE11_Alloc_nodeclIS6_IS5_S5_EEEPSt13_Rb_tree_nodeIS8_EOT_
          38 .eh_frame$_ZNKSt8_Rb_treeINSt7__cxx1112basic_stringIcSt11char_traitsIcESaIcEEESt4pairIKS5_S5_ESt10_Select1stIS8_ESt4lessIS5_ESaIS8_EE14_M_lower_boundEPKSt13_Rb_tree_nodeIS8_ESI_RS7_
         188 .eh_frame$_ZNKSt8_Rb_treeINSt7__cxx1112basic_stringIcSt11char_traitsIcESaIcEEESt4pairIKS5_S5_ESt10_Select1stIS8_ESt4lessIS5_ESaIS8_EE21_M_get_Node_allocatorEv
          A8 .eh_frame$_ZNKSt8_Rb_treeINSt7__cxx1112basic_stringIcSt11char_traitsIcESaIcEEESt4pairIKS5_S5_ESt10_Select1stIS8_ESt4lessIS5_ESaIS8_EE3endEv
          48 .eh_frame$_ZNKSt8_Rb_treeINSt7__cxx1112basic_stringIcSt11char_traitsIcESaIcEEESt4pairIKS5_S5_ESt10_Select1stIS8_ESt4lessIS5_ESaIS8_EE4findERS7_
          38 .eh_frame$_ZNKSt8_Rb_treeINSt7__cxx1112basic_stringIcSt11char_traitsIcESaIcEEESt4pairIKS5_S5_ESt10_Select1stIS8_ESt4lessIS5_ESaIS8_EE4sizeEv
          70 .eh_frame$_ZNKSt8_Rb_treeINSt7__cxx1112basic_stringIcSt11char_traitsIcESaIcEEESt4pairIKS5_S5_ESt10_Select1stIS8_ESt4lessIS5_ESaIS8_EE5beginEv
          38 .eh_frame$_ZNKSt8_Rb_treeINSt7__cxx1112basic_stringIcSt11char_traitsIcESaIcEEESt4pairIKS5_S5_ESt10_Select1stIS8_ESt4lessIS5_ESaIS8_EE5emptyEv
          38 .eh_frame$_ZNKSt8_Rb_treeINSt7__cxx1112basic_stringIcSt11char_traitsIcESaIcEEESt4pairIKS5_S5_ESt10_Select1stIS8_ESt4lessIS5_ESaIS8_EE6_M_endEv
         188 .eh_frame$_ZNKSt8_Rb_treeINSt7__cxx1112basic_stringIcSt11char_traitsIcESaIcEEESt4pairIKS5_S5_ESt10_Select1stIS8_ESt4lessIS5_ESaIS8_EE7_M_rootEv
         188 .eh_frame$_ZNKSt8_Rb_treeINSt7__cxx1112basic_stringIcSt11char_traitsIcESaIcEEESt4pairIKS5_S5_ESt10_Select1stIS8_ESt4lessIS5_ESaIS8_EE8_M_beginEv
          38 .eh_frame$_ZNKSt8_Rb_treeINSt7__cxx1112basic_stringIcSt11char_traitsIcESaIcEEESt4pairIKS5_S6_IPN3zmq5own_tEPNS8_6pipe_tEEESt10_Select1stISE_ESt4lessIS5_ESaISE_EE11equal_rangeERS7_
          38 .eh_frame$_ZNKSt8_Rb_treeINSt7__cxx1112basic_stringIcSt11char_traitsIcESaIcEEESt4pairIKS5_S6_IPN3zmq5own_tEPNS8_6pipe_tEEESt10_Select1stISE_ESt4lessIS5_ESaISE_EE14_M_lower_boundEPKSt13_Rb_tree_nodeISE_ESO_RS7_
          38 .eh_frame$_ZNKSt8_Rb_treeINSt7__cxx1112basic_stringIcSt11char_traitsIcESaIcEEESt4pairIKS5_S6_IPN3zmq5own_tEPNS8_6pipe_tEEESt10_Select1stISE_ESt4lessIS5_ESaISE_EE14_M_upper_boundEPKSt13_Rb_tree_nodeISE_ESO_RS7_
          38 .eh_frame$_ZNKSt8_Rb_treeINSt7__cxx1112basic_stringIcSt11char_traitsIcESaIcEEESt4pairIKS5_S6_IPN3zmq5own_tEPNS8_6pipe_tEEESt10_Select1stISE_ESt4lessIS5_ESaISE_EE5countERS7_
          38 .eh_frame$_ZNKSt8_Rb_treeINSt7__cxx1112basic_stringIcSt11char_traitsIcESaIcEEESt4pairIKS5_S6_IPN3zmq5own_tEPNS8_6pipe_tEEESt10_Select1stISE_ESt4lessIS5_ESaISE_EE6_M_endEv
          38 .eh_frame$_ZNKSt8_Rb_treeINSt7__cxx1112basic_stringIcSt11char_traitsIcESaIcEEESt4pairIKS5_S6_IPN3zmq5own_tEPNS8_6pipe_tEEESt10_Select1stISE_ESt4lessIS5_ESaISE_EE8_M_beginEv
          38 .eh_frame$_ZNKSt8_Rb_treeIPN3zmq5own_tES2_St9_IdentityIS2_ESt4lessIS2_ESaIS2_EE11_Alloc_nodeclIRKS2_EEPSt13_Rb_tree_nodeIS2_EOT_
          38 .eh_frame$_ZNKSt8_Rb_treeIPN3zmq5own_tES2_St9_IdentityIS2_ESt4lessIS2_ESaIS2_EE3endEv
          38 .eh_frame$_ZNKSt8_Rb_treeIPN3zmq5own_tES2_St9_IdentityIS2_ESt4lessIS2_ESaIS2_EE4sizeEv
          38 .eh_frame$_ZNKSt8_Rb_treeIPN3zmq5own_tES2_St9_IdentityIS2_ESt4lessIS2_ESaIS2_EE5beginEv
          38 .eh_frame$_ZNKSt8_Rb_treeIPN3zmq5own_tES2_St9_IdentityIS2_ESt4lessIS2_ESaIS2_EE5emptyEv
          A8 .eh_frame$_ZNKSt8_Rb_treeIPN3zmq6pipe_tES2_St9_IdentityIS2_ESt4lessIS2_ESaIS2_EE11_Alloc_nodeclIRKS2_EEPSt13_Rb_tree_nodeIS2_EOT_
          38 .eh_frame$_ZNKSt8_Rb_treeIPN3zmq6pipe_tES2_St9_IdentityIS2_ESt4lessIS2_ESaIS2_EE14_M_lower_boundEPKSt13_Rb_tree_nodeIS2_ESC_RKS2_
          A8 .eh_frame$_ZNKSt8_Rb_treeIPN3zmq6pipe_tES2_St9_IdentityIS2_ESt4lessIS2_ESaIS2_EE3endEv
          48 .eh_frame$_ZNKSt8_Rb_treeIPN3zmq6pipe_tES2_St9_IdentityIS2_ESt4lessIS2_ESaIS2_EE4findERKS2_
          E0 .eh_frame$_ZNKSt8_Rb_treeIPN3zmq6pipe_tES2_St9_IdentityIS2_ESt4lessIS2_ESaIS2_EE4sizeEv
          38 .eh_frame$_ZNKSt8_Rb_treeIPN3zmq6pipe_tES2_St9_IdentityIS2_ESt4lessIS2_ESaIS2_EE5beginEv
          E0 .eh_frame$_ZNKSt8_Rb_treeIPN3zmq6pipe_tES2_St9_IdentityIS2_ESt4lessIS2_ESaIS2_EE5emptyEv
          38 .eh_frame$_ZNKSt8_Rb_treeIPN3zmq6pipe_tES2_St9_IdentityIS2_ESt4lessIS2_ESaIS2_EE6_M_endEv
          38 .eh_frame$_ZNKSt8_Rb_treeIPN3zmq6pipe_tES2_St9_IdentityIS2_ESt4lessIS2_ESaIS2_EE8_M_beginEv
          70 .eh_frame$_ZNKSt8_Rb_treeIiiSt9_IdentityIiESt4lessIiESaIiEE11_Alloc_nodeclIRKiEEPSt13_Rb_tree_nodeIiEOT_
          38 .eh_frame$_ZNKSt8_Rb_treeIiiSt9_IdentityIiESt4lessIiESaIiEE14_M_lower_boundEPKSt13_Rb_tree_nodeIiES9_RKi
          38 .eh_frame$_ZNKSt8_Rb_treeIiiSt9_IdentityIiESt4lessIiESaIiEE3endEv
          48 .eh_frame$_ZNKSt8_Rb_treeIiiSt9_IdentityIiESt4lessIiESaIiEE4findERKi
          70 .eh_frame$_ZNKSt8_Rb_treeIiiSt9_IdentityIiESt4lessIiESaIiEE4sizeEv
          38 .eh_frame$_ZNKSt8_Rb_treeIiiSt9_IdentityIiESt4lessIiESaIiEE6_M_endEv
          38 .eh_frame$_ZNKSt8_Rb_treeIiiSt9_IdentityIiESt4lessIiESaIiEE8_M_beginEv
          38 .eh_frame$_ZNKSt8_Rb_treeIjSt4pairIKjN3zmq8server_t9outpipe_tEESt10_Select1stIS5_ESt4lessIjESaIS5_EE5emptyEv
          38 .eh_frame$_ZNKSt8_Rb_treeItSt4pairIKtN3zmq8select_t14family_entry_tEESt10_Select1stIS5_ESt4lessItESaIS5_EE4sizeEv
          38 .eh_frame$_ZNKSt8_Rb_treeItSt4pairIKtN3zmq8select_t14family_entry_tEESt10_Select1stIS5_ESt4lessItESaIS5_EE5emptyEv
          38 .eh_frame$_ZNKSt8_Rb_treeItSt4pairIKtN3zmq8select_t14family_entry_tEESt10_Select1stIS5_ESt4lessItESaIS5_EE8key_compEv
          38 .eh_frame$_ZNKSt8_Rb_treeIySt4pairIKyN3zmq13poller_base_t12timer_info_tEESt10_Select1stIS5_ESt4lessIyESaIS5_EE11_Alloc_nodeclIS5_EEPSt13_Rb_tree_nodeIS5_EOT_
          38 .eh_frame$_ZNKSt8_Rb_treeIySt4pairIKyN3zmq13poller_base_t12timer_info_tEESt10_Select1stIS5_ESt4lessIyESaIS5_EE5emptyEv
          38 .eh_frame$_ZNKSt8_Rb_treeIySt4pairIKyN3zmq8timers_t7timer_tEESt10_Select1stIS5_ESt4lessIyESaIS5_EE11_Alloc_nodeclIS5_EEPSt13_Rb_tree_nodeIS5_EOT_
          38 .eh_frame$_ZNKSt8multimapINSt7__cxx1112basic_stringIcSt11char_traitsIcESaIcEEESt4pairIPN3zmq5own_tEPNS7_6pipe_tEESt4lessIS5_ESaIS6_IKS5_SC_EEE5countERSF_
          38 .eh_frame$_ZNKSt8multimapIyN3zmq13poller_base_t12timer_info_tESt4lessIyESaISt4pairIKyS2_EEE5emptyEv
          38 .eh_frame$_ZNKSt9_IdentityINSt7__cxx1112basic_stringIcSt11char_traitsIcESaIcEEEEclERKS5_
          38 .eh_frame$_ZNKSt9_IdentityIPN3zmq5own_tEEclERKS2_
          E0 .eh_frame$_ZNKSt9_IdentityIPN3zmq6pipe_tEEclERKS2_
          70 .eh_frame$_ZNKSt9_IdentityIiEclERKi
          38 .eh_frame$_ZNSaIN3zmq15socket_poller_t6item_tEEC2Ev
          38 .eh_frame$_ZNSaIN3zmq15socket_poller_t6item_tEED2Ev
         150 .eh_frame$_ZNSaIN3zmq18tcp_address_mask_tEEC1ERKS1_
         150 .eh_frame$_ZNSaIN3zmq18tcp_address_mask_tEEC2ERKS1_
          38 .eh_frame$_ZNSaIN3zmq18tcp_address_mask_tEEC2Ev
         150 .eh_frame$_ZNSaIN3zmq18tcp_address_mask_tEED1Ev
         188 .eh_frame$_ZNSaIN3zmq18tcp_address_mask_tEED2Ev
          38 .eh_frame$_ZNSaIN3zmq6blob_tEEC2Ev
          38 .eh_frame$_ZNSaIN3zmq6blob_tEED2Ev
          38 .eh_frame$_ZNSaIN3zmq8select_t10fd_entry_tEEC2Ev
          38 .eh_frame$_ZNSaIN3zmq8select_t10fd_entry_tEED2Ev
          38 .eh_frame$_ZNSaIPN3zmq10metadata_tEEC2Ev
          38 .eh_frame$_ZNSaIPN3zmq10metadata_tEED2Ev
          38 .eh_frame$_ZNSaIPN3zmq10signaler_tEEC2Ev
          38 .eh_frame$_ZNSaIPN3zmq10signaler_tEED2Ev
          38 .eh_frame$_ZNSaIPN3zmq11io_thread_tEEC2Ev
          38 .eh_frame$_ZNSaIPN3zmq11io_thread_tEED2Ev
          38 .eh_frame$_ZNSaIPN3zmq13socket_base_tEEC2Ev
          38 .eh_frame$_ZNSaIPN3zmq13socket_base_tEED2Ev
          38 .eh_frame$_ZNSaIPN3zmq6blob_tEEC1IS0_EERKSaIT_E
          38 .eh_frame$_ZNSaIPN3zmq6blob_tEED1Ev
         150 .eh_frame$_ZNSaIPN3zmq6pipe_tEEC2Ev
         150 .eh_frame$_ZNSaIPN3zmq6pipe_tEED2Ev
          38 .eh_frame$_ZNSaIPN3zmq9i_mailboxEEC2Ev
          38 .eh_frame$_ZNSaIPN3zmq9i_mailboxEED2Ev
          38 .eh_frame$_ZNSaIPPN3zmq10metadata_tEEC1IS1_EERKSaIT_E
          38 .eh_frame$_ZNSaIPPN3zmq10metadata_tEED1Ev
          38 .eh_frame$_ZNSaIPPN3zmq6pipe_tEEC1IS1_EERKSaIT_E
          38 .eh_frame$_ZNSaIPPN3zmq6pipe_tEED1Ev
          38 .eh_frame$_ZNSaIPhEC1IhEERKSaIT_E
          38 .eh_frame$_ZNSaIPhED1Ev
          38 .eh_frame$_ZNSaISt13_Rb_tree_nodeINSt7__cxx1112basic_stringIcSt11char_traitsIcESaIcEEEEEC2Ev
          38 .eh_frame$_ZNSaISt13_Rb_tree_nodeINSt7__cxx1112basic_stringIcSt11char_traitsIcESaIcEEEEED2Ev
          38 .eh_frame$_ZNSaISt13_Rb_tree_nodeIPN3zmq5own_tEEEC2Ev
          38 .eh_frame$_ZNSaISt13_Rb_tree_nodeIPN3zmq5own_tEEED2Ev
          A8 .eh_frame$_ZNSaISt13_Rb_tree_nodeIPN3zmq6pipe_tEEEC2Ev
          E0 .eh_frame$_ZNSaISt13_Rb_tree_nodeIPN3zmq6pipe_tEEED2Ev
          38 .eh_frame$_ZNSaISt13_Rb_tree_nodeISt4pairIKN3zmq6blob_tENS1_21routing_socket_base_t10out_pipe_tEEEEC2Ev
          38 .eh_frame$_ZNSaISt13_Rb_tree_nodeISt4pairIKN3zmq6blob_tENS1_21routing_socket_base_t10out_pipe_tEEEED2Ev
          38 .eh_frame$_ZNSaISt13_Rb_tree_nodeISt4pairIKNSt7__cxx1112basic_stringIcSt11char_traitsIcESaIcEEEMN3zmq14session_base_tEFPNS8_5own_tEPNS8_11io_thread_tEbEEEEC2Ev
          38 .eh_frame$_ZNSaISt13_Rb_tree_nodeISt4pairIKNSt7__cxx1112basic_stringIcSt11char_traitsIcESaIcEEEMN3zmq14session_base_tEFPNS8_5own_tEPNS8_11io_thread_tEbEEEED2Ev
          38 .eh_frame$_ZNSaISt13_Rb_tree_nodeISt4pairIKNSt7__cxx1112basic_stringIcSt11char_traitsIcESaIcEEEMN3zmq14session_base_tEFvPNS8_11io_thread_tEEEEEC2Ev
          38 .eh_frame$_ZNSaISt13_Rb_tree_nodeISt4pairIKNSt7__cxx1112basic_stringIcSt11char_traitsIcESaIcEEEMN3zmq14session_base_tEFvPNS8_11io_thread_tEEEEED2Ev
          38 .eh_frame$_ZNSaISt13_Rb_tree_nodeISt4pairIKNSt7__cxx1112basic_stringIcSt11char_traitsIcESaIcEEEN3zmq10endpoint_tEEEEC2Ev
          38 .eh_frame$_ZNSaISt13_Rb_tree_nodeISt4pairIKNSt7__cxx1112basic_stringIcSt11char_traitsIcESaIcEEEN3zmq10endpoint_tEEEED2Ev
          38 .eh_frame$_ZNSaISt13_Rb_tree_nodeISt4pairIKNSt7__cxx1112basic_stringIcSt11char_traitsIcESaIcEEEN3zmq5ctx_t20pending_connection_tEEEEC1ERKSD_
          38 .eh_frame$_ZNSaISt13_Rb_tree_nodeISt4pairIKNSt7__cxx1112basic_stringIcSt11char_traitsIcESaIcEEEN3zmq5ctx_t20pending_connection_tEEEEC2ERKSD_
          38 .eh_frame$_ZNSaISt13_Rb_tree_nodeISt4pairIKNSt7__cxx1112basic_stringIcSt11char_traitsIcESaIcEEEN3zmq5ctx_t20pending_connection_tEEEEC2Ev
          38 .eh_frame$_ZNSaISt13_Rb_tree_nodeISt4pairIKNSt7__cxx1112basic_stringIcSt11char_traitsIcESaIcEEEN3zmq5ctx_t20pending_connection_tEEEED1Ev
          38 .eh_frame$_ZNSaISt13_Rb_tree_nodeISt4pairIKNSt7__cxx1112basic_stringIcSt11char_traitsIcESaIcEEEN3zmq5ctx_t20pending_connection_tEEEED2Ev
          70 .eh_frame$_ZNSaISt13_Rb_tree_nodeISt4pairIKNSt7__cxx1112basic_stringIcSt11char_traitsIcESaIcEEEPN3zmq6pipe_tEEEEC2Ev
          70 .eh_frame$_ZNSaISt13_Rb_tree_nodeISt4pairIKNSt7__cxx1112basic_stringIcSt11char_traitsIcESaIcEEEPN3zmq6pipe_tEEEED2Ev
          38 .eh_frame$_ZNSaISt13_Rb_tree_nodeISt4pairIKNSt7__cxx1112basic_stringIcSt11char_traitsIcESaIcEEES0_IPN3zmq5own_tEPNS8_6pipe_tEEEEEC2Ev
          38 .eh_frame$_ZNSaISt13_Rb_tree_nodeISt4pairIKNSt7__cxx1112basic_stringIcSt11char_traitsIcESaIcEEES0_IPN3zmq5own_tEPNS8_6pipe_tEEEEED2Ev
         188 .eh_frame$_ZNSaISt13_Rb_tree_nodeISt4pairIKNSt7__cxx1112basic_stringIcSt11char_traitsIcESaIcEEES6_EEEC1ERKSA_
         188 .eh_frame$_ZNSaISt13_Rb_tree_nodeISt4pairIKNSt7__cxx1112basic_stringIcSt11char_traitsIcESaIcEEES6_EEEC2ERKSA_
          E0 .eh_frame$_ZNSaISt13_Rb_tree_nodeISt4pairIKNSt7__cxx1112basic_stringIcSt11char_traitsIcESaIcEEES6_EEEC2Ev
         188 .eh_frame$_ZNSaISt13_Rb_tree_nodeISt4pairIKNSt7__cxx1112basic_stringIcSt11char_traitsIcESaIcEEES6_EEED1Ev
         230 .eh_frame$_ZNSaISt13_Rb_tree_nodeISt4pairIKNSt7__cxx1112basic_stringIcSt11char_traitsIcESaIcEEES6_EEED2Ev
          38 .eh_frame$_ZNSaISt13_Rb_tree_nodeISt4pairIKjN3zmq8server_t9outpipe_tEEEEC2Ev
          38 .eh_frame$_ZNSaISt13_Rb_tree_nodeISt4pairIKjN3zmq8server_t9outpipe_tEEEED2Ev
          38 .eh_frame$_ZNSaISt13_Rb_tree_nodeISt4pairIKtN3zmq8select_t14family_entry_tEEEEC2Ev
          38 .eh_frame$_ZNSaISt13_Rb_tree_nodeISt4pairIKtN3zmq8select_t14family_entry_tEEEED2Ev
          38 .eh_frame$_ZNSaISt13_Rb_tree_nodeISt4pairIKyN3zmq13poller_base_t12timer_info_tEEEEC2Ev
          38 .eh_frame$_ZNSaISt13_Rb_tree_nodeISt4pairIKyN3zmq13poller_base_t12timer_info_tEEEED2Ev
          38 .eh_frame$_ZNSaISt13_Rb_tree_nodeISt4pairIKyN3zmq8timers_t7timer_tEEEEC2Ev
          38 .eh_frame$_ZNSaISt13_Rb_tree_nodeISt4pairIKyN3zmq8timers_t7timer_tEEEED2Ev
          E0 .eh_frame$_ZNSaISt13_Rb_tree_nodeIiEEC2Ev
          E0 .eh_frame$_ZNSaISt13_Rb_tree_nodeIiEED2Ev
          38 .eh_frame$_ZNSaISt23_Sp_counted_ptr_inplaceISt5mutexSaIS0_ELN9__gnu_cxx12_Lock_policyE2EEEC1IS0_EERKSaIT_E
          38 .eh_frame$_ZNSaISt23_Sp_counted_ptr_inplaceISt5mutexSaIS0_ELN9__gnu_cxx12_Lock_policyE2EEED1Ev
          38 .eh_frame$_ZNSaISt5mutexEC1ERKS0_
          38 .eh_frame$_ZNSaISt5mutexEC1Ev
          38 .eh_frame$_ZNSaISt5mutexEC2ERKS0_
          38 .eh_frame$_ZNSaISt5mutexED1Ev
          38 .eh_frame$_ZNSaISt5mutexED2Ev
          A8 .eh_frame$_ZNSaIhEC1Ev
          A8 .eh_frame$_ZNSaIhEC2ERKS_
          E0 .eh_frame$_ZNSaIhEC2Ev
          A8 .eh_frame$_ZNSaIhED1Ev
         118 .eh_frame$_ZNSaIhED2Ev
          70 .eh_frame$_ZNSaIjEC2Ev
          70 .eh_frame$_ZNSaIjED2Ev
          38 .eh_frame$_ZNSt10_Head_baseILj0EONSt7__cxx1112basic_stringIcSt11char_traitsIcESaIcEEELb0EE7_M_headERS7_
          38 .eh_frame$_ZNSt10_Head_baseILj0EONSt7__cxx1112basic_stringIcSt11char_traitsIcESaIcEEELb0EEC2IS5_EEOT_
          38 .eh_frame$_ZNSt10_Head_baseILj0ERKtLb0EE7_M_headERS2_
          38 .eh_frame$_ZNSt10_Head_baseILj0ERKtLb0EEC2ES1_
          38 .eh_frame$_ZNSt10_Iter_baseIN9__gnu_cxx17__normal_iteratorIPN3zmq15socket_poller_t6item_tESt6vectorIS4_SaIS4_EEEELb0EE7_S_baseES9_
          38 .eh_frame$_ZNSt10_Iter_baseIN9__gnu_cxx17__normal_iteratorIPN3zmq15socket_poller_t6item_tESt6vectorIS4_SaIS4_EEEELb1EE7_S_baseES9_
          38 .eh_frame$_ZNSt10_Iter_baseIN9__gnu_cxx17__normal_iteratorIPN3zmq8select_t10fd_entry_tESt6vectorIS4_SaIS4_EEEELb0EE7_S_baseES9_
          38 .eh_frame$_ZNSt10_Iter_baseIN9__gnu_cxx17__normal_iteratorIPN3zmq8select_t10fd_entry_tESt6vectorIS4_SaIS4_EEEELb1EE7_S_baseES9_
          38 .eh_frame$_ZNSt10_Iter_baseIN9__gnu_cxx17__normal_iteratorIPPN3zmq10signaler_tESt6vectorIS4_SaIS4_EEEELb0EE7_S_baseES9_
          38 .eh_frame$_ZNSt10_Iter_baseIN9__gnu_cxx17__normal_iteratorIPPN3zmq10signaler_tESt6vectorIS4_SaIS4_EEEELb1EE7_S_baseES9_
          38 .eh_frame$_ZNSt10_Iter_baseIN9__gnu_cxx17__normal_iteratorIPPN3zmq6pipe_tESt6vectorIS4_SaIS4_EEEELb0EE7_S_baseES9_
          38 .eh_frame$_ZNSt10_Iter_baseIN9__gnu_cxx17__normal_iteratorIPPN3zmq6pipe_tESt6vectorIS4_SaIS4_EEEELb1EE7_S_baseES9_
          70 .eh_frame$_ZNSt10_Iter_baseIN9__gnu_cxx17__normal_iteratorIPhSt6vectorIhN3zmq18secure_allocator_tIhEEEEELb1EE7_S_baseES8_
          A8 .eh_frame$_ZNSt10_Iter_baseIN9__gnu_cxx17__normal_iteratorIPhSt6vectorIhSaIhEEEELb1EE7_S_baseES6_
          38 .eh_frame$_ZNSt10_Iter_baseIPN3zmq15socket_poller_t6item_tELb0EE7_S_baseES3_
          38 .eh_frame$_ZNSt10_Iter_baseIPN3zmq8select_t10fd_entry_tELb0EE7_S_baseES3_
          38 .eh_frame$_ZNSt10_Iter_baseIPPN3zmq10signaler_tELb0EE7_S_baseES3_
          38 .eh_frame$_ZNSt10_Iter_baseIPPN3zmq11io_thread_tELb0EE7_S_baseES3_
          38 .eh_frame$_ZNSt10_Iter_baseIPPN3zmq13socket_base_tELb0EE7_S_baseES3_
          38 .eh_frame$_ZNSt10_Iter_baseIPPN3zmq6blob_tELb0EE7_S_baseES3_
         118 .eh_frame$_ZNSt10_Iter_baseIPPN3zmq6pipe_tELb0EE7_S_baseES3_
          38 .eh_frame$_ZNSt10_Iter_baseIPPN3zmq9i_mailboxELb0EE7_S_baseES3_
          38 .eh_frame$_ZNSt10_Iter_baseIPPPN3zmq10metadata_tELb0EE7_S_baseES4_
          38 .eh_frame$_ZNSt10_Iter_baseIPPPN3zmq6pipe_tELb0EE7_S_baseES4_
          38 .eh_frame$_ZNSt10_Iter_baseIPPhLb0EE7_S_baseES1_
          E0 .eh_frame$_ZNSt10_Iter_baseIPhLb0EE7_S_baseES0_
          70 .eh_frame$_ZNSt10_Iter_baseIPjLb0EE7_S_baseES0_
          38 .eh_frame$_ZNSt10_Iter_baseISt13move_iteratorIPN3zmq15socket_poller_t6item_tEELb1EE7_S_baseES5_
          38 .eh_frame$_ZNSt10_Iter_baseISt13move_iteratorIPN3zmq8select_t10fd_entry_tEELb1EE7_S_baseES5_
          38 .eh_frame$_ZNSt10_Iter_baseISt13move_iteratorIPPN3zmq10signaler_tEELb1EE7_S_baseES5_
          38 .eh_frame$_ZNSt10_Iter_baseISt13move_iteratorIPPN3zmq11io_thread_tEELb1EE7_S_baseES5_
          38 .eh_frame$_ZNSt10_Iter_baseISt13move_iteratorIPPN3zmq13socket_base_tEELb1EE7_S_baseES5_
         118 .eh_frame$_ZNSt10_Iter_baseISt13move_iteratorIPPN3zmq6pipe_tEELb1EE7_S_baseES5_
          38 .eh_frame$_ZNSt10_Iter_baseISt13move_iteratorIPPN3zmq9i_mailboxEELb1EE7_S_baseES5_
          38 .eh_frame$_ZNSt10_Iter_baseISt13move_iteratorIPhELb1EE7_S_baseES2_
          70 .eh_frame$_ZNSt10_Iter_baseISt13move_iteratorIPjELb1EE7_S_baseES2_
          38 .eh_frame$_ZNSt10lock_guardISt5mutexEC1ERS0_
          44 .eh_frame$_ZNSt10lock_guardISt5mutexED1Ev
          38 .eh_frame$_ZNSt10shared_ptrISt5mutexEC1ERKS1_
          3C .eh_frame$_ZNSt10shared_ptrISt5mutexEC1ISaIS0_EJEEESt19_Sp_make_shared_tagRKT_DpOT0_
          38 .eh_frame$_ZNSt10shared_ptrISt5mutexED1Ev
          38 .eh_frame$_ZNSt11_Deque_baseIN3zmq6blob_tESaIS1_EE11_Deque_implC1Ev
          38 .eh_frame$_ZNSt11_Deque_baseIN3zmq6blob_tESaIS1_EE11_Deque_implD1Ev
          48 .eh_frame$_ZNSt11_Deque_baseIN3zmq6blob_tESaIS1_EE15_M_allocate_mapEj
          48 .eh_frame$_ZNSt11_Deque_baseIN3zmq6blob_tESaIS1_EE15_M_create_nodesEPPS1_S5_
          38 .eh_frame$_ZNSt11_Deque_baseIN3zmq6blob_tESaIS1_EE16_M_allocate_nodeEv
          38 .eh_frame$_ZNSt11_Deque_baseIN3zmq6blob_tESaIS1_EE16_M_destroy_nodesEPPS1_S5_
          44 .eh_frame$_ZNSt11_Deque_baseIN3zmq6blob_tESaIS1_EE17_M_deallocate_mapEPPS1_j
          48 .eh_frame$_ZNSt11_Deque_baseIN3zmq6blob_tESaIS1_EE17_M_initialize_mapEj
          44 .eh_frame$_ZNSt11_Deque_baseIN3zmq6blob_tESaIS1_EE18_M_deallocate_nodeEPS1_
          38 .eh_frame$_ZNSt11_Deque_baseIN3zmq6blob_tESaIS1_EE19_M_get_Tp_allocatorEv
          48 .eh_frame$_ZNSt11_Deque_baseIN3zmq6blob_tESaIS1_EEC2Ev
          38 .eh_frame$_ZNSt11_Deque_baseIN3zmq6blob_tESaIS1_EED2Ev
          38 .eh_frame$_ZNSt11_Deque_baseIPN3zmq10metadata_tESaIS2_EE11_Deque_implC1Ev
          38 .eh_frame$_ZNSt11_Deque_baseIPN3zmq10metadata_tESaIS2_EE11_Deque_implD1Ev
          48 .eh_frame$_ZNSt11_Deque_baseIPN3zmq10metadata_tESaIS2_EE15_M_allocate_mapEj
          48 .eh_frame$_ZNSt11_Deque_baseIPN3zmq10metadata_tESaIS2_EE15_M_create_nodesEPPS2_S6_
          38 .eh_frame$_ZNSt11_Deque_baseIPN3zmq10metadata_tESaIS2_EE16_M_allocate_nodeEv
          38 .eh_frame$_ZNSt11_Deque_baseIPN3zmq10metadata_tESaIS2_EE16_M_destroy_nodesEPPS2_S6_
          44 .eh_frame$_ZNSt11_Deque_baseIPN3zmq10metadata_tESaIS2_EE17_M_deallocate_mapEPPS2_j
          48 .eh_frame$_ZNSt11_Deque_baseIPN3zmq10metadata_tESaIS2_EE17_M_initialize_mapEj
          44 .eh_frame$_ZNSt11_Deque_baseIPN3zmq10metadata_tESaIS2_EE18_M_deallocate_nodeEPS2_
          38 .eh_frame$_ZNSt11_Deque_baseIPN3zmq10metadata_tESaIS2_EE19_M_get_Tp_allocatorEv
          48 .eh_frame$_ZNSt11_Deque_baseIPN3zmq10metadata_tESaIS2_EEC2Ev
          38 .eh_frame$_ZNSt11_Deque_baseIPN3zmq10metadata_tESaIS2_EED2Ev
          38 .eh_frame$_ZNSt11_Deque_baseIPN3zmq6pipe_tESaIS2_EE11_Deque_implC1Ev
          38 .eh_frame$_ZNSt11_Deque_baseIPN3zmq6pipe_tESaIS2_EE11_Deque_implD1Ev
          48 .eh_frame$_ZNSt11_Deque_baseIPN3zmq6pipe_tESaIS2_EE15_M_allocate_mapEj
          48 .eh_frame$_ZNSt11_Deque_baseIPN3zmq6pipe_tESaIS2_EE15_M_create_nodesEPPS2_S6_
          38 .eh_frame$_ZNSt11_Deque_baseIPN3zmq6pipe_tESaIS2_EE16_M_allocate_nodeEv
          38 .eh_frame$_ZNSt11_Deque_baseIPN3zmq6pipe_tESaIS2_EE16_M_destroy_nodesEPPS2_S6_
          44 .eh_frame$_ZNSt11_Deque_baseIPN3zmq6pipe_tESaIS2_EE17_M_deallocate_mapEPPS2_j
          48 .eh_frame$_ZNSt11_Deque_baseIPN3zmq6pipe_tESaIS2_EE17_M_initialize_mapEj
          44 .eh_frame$_ZNSt11_Deque_baseIPN3zmq6pipe_tESaIS2_EE18_M_deallocate_nodeEPS2_
          38 .eh_frame$_ZNSt11_Deque_baseIPN3zmq6pipe_tESaIS2_EE19_M_get_Tp_allocatorEv
          48 .eh_frame$_ZNSt11_Deque_baseIPN3zmq6pipe_tESaIS2_EEC2Ev
          38 .eh_frame$_ZNSt11_Deque_baseIPN3zmq6pipe_tESaIS2_EED2Ev
          38 .eh_frame$_ZNSt11_Deque_baseIhSaIhEE11_Deque_implC1Ev
          38 .eh_frame$_ZNSt11_Deque_baseIhSaIhEE11_Deque_implD1Ev
          48 .eh_frame$_ZNSt11_Deque_baseIhSaIhEE15_M_allocate_mapEj
          48 .eh_frame$_ZNSt11_Deque_baseIhSaIhEE15_M_create_nodesEPPhS3_
          38 .eh_frame$_ZNSt11_Deque_baseIhSaIhEE16_M_allocate_nodeEv
          38 .eh_frame$_ZNSt11_Deque_baseIhSaIhEE16_M_destroy_nodesEPPhS3_
          44 .eh_frame$_ZNSt11_Deque_baseIhSaIhEE17_M_deallocate_mapEPPhj
          48 .eh_frame$_ZNSt11_Deque_baseIhSaIhEE17_M_initialize_mapEj
          44 .eh_frame$_ZNSt11_Deque_baseIhSaIhEE18_M_deallocate_nodeEPh
          38 .eh_frame$_ZNSt11_Deque_baseIhSaIhEE19_M_get_Tp_allocatorEv
          48 .eh_frame$_ZNSt11_Deque_baseIhSaIhEEC2Ev
          38 .eh_frame$_ZNSt11_Deque_baseIhSaIhEED2Ev
          38 .eh_frame$_ZNSt11_Mutex_baseILN9__gnu_cxx12_Lock_policyE2EEC2Ev
          38 .eh_frame$_ZNSt11_Tuple_implILj0EJONSt7__cxx1112basic_stringIcSt11char_traitsIcESaIcEEEEE7_M_headERS7_
          38 .eh_frame$_ZNSt11_Tuple_implILj0EJONSt7__cxx1112basic_stringIcSt11char_traitsIcESaIcEEEEEC2EOS7_
          38 .eh_frame$_ZNSt11_Tuple_implILj0EJONSt7__cxx1112basic_stringIcSt11char_traitsIcESaIcEEEEEC2IS5_EEOT_
          38 .eh_frame$_ZNSt11_Tuple_implILj0EJRKtEE7_M_headERS2_
          38 .eh_frame$_ZNSt11_Tuple_implILj0EJRKtEEC2EOS2_
          38 .eh_frame$_ZNSt11_Tuple_implILj0EJRKtEEC2ES1_
          38 .eh_frame$_ZNSt11__copy_moveILb0ELb1ESt26random_access_iterator_tagE8__copy_mIPN3zmq6blob_tEEEPT_PKS6_S9_S7_
          38 .eh_frame$_ZNSt11__copy_moveILb0ELb1ESt26random_access_iterator_tagE8__copy_mIPPN3zmq10metadata_tEEEPT_PKS7_SA_S8_
          38 .eh_frame$_ZNSt11__copy_moveILb0ELb1ESt26random_access_iterator_tagE8__copy_mIPPN3zmq6pipe_tEEEPT_PKS7_SA_S8_
          38 .eh_frame$_ZNSt11__copy_moveILb0ELb1ESt26random_access_iterator_tagE8__copy_mIPhEEPT_PKS4_S7_S5_
          38 .eh_frame$_ZNSt11__copy_moveILb1ELb1ESt26random_access_iterator_tagE8__copy_mIN3zmq15socket_poller_t6item_tEEEPT_PKS6_S9_S7_
          38 .eh_frame$_ZNSt11__copy_moveILb1ELb1ESt26random_access_iterator_tagE8__copy_mIN3zmq8select_t10fd_entry_tEEEPT_PKS6_S9_S7_
          38 .eh_frame$_ZNSt11__copy_moveILb1ELb1ESt26random_access_iterator_tagE8__copy_mIPN3zmq10signaler_tEEEPT_PKS6_S9_S7_
          38 .eh_frame$_ZNSt11__copy_moveILb1ELb1ESt26random_access_iterator_tagE8__copy_mIPN3zmq11io_thread_tEEEPT_PKS6_S9_S7_
          38 .eh_frame$_ZNSt11__copy_moveILb1ELb1ESt26random_access_iterator_tagE8__copy_mIPN3zmq13socket_base_tEEEPT_PKS6_S9_S7_
         118 .eh_frame$_ZNSt11__copy_moveILb1ELb1ESt26random_access_iterator_tagE8__copy_mIPN3zmq6pipe_tEEEPT_PKS6_S9_S7_
          38 .eh_frame$_ZNSt11__copy_moveILb1ELb1ESt26random_access_iterator_tagE8__copy_mIPN3zmq9i_mailboxEEEPT_PKS6_S9_S7_
          38 .eh_frame$_ZNSt11__copy_moveILb1ELb1ESt26random_access_iterator_tagE8__copy_mIhEEPT_PKS3_S6_S4_
          70 .eh_frame$_ZNSt11__copy_moveILb1ELb1ESt26random_access_iterator_tagE8__copy_mIjEEPT_PKS3_S6_S4_
          38 .eh_frame$_ZNSt11unique_lockISt5mutexE4lockEv
          38 .eh_frame$_ZNSt11unique_lockISt5mutexE6unlockEv
          38 .eh_frame$_ZNSt11unique_lockISt5mutexEC1EOS1_
          38 .eh_frame$_ZNSt11unique_lockISt5mutexEC1ERS0_
          44 .eh_frame$_ZNSt11unique_lockISt5mutexED1Ev
          38 .eh_frame$_ZNSt12_Destroy_auxILb0EE9__destroyIPN3zmq6blob_tEEEvT_S5_
          38 .eh_frame$_ZNSt12_Destroy_auxILb1EE9__destroyIPN3zmq15socket_poller_t6item_tEEEvT_S6_
         1C0 .eh_frame$_ZNSt12_Destroy_auxILb1EE9__destroyIPN3zmq18tcp_address_mask_tEEEvT_S5_
          38 .eh_frame$_ZNSt12_Destroy_auxILb1EE9__destroyIPN3zmq8select_t10fd_entry_tEEEvT_S6_
          38 .eh_frame$_ZNSt12_Destroy_auxILb1EE9__destroyIPPN3zmq10signaler_tEEEvT_S6_
          38 .eh_frame$_ZNSt12_Destroy_auxILb1EE9__destroyIPPN3zmq11io_thread_tEEEvT_S6_
          38 .eh_frame$_ZNSt12_Destroy_auxILb1EE9__destroyIPPN3zmq13socket_base_tEEEvT_S6_
         118 .eh_frame$_ZNSt12_Destroy_auxILb1EE9__destroyIPPN3zmq6pipe_tEEEvT_S6_
          38 .eh_frame$_ZNSt12_Destroy_auxILb1EE9__destroyIPPN3zmq9i_mailboxEEEvT_S6_
          E0 .eh_frame$_ZNSt12_Destroy_auxILb1EE9__destroyIPhEEvT_S3_
          70 .eh_frame$_ZNSt12_Destroy_auxILb1EE9__destroyIPjEEvT_S3_
          38 .eh_frame$_ZNSt12_Vector_baseIN3zmq15socket_poller_t6item_tESaIS2_EE11_M_allocateEj
          38 .eh_frame$_ZNSt12_Vector_baseIN3zmq15socket_poller_t6item_tESaIS2_EE12_Vector_implC1Ev
          38 .eh_frame$_ZNSt12_Vector_baseIN3zmq15socket_poller_t6item_tESaIS2_EE12_Vector_implD1Ev
          38 .eh_frame$_ZNSt12_Vector_baseIN3zmq15socket_poller_t6item_tESaIS2_EE13_M_deallocateEPS2_j
          38 .eh_frame$_ZNSt12_Vector_baseIN3zmq15socket_poller_t6item_tESaIS2_EE19_M_get_Tp_allocatorEv
          38 .eh_frame$_ZNSt12_Vector_baseIN3zmq15socket_poller_t6item_tESaIS2_EEC2Ev
          44 .eh_frame$_ZNSt12_Vector_baseIN3zmq15socket_poller_t6item_tESaIS2_EED2Ev
         188 .eh_frame$_ZNSt12_Vector_baseIN3zmq18tcp_address_mask_tESaIS1_EE11_M_allocateEj
          38 .eh_frame$_ZNSt12_Vector_baseIN3zmq18tcp_address_mask_tESaIS1_EE12_Vector_impl12_M_swap_dataERS4_
          38 .eh_frame$_ZNSt12_Vector_baseIN3zmq18tcp_address_mask_tESaIS1_EE12_Vector_implC1EOS2_
         150 .eh_frame$_ZNSt12_Vector_baseIN3zmq18tcp_address_mask_tESaIS1_EE12_Vector_implC1ERKS2_
          38 .eh_frame$_ZNSt12_Vector_baseIN3zmq18tcp_address_mask_tESaIS1_EE12_Vector_implC1Ev
         188 .eh_frame$_ZNSt12_Vector_baseIN3zmq18tcp_address_mask_tESaIS1_EE12_Vector_implD1Ev
         1C0 .eh_frame$_ZNSt12_Vector_baseIN3zmq18tcp_address_mask_tESaIS1_EE13_M_deallocateEPS1_j
         150 .eh_frame$_ZNSt12_Vector_baseIN3zmq18tcp_address_mask_tESaIS1_EE17_M_create_storageEj
         1C0 .eh_frame$_ZNSt12_Vector_baseIN3zmq18tcp_address_mask_tESaIS1_EE19_M_get_Tp_allocatorEv
          38 .eh_frame$_ZNSt12_Vector_baseIN3zmq18tcp_address_mask_tESaIS1_EEC2EOS3_
         1B0 .eh_frame$_ZNSt12_Vector_baseIN3zmq18tcp_address_mask_tESaIS1_EEC2EjRKS2_
          38 .eh_frame$_ZNSt12_Vector_baseIN3zmq18tcp_address_mask_tESaIS1_EEC2Ev
         1DC .eh_frame$_ZNSt12_Vector_baseIN3zmq18tcp_address_mask_tESaIS1_EED2Ev
          38 .eh_frame$_ZNSt12_Vector_baseIN3zmq8select_t10fd_entry_tESaIS2_EE11_M_allocateEj
          38 .eh_frame$_ZNSt12_Vector_baseIN3zmq8select_t10fd_entry_tESaIS2_EE12_Vector_implC1Ev
          38 .eh_frame$_ZNSt12_Vector_baseIN3zmq8select_t10fd_entry_tESaIS2_EE12_Vector_implD1Ev
          38 .eh_frame$_ZNSt12_Vector_baseIN3zmq8select_t10fd_entry_tESaIS2_EE13_M_deallocateEPS2_j
          38 .eh_frame$_ZNSt12_Vector_baseIN3zmq8select_t10fd_entry_tESaIS2_EE19_M_get_Tp_allocatorEv
          38 .eh_frame$_ZNSt12_Vector_baseIN3zmq8select_t10fd_entry_tESaIS2_EEC2Ev
          44 .eh_frame$_ZNSt12_Vector_baseIN3zmq8select_t10fd_entry_tESaIS2_EED2Ev
          38 .eh_frame$_ZNSt12_Vector_baseIPN3zmq10signaler_tESaIS2_EE11_M_allocateEj
          38 .eh_frame$_ZNSt12_Vector_baseIPN3zmq10signaler_tESaIS2_EE12_Vector_implC1Ev
          38 .eh_frame$_ZNSt12_Vector_baseIPN3zmq10signaler_tESaIS2_EE12_Vector_implD1Ev
          38 .eh_frame$_ZNSt12_Vector_baseIPN3zmq10signaler_tESaIS2_EE13_M_deallocateEPS2_j
          38 .eh_frame$_ZNSt12_Vector_baseIPN3zmq10signaler_tESaIS2_EE19_M_get_Tp_allocatorEv
          38 .eh_frame$_ZNSt12_Vector_baseIPN3zmq10signaler_tESaIS2_EEC2Ev
          44 .eh_frame$_ZNSt12_Vector_baseIPN3zmq10signaler_tESaIS2_EED2Ev
          38 .eh_frame$_ZNSt12_Vector_baseIPN3zmq11io_thread_tESaIS2_EE11_M_allocateEj
          38 .eh_frame$_ZNSt12_Vector_baseIPN3zmq11io_thread_tESaIS2_EE12_Vector_implC1Ev
          38 .eh_frame$_ZNSt12_Vector_baseIPN3zmq11io_thread_tESaIS2_EE12_Vector_implD1Ev
          38 .eh_frame$_ZNSt12_Vector_baseIPN3zmq11io_thread_tESaIS2_EE13_M_deallocateEPS2_j
          38 .eh_frame$_ZNSt12_Vector_baseIPN3zmq11io_thread_tESaIS2_EE19_M_get_Tp_allocatorEv
          38 .eh_frame$_ZNSt12_Vector_baseIPN3zmq11io_thread_tESaIS2_EEC2Ev
          44 .eh_frame$_ZNSt12_Vector_baseIPN3zmq11io_thread_tESaIS2_EED2Ev
          38 .eh_frame$_ZNSt12_Vector_baseIPN3zmq13socket_base_tESaIS2_EE11_M_allocateEj
          38 .eh_frame$_ZNSt12_Vector_baseIPN3zmq13socket_base_tESaIS2_EE12_Vector_implC1Ev
          38 .eh_frame$_ZNSt12_Vector_baseIPN3zmq13socket_base_tESaIS2_EE12_Vector_implD1Ev
          38 .eh_frame$_ZNSt12_Vector_baseIPN3zmq13socket_base_tESaIS2_EE13_M_deallocateEPS2_j
          38 .eh_frame$_ZNSt12_Vector_baseIPN3zmq13socket_base_tESaIS2_EE19_M_get_Tp_allocatorEv
          38 .eh_frame$_ZNSt12_Vector_baseIPN3zmq13socket_base_tESaIS2_EEC2Ev
          44 .eh_frame$_ZNSt12_Vector_baseIPN3zmq13socket_base_tESaIS2_EED2Ev
         118 .eh_frame$_ZNSt12_Vector_baseIPN3zmq6pipe_tESaIS2_EE11_M_allocateEj
         118 .eh_frame$_ZNSt12_Vector_baseIPN3zmq6pipe_tESaIS2_EE12_Vector_implC1Ev
         118 .eh_frame$_ZNSt12_Vector_baseIPN3zmq6pipe_tESaIS2_EE12_Vector_implD1Ev
         118 .eh_frame$_ZNSt12_Vector_baseIPN3zmq6pipe_tESaIS2_EE13_M_deallocateEPS2_j
         118 .eh_frame$_ZNSt12_Vector_baseIPN3zmq6pipe_tESaIS2_EE19_M_get_Tp_allocatorEv
         118 .eh_frame$_ZNSt12_Vector_baseIPN3zmq6pipe_tESaIS2_EEC2Ev
         154 .eh_frame$_ZNSt12_Vector_baseIPN3zmq6pipe_tESaIS2_EED2Ev
          38 .eh_frame$_ZNSt12_Vector_baseIPN3zmq9i_mailboxESaIS2_EE11_M_allocateEj
          38 .eh_frame$_ZNSt12_Vector_baseIPN3zmq9i_mailboxESaIS2_EE12_Vector_implC1Ev
          38 .eh_frame$_ZNSt12_Vector_baseIPN3zmq9i_mailboxESaIS2_EE12_Vector_implD1Ev
          38 .eh_frame$_ZNSt12_Vector_baseIPN3zmq9i_mailboxESaIS2_EE13_M_deallocateEPS2_j
          38 .eh_frame$_ZNSt12_Vector_baseIPN3zmq9i_mailboxESaIS2_EE19_M_get_Tp_allocatorEv
          38 .eh_frame$_ZNSt12_Vector_baseIPN3zmq9i_mailboxESaIS2_EEC2Ev
          44 .eh_frame$_ZNSt12_Vector_baseIPN3zmq9i_mailboxESaIS2_EED2Ev
          70 .eh_frame$_ZNSt12_Vector_baseIhN3zmq18secure_allocator_tIhEEE11_M_allocateEj
          70 .eh_frame$_ZNSt12_Vector_baseIhN3zmq18secure_allocator_tIhEEE12_Vector_implC1ERKSaIhE
          70 .eh_frame$_ZNSt12_Vector_baseIhN3zmq18secure_allocator_tIhEEE12_Vector_implD1Ev
          70 .eh_frame$_ZNSt12_Vector_baseIhN3zmq18secure_allocator_tIhEEE13_M_deallocateEPhj
          70 .eh_frame$_ZNSt12_Vector_baseIhN3zmq18secure_allocator_tIhEEE17_M_create_storageEj
          70 .eh_frame$_ZNSt12_Vector_baseIhN3zmq18secure_allocator_tIhEEE19_M_get_Tp_allocatorEv
          90 .eh_frame$_ZNSt12_Vector_baseIhN3zmq18secure_allocator_tIhEEEC2EjRKS2_
          88 .eh_frame$_ZNSt12_Vector_baseIhN3zmq18secure_allocator_tIhEEED2Ev
          E0 .eh_frame$_ZNSt12_Vector_baseIhSaIhEE11_M_allocateEj
          A8 .eh_frame$_ZNSt12_Vector_baseIhSaIhEE12_Vector_implC1ERKS0_
          38 .eh_frame$_ZNSt12_Vector_baseIhSaIhEE12_Vector_implC1Ev
          E0 .eh_frame$_ZNSt12_Vector_baseIhSaIhEE12_Vector_implD1Ev
          E0 .eh_frame$_ZNSt12_Vector_baseIhSaIhEE13_M_deallocateEPhj
          A8 .eh_frame$_ZNSt12_Vector_baseIhSaIhEE17_M_create_storageEj
          E0 .eh_frame$_ZNSt12_Vector_baseIhSaIhEE19_M_get_Tp_allocatorEv
          D8 .eh_frame$_ZNSt12_Vector_baseIhSaIhEEC2EjRKS0_
          38 .eh_frame$_ZNSt12_Vector_baseIhSaIhEEC2Ev
         110 .eh_frame$_ZNSt12_Vector_baseIhSaIhEED2Ev
          70 .eh_frame$_ZNSt12_Vector_baseIjSaIjEE11_M_allocateEj
          70 .eh_frame$_ZNSt12_Vector_baseIjSaIjEE12_Vector_implC1Ev
          70 .eh_frame$_ZNSt12_Vector_baseIjSaIjEE12_Vector_implD1Ev
          70 .eh_frame$_ZNSt12_Vector_baseIjSaIjEE13_M_deallocateEPjj
          70 .eh_frame$_ZNSt12_Vector_baseIjSaIjEE19_M_get_Tp_allocatorEv
          70 .eh_frame$_ZNSt12_Vector_baseIjSaIjEEC2Ev
          88 .eh_frame$_ZNSt12_Vector_baseIjSaIjEED2Ev
          44 .eh_frame$_ZNSt12__mutex_baseC2Ev
          44 .eh_frame$_ZNSt12__mutex_baseD2Ev
          38 .eh_frame$_ZNSt12__shared_ptrISt5mutexLN9__gnu_cxx12_Lock_policyE2EEC2ERKS3_
          3C .eh_frame$_ZNSt12__shared_ptrISt5mutexLN9__gnu_cxx12_Lock_policyE2EEC2ISaIS0_EJEEESt19_Sp_make_shared_tagRKT_DpOT0_
          38 .eh_frame$_ZNSt12__shared_ptrISt5mutexLN9__gnu_cxx12_Lock_policyE2EED2Ev
          38 .eh_frame$_ZNSt13_Rb_tree_nodeINSt7__cxx1112basic_stringIcSt11char_traitsIcESaIcEEEE9_M_valptrEv
          38 .eh_frame$_ZNSt13_Rb_tree_nodeINSt7__cxx1112basic_stringIcSt11char_traitsIcESaIcEEEEC1Ev
          38 .eh_frame$_ZNSt13_Rb_tree_nodeIPN3zmq5own_tEE9_M_valptrEv
          38 .eh_frame$_ZNSt13_Rb_tree_nodeIPN3zmq5own_tEEC1Ev
          E0 .eh_frame$_ZNSt13_Rb_tree_nodeIPN3zmq6pipe_tEE9_M_valptrEv
          A8 .eh_frame$_ZNSt13_Rb_tree_nodeIPN3zmq6pipe_tEEC1Ev
          70 .eh_frame$_ZNSt13_Rb_tree_nodeISt4pairIKN3zmq6blob_tENS1_21routing_socket_base_t10out_pipe_tEEE9_M_valptrEv
          38 .eh_frame$_ZNSt13_Rb_tree_nodeISt4pairIKN3zmq6blob_tENS1_21routing_socket_base_t10out_pipe_tEEEC1Ev
          38 .eh_frame$_ZNSt13_Rb_tree_nodeISt4pairIKNSt7__cxx1112basic_stringIcSt11char_traitsIcESaIcEEEMN3zmq14session_base_tEFPNS8_5own_tEPNS8_11io_thread_tEbEEE9_M_valptrEv
          38 .eh_frame$_ZNSt13_Rb_tree_nodeISt4pairIKNSt7__cxx1112basic_stringIcSt11char_traitsIcESaIcEEEMN3zmq14session_base_tEFPNS8_5own_tEPNS8_11io_thread_tEbEEEC1Ev
          38 .eh_frame$_ZNSt13_Rb_tree_nodeISt4pairIKNSt7__cxx1112basic_stringIcSt11char_traitsIcESaIcEEEMN3zmq14session_base_tEFvPNS8_11io_thread_tEEEE9_M_valptrEv
          38 .eh_frame$_ZNSt13_Rb_tree_nodeISt4pairIKNSt7__cxx1112basic_stringIcSt11char_traitsIcESaIcEEEMN3zmq14session_base_tEFvPNS8_11io_thread_tEEEEC1Ev
          38 .eh_frame$_ZNSt13_Rb_tree_nodeISt4pairIKNSt7__cxx1112basic_stringIcSt11char_traitsIcESaIcEEEN3zmq10endpoint_tEEE9_M_valptrEv
          38 .eh_frame$_ZNSt13_Rb_tree_nodeISt4pairIKNSt7__cxx1112basic_stringIcSt11char_traitsIcESaIcEEEN3zmq10endpoint_tEEEC1Ev
          38 .eh_frame$_ZNSt13_Rb_tree_nodeISt4pairIKNSt7__cxx1112basic_stringIcSt11char_traitsIcESaIcEEEN3zmq5ctx_t20pending_connection_tEEE9_M_valptrEv
          38 .eh_frame$_ZNSt13_Rb_tree_nodeISt4pairIKNSt7__cxx1112basic_stringIcSt11char_traitsIcESaIcEEEN3zmq5ctx_t20pending_connection_tEEEC1Ev
          70 .eh_frame$_ZNSt13_Rb_tree_nodeISt4pairIKNSt7__cxx1112basic_stringIcSt11char_traitsIcESaIcEEEPN3zmq6pipe_tEEE9_M_valptrEv
          70 .eh_frame$_ZNSt13_Rb_tree_nodeISt4pairIKNSt7__cxx1112basic_stringIcSt11char_traitsIcESaIcEEEPN3zmq6pipe_tEEEC1Ev
          38 .eh_frame$_ZNSt13_Rb_tree_nodeISt4pairIKNSt7__cxx1112basic_stringIcSt11char_traitsIcESaIcEEES0_IPN3zmq5own_tEPNS8_6pipe_tEEEE9_M_valptrEv
          38 .eh_frame$_ZNSt13_Rb_tree_nodeISt4pairIKNSt7__cxx1112basic_stringIcSt11char_traitsIcESaIcEEES0_IPN3zmq5own_tEPNS8_6pipe_tEEEEC1Ev
         268 .eh_frame$_ZNSt13_Rb_tree_nodeISt4pairIKNSt7__cxx1112basic_stringIcSt11char_traitsIcESaIcEEES6_EE9_M_valptrEv
         1C0 .eh_frame$_ZNSt13_Rb_tree_nodeISt4pairIKNSt7__cxx1112basic_stringIcSt11char_traitsIcESaIcEEES6_EEC1Ev
          38 .eh_frame$_ZNSt13_Rb_tree_nodeISt4pairIKjN3zmq8server_t9outpipe_tEEE9_M_valptrEv
          38 .eh_frame$_ZNSt13_Rb_tree_nodeISt4pairIKjN3zmq8server_t9outpipe_tEEEC1Ev
          38 .eh_frame$_ZNSt13_Rb_tree_nodeISt4pairIKtN3zmq8select_t14family_entry_tEEE9_M_valptrEv
          38 .eh_frame$_ZNSt13_Rb_tree_nodeISt4pairIKtN3zmq8select_t14family_entry_tEEEC1Ev
          38 .eh_frame$_ZNSt13_Rb_tree_nodeISt4pairIKyN3zmq13poller_base_t12timer_info_tEEE9_M_valptrEv
          38 .eh_frame$_ZNSt13_Rb_tree_nodeISt4pairIKyN3zmq13poller_base_t12timer_info_tEEEC1Ev
          38 .eh_frame$_ZNSt13_Rb_tree_nodeISt4pairIKyN3zmq8timers_t7timer_tEEE9_M_valptrEv
          38 .eh_frame$_ZNSt13_Rb_tree_nodeISt4pairIKyN3zmq8timers_t7timer_tEEEC1Ev
          E0 .eh_frame$_ZNSt13_Rb_tree_nodeIiE9_M_valptrEv
          70 .eh_frame$_ZNSt13_Rb_tree_nodeIiEC1Ev
          38 .eh_frame$_ZNSt13__atomic_baseIPN3zmq5msg_tEEC1Ev
          38 .eh_frame$_ZNSt13__atomic_baseIPN3zmq5msg_tEEaSES2_
          38 .eh_frame$_ZNSt13__atomic_baseIPN3zmq8yqueue_tINS0_5msg_tELi256EE7chunk_tEEC1Ev
          38 .eh_frame$_ZNSt13__atomic_baseIPN3zmq8yqueue_tINS0_5msg_tELi256EE7chunk_tEEaSES5_
          70 .eh_frame$_ZNSt13__atomic_baseIPN3zmq8yqueue_tINS0_9command_tELi16EE7chunk_tEEC1Ev
          70 .eh_frame$_ZNSt13__atomic_baseIPN3zmq8yqueue_tINS0_9command_tELi16EE7chunk_tEEaSES5_
          70 .eh_frame$_ZNSt13__atomic_baseIPN3zmq9command_tEEC1Ev
          70 .eh_frame$_ZNSt13__atomic_baseIPN3zmq9command_tEEaSES2_
         188 .eh_frame$_ZNSt13__atomic_baseIiEC2Ei
         188 .eh_frame$_ZNSt13__atomic_baseIjEC2Ej
          A8 .eh_frame$_ZNSt13__atomic_baseIjEaSEj
          38 .eh_frame$_ZNSt13move_iteratorIPN3zmq15socket_poller_t6item_tEEC1ES3_
          38 .eh_frame$_ZNSt13move_iteratorIPN3zmq18tcp_address_mask_tEEC1ES2_
          38 .eh_frame$_ZNSt13move_iteratorIPN3zmq18tcp_address_mask_tEEppEv
          38 .eh_frame$_ZNSt13move_iteratorIPN3zmq8select_t10fd_entry_tEEC1ES3_
          38 .eh_frame$_ZNSt13move_iteratorIPPN3zmq10signaler_tEEC1ES3_
          38 .eh_frame$_ZNSt13move_iteratorIPPN3zmq11io_thread_tEEC1ES3_
          38 .eh_frame$_ZNSt13move_iteratorIPPN3zmq13socket_base_tEEC1ES3_
         118 .eh_frame$_ZNSt13move_iteratorIPPN3zmq6pipe_tEEC1ES3_
          38 .eh_frame$_ZNSt13move_iteratorIPPN3zmq9i_mailboxEEC1ES3_
          38 .eh_frame$_ZNSt13move_iteratorIPhEC1ES0_
          70 .eh_frame$_ZNSt13move_iteratorIPjEC1ES0_
          38 .eh_frame$_ZNSt14_Sp_ebo_helperILi0ESaISt5mutexELb1EE6_S_getERS2_
          38 .eh_frame$_ZNSt14_Sp_ebo_helperILi0ESaISt5mutexELb1EEC2ERKS1_
          38 .eh_frame$_ZNSt14_Sp_ebo_helperILi0ESaISt5mutexELb1EED2Ev
          38 .eh_frame$_ZNSt14__shared_countILN9__gnu_cxx12_Lock_policyE2EEC1ERKS2_
          54 .eh_frame$_ZNSt14__shared_countILN9__gnu_cxx12_Lock_policyE2EEC1ISt5mutexSaIS4_EJEEESt19_Sp_make_shared_tagPT_RKT0_DpOT1_
          38 .eh_frame$_ZNSt14__shared_countILN9__gnu_cxx12_Lock_policyE2EED1Ev
          38 .eh_frame$_ZNSt14numeric_limitsIiE3maxEv
          70 .eh_frame$_ZNSt14numeric_limitsIjE3maxEv
          38 .eh_frame$_ZNSt14numeric_limitsItE3maxEv
          3C .eh_frame$_ZNSt15_Deque_iteratorIN3zmq6blob_tERS1_PS1_E11_M_set_nodeEPS3_
          38 .eh_frame$_ZNSt15_Deque_iteratorIN3zmq6blob_tERS1_PS1_E14_S_buffer_sizeEv
          38 .eh_frame$_ZNSt15_Deque_iteratorIN3zmq6blob_tERS1_PS1_EC1ERKS4_
          38 .eh_frame$_ZNSt15_Deque_iteratorIN3zmq6blob_tERS1_PS1_EC1Ev
          3C .eh_frame$_ZNSt15_Deque_iteratorIPN3zmq10metadata_tERS2_PS2_E11_M_set_nodeEPS4_
          38 .eh_frame$_ZNSt15_Deque_iteratorIPN3zmq10metadata_tERS2_PS2_E14_S_buffer_sizeEv
          38 .eh_frame$_ZNSt15_Deque_iteratorIPN3zmq10metadata_tERS2_PS2_EC1ERKS5_
          38 .eh_frame$_ZNSt15_Deque_iteratorIPN3zmq10metadata_tERS2_PS2_EC1Ev
          3C .eh_frame$_ZNSt15_Deque_iteratorIPN3zmq6pipe_tERS2_PS2_E11_M_set_nodeEPS4_
          38 .eh_frame$_ZNSt15_Deque_iteratorIPN3zmq6pipe_tERS2_PS2_E14_S_buffer_sizeEv
          38 .eh_frame$_ZNSt15_Deque_iteratorIPN3zmq6pipe_tERS2_PS2_EC1ERKS5_
          38 .eh_frame$_ZNSt15_Deque_iteratorIPN3zmq6pipe_tERS2_PS2_EC1Ev
          3C .eh_frame$_ZNSt15_Deque_iteratorIhRhPhE11_M_set_nodeEPS1_
          38 .eh_frame$_ZNSt15_Deque_iteratorIhRhPhE14_S_buffer_sizeEv
          38 .eh_frame$_ZNSt15_Deque_iteratorIhRhPhEC1ERKS2_
          38 .eh_frame$_ZNSt15_Deque_iteratorIhRhPhEC1Ev
          38 .eh_frame$_ZNSt15__allocated_ptrISaISt23_Sp_counted_ptr_inplaceISt5mutexSaIS1_ELN9__gnu_cxx12_Lock_policyE2EEEE10_S_raw_ptrEPS5_
          38 .eh_frame$_ZNSt15__allocated_ptrISaISt23_Sp_counted_ptr_inplaceISt5mutexSaIS1_ELN9__gnu_cxx12_Lock_policyE2EEEE3getEv
          38 .eh_frame$_ZNSt15__allocated_ptrISaISt23_Sp_counted_ptr_inplaceISt5mutexSaIS1_ELN9__gnu_cxx12_Lock_policyE2EEEEC1ERS6_PS5_
          44 .eh_frame$_ZNSt15__allocated_ptrISaISt23_Sp_counted_ptr_inplaceISt5mutexSaIS1_ELN9__gnu_cxx12_Lock_policyE2EEEED1Ev
          38 .eh_frame$_ZNSt15__allocated_ptrISaISt23_Sp_counted_ptr_inplaceISt5mutexSaIS1_ELN9__gnu_cxx12_Lock_policyE2EEEEaSEDn
          38 .eh_frame$_ZNSt15aligned_storageILj4ELj4EEC2Ev
          38 .eh_frame$_ZNSt16_Sp_counted_baseILN9__gnu_cxx12_Lock_policyE2EE10_M_destroyEv
          38 .eh_frame$_ZNSt16_Sp_counted_baseILN9__gnu_cxx12_Lock_policyE2EE10_M_releaseEv
          38 .eh_frame$_ZNSt16_Sp_counted_baseILN9__gnu_cxx12_Lock_policyE2EE15_M_add_ref_copyEv
          38 .eh_frame$_ZNSt16_Sp_counted_baseILN9__gnu_cxx12_Lock_policyE2EEC2Ev
          38 .eh_frame$_ZNSt16_Sp_counted_baseILN9__gnu_cxx12_Lock_policyE2EED2Ev
          38 .eh_frame$_ZNSt16allocator_traitsISaIN3zmq15socket_poller_t6item_tEEE10_S_destroyIS2_EENSt9enable_ifIXsrSt6__and_IJNS4_16__destroy_helperIT_E4typeEEE5valueEvE4typeERS3_PS9_
          38 .eh_frame$_ZNSt16allocator_traitsISaIN3zmq15socket_poller_t6item_tEEE10deallocateERS3_PS2_j
          38 .eh_frame$_ZNSt16allocator_traitsISaIN3zmq15socket_poller_t6item_tEEE11_S_max_sizeIKS3_vEEjRT_i
          38 .eh_frame$_ZNSt16allocator_traitsISaIN3zmq15socket_poller_t6item_tEEE12_S_constructIS2_JRKS2_EEENSt9enable_ifIXsrSt6__and_IJNS4_18__construct_helperIT_JDpT0_EE4typeEEE5valueEvE4typeERS3_PSB_DpOSC_
          38 .eh_frame$_ZNSt16allocator_traitsISaIN3zmq15socket_poller_t6item_tEEE7destroyIS2_EEvRS3_PT_
          38 .eh_frame$_ZNSt16allocator_traitsISaIN3zmq15socket_poller_t6item_tEEE8allocateERS3_j
          38 .eh_frame$_ZNSt16allocator_traitsISaIN3zmq15socket_poller_t6item_tEEE8max_sizeERKS3_
          38 .eh_frame$_ZNSt16allocator_traitsISaIN3zmq15socket_poller_t6item_tEEE9constructIS2_JRKS2_EEEDTcl12_S_constructfp_fp0_spcl7forwardIT0_Efp1_EEERS3_PT_DpOS8_
          38 .eh_frame$_ZNSt16allocator_traitsISaIN3zmq18tcp_address_mask_tEEE10_S_destroyIS1_EENSt9enable_ifIXsrSt6__and_IJNS3_16__destroy_helperIT_E4typeEEE5valueEvE4typeERS2_PS8_
         1C0 .eh_frame$_ZNSt16allocator_traitsISaIN3zmq18tcp_address_mask_tEEE10deallocateERS2_PS1_j
          38 .eh_frame$_ZNSt16allocator_traitsISaIN3zmq18tcp_address_mask_tEEE11_S_max_sizeIKS2_vEEjRT_i
          38 .eh_frame$_ZNSt16allocator_traitsISaIN3zmq18tcp_address_mask_tEEE12_S_constructIS1_JRKS1_EEENSt9enable_ifIXsrSt6__and_IJNS3_18__construct_helperIT_JDpT0_EE4typeEEE5valueEvE4typeERS2_PSA_DpOSB_
         150 .eh_frame$_ZNSt16allocator_traitsISaIN3zmq18tcp_address_mask_tEEE37select_on_container_copy_constructionERKS2_
          38 .eh_frame$_ZNSt16allocator_traitsISaIN3zmq18tcp_address_mask_tEEE7destroyIS1_EEvRS2_PT_
         188 .eh_frame$_ZNSt16allocator_traitsISaIN3zmq18tcp_address_mask_tEEE8allocateERS2_j
          38 .eh_frame$_ZNSt16allocator_traitsISaIN3zmq18tcp_address_mask_tEEE8max_sizeERKS2_
         150 .eh_frame$_ZNSt16allocator_traitsISaIN3zmq18tcp_address_mask_tEEE9_S_selectIKS2_vEET_RS6_z
          38 .eh_frame$_ZNSt16allocator_traitsISaIN3zmq18tcp_address_mask_tEEE9constructIS1_JRKS1_EEEDTcl12_S_constructfp_fp0_spcl7forwardIT0_Efp1_EEERS2_PT_DpOS7_
          38 .eh_frame$_ZNSt16allocator_traitsISaIN3zmq6blob_tEEE10_S_destroyIS1_EENSt9enable_ifIXsrSt6__and_IJNS3_16__destroy_helperIT_E4typeEEE5valueEvE4typeERS2_PS8_
          38 .eh_frame$_ZNSt16allocator_traitsISaIN3zmq6blob_tEEE10deallocateERS2_PS1_j
          38 .eh_frame$_ZNSt16allocator_traitsISaIN3zmq6blob_tEEE12_S_constructIS1_JS1_EEENSt9enable_ifIXsrSt6__and_IJNS3_18__construct_helperIT_JDpT0_EE4typeEEE5valueEvE4typeERS2_PS8_DpOS9_
          38 .eh_frame$_ZNSt16allocator_traitsISaIN3zmq6blob_tEEE7destroyIS1_EEvRS2_PT_
          38 .eh_frame$_ZNSt16allocator_traitsISaIN3zmq6blob_tEEE8allocateERS2_j
          38 .eh_frame$_ZNSt16allocator_traitsISaIN3zmq6blob_tEEE9constructIS1_JS1_EEEDTcl12_S_constructfp_fp0_spcl7forwardIT0_Efp1_EEERS2_PT_DpOS5_
          38 .eh_frame$_ZNSt16allocator_traitsISaIN3zmq8select_t10fd_entry_tEEE10_S_destroyIS2_EENSt9enable_ifIXsrSt6__and_IJNS4_16__destroy_helperIT_E4typeEEE5valueEvE4typeERS3_PS9_
          38 .eh_frame$_ZNSt16allocator_traitsISaIN3zmq8select_t10fd_entry_tEEE10deallocateERS3_PS2_j
          38 .eh_frame$_ZNSt16allocator_traitsISaIN3zmq8select_t10fd_entry_tEEE11_S_max_sizeIKS3_vEEjRT_i
          38 .eh_frame$_ZNSt16allocator_traitsISaIN3zmq8select_t10fd_entry_tEEE12_S_constructIS2_JRKS2_EEENSt9enable_ifIXsrSt6__and_IJNS4_18__construct_helperIT_JDpT0_EE4typeEEE5valueEvE4typeERS3_PSB_DpOSC_
          38 .eh_frame$_ZNSt16allocator_traitsISaIN3zmq8select_t10fd_entry_tEEE7destroyIS2_EEvRS3_PT_
          38 .eh_frame$_ZNSt16allocator_traitsISaIN3zmq8select_t10fd_entry_tEEE8allocateERS3_j
          38 .eh_frame$_ZNSt16allocator_traitsISaIN3zmq8select_t10fd_entry_tEEE8max_sizeERKS3_
          38 .eh_frame$_ZNSt16allocator_traitsISaIN3zmq8select_t10fd_entry_tEEE9constructIS2_JRKS2_EEEDTcl12_S_constructfp_fp0_spcl7forwardIT0_Efp1_EEERS3_PT_DpOS8_
          38 .eh_frame$_ZNSt16allocator_traitsISaIPN3zmq10metadata_tEEE10_S_destroyIS2_EENSt9enable_ifIXsrSt6__and_IJNS4_16__destroy_helperIT_E4typeEEE5valueEvE4typeERS3_PS9_
          38 .eh_frame$_ZNSt16allocator_traitsISaIPN3zmq10metadata_tEEE10deallocateERS3_PS2_j
          38 .eh_frame$_ZNSt16allocator_traitsISaIPN3zmq10metadata_tEEE12_S_constructIS2_JRKS2_EEENSt9enable_ifIXsrSt6__and_IJNS4_18__construct_helperIT_JDpT0_EE4typeEEE5valueEvE4typeERS3_PSB_DpOSC_
          38 .eh_frame$_ZNSt16allocator_traitsISaIPN3zmq10metadata_tEEE12_S_constructIS2_JS2_EEENSt9enable_ifIXsrSt6__and_IJNS4_18__construct_helperIT_JDpT0_EE4typeEEE5valueEvE4typeERS3_PS9_DpOSA_
          38 .eh_frame$_ZNSt16allocator_traitsISaIPN3zmq10metadata_tEEE7destroyIS2_EEvRS3_PT_
          38 .eh_frame$_ZNSt16allocator_traitsISaIPN3zmq10metadata_tEEE8allocateERS3_j
          38 .eh_frame$_ZNSt16allocator_traitsISaIPN3zmq10metadata_tEEE9constructIS2_JRKS2_EEEDTcl12_S_constructfp_fp0_spcl7forwardIT0_Efp1_EEERS3_PT_DpOS8_
          38 .eh_frame$_ZNSt16allocator_traitsISaIPN3zmq10metadata_tEEE9constructIS2_JS2_EEEDTcl12_S_constructfp_fp0_spcl7forwardIT0_Efp1_EEERS3_PT_DpOS6_
          38 .eh_frame$_ZNSt16allocator_traitsISaIPN3zmq10signaler_tEEE10_S_destroyIS2_EENSt9enable_ifIXsrSt6__and_IJNS4_16__destroy_helperIT_E4typeEEE5valueEvE4typeERS3_PS9_
          38 .eh_frame$_ZNSt16allocator_traitsISaIPN3zmq10signaler_tEEE10deallocateERS3_PS2_j
          38 .eh_frame$_ZNSt16allocator_traitsISaIPN3zmq10signaler_tEEE11_S_max_sizeIKS3_vEEjRT_i
          38 .eh_frame$_ZNSt16allocator_traitsISaIPN3zmq10signaler_tEEE12_S_constructIS2_JRKS2_EEENSt9enable_ifIXsrSt6__and_IJNS4_18__construct_helperIT_JDpT0_EE4typeEEE5valueEvE4typeERS3_PSB_DpOSC_
          38 .eh_frame$_ZNSt16allocator_traitsISaIPN3zmq10signaler_tEEE7destroyIS2_EEvRS3_PT_
          38 .eh_frame$_ZNSt16allocator_traitsISaIPN3zmq10signaler_tEEE8allocateERS3_j
          38 .eh_frame$_ZNSt16allocator_traitsISaIPN3zmq10signaler_tEEE8max_sizeERKS3_
          38 .eh_frame$_ZNSt16allocator_traitsISaIPN3zmq10signaler_tEEE9constructIS2_JRKS2_EEEDTcl12_S_constructfp_fp0_spcl7forwardIT0_Efp1_EEERS3_PT_DpOS8_
          38 .eh_frame$_ZNSt16allocator_traitsISaIPN3zmq11io_thread_tEEE10_S_destroyIS2_EENSt9enable_ifIXsrSt6__and_IJNS4_16__destroy_helperIT_E4typeEEE5valueEvE4typeERS3_PS9_
          38 .eh_frame$_ZNSt16allocator_traitsISaIPN3zmq11io_thread_tEEE10deallocateERS3_PS2_j
          38 .eh_frame$_ZNSt16allocator_traitsISaIPN3zmq11io_thread_tEEE11_S_max_sizeIKS3_vEEjRT_i
          38 .eh_frame$_ZNSt16allocator_traitsISaIPN3zmq11io_thread_tEEE12_S_constructIS2_JRKS2_EEENSt9enable_ifIXsrSt6__and_IJNS4_18__construct_helperIT_JDpT0_EE4typeEEE5valueEvE4typeERS3_PSB_DpOSC_
          38 .eh_frame$_ZNSt16allocator_traitsISaIPN3zmq11io_thread_tEEE7destroyIS2_EEvRS3_PT_
          38 .eh_frame$_ZNSt16allocator_traitsISaIPN3zmq11io_thread_tEEE8allocateERS3_j
          38 .eh_frame$_ZNSt16allocator_traitsISaIPN3zmq11io_thread_tEEE8max_sizeERKS3_
          38 .eh_frame$_ZNSt16allocator_traitsISaIPN3zmq11io_thread_tEEE9constructIS2_JRKS2_EEEDTcl12_S_constructfp_fp0_spcl7forwardIT0_Efp1_EEERS3_PT_DpOS8_
          38 .eh_frame$_ZNSt16allocator_traitsISaIPN3zmq13socket_base_tEEE10_S_destroyIS2_EENSt9enable_ifIXsrSt6__and_IJNS4_16__destroy_helperIT_E4typeEEE5valueEvE4typeERS3_PS9_
          38 .eh_frame$_ZNSt16allocator_traitsISaIPN3zmq13socket_base_tEEE10deallocateERS3_PS2_j
          38 .eh_frame$_ZNSt16allocator_traitsISaIPN3zmq13socket_base_tEEE11_S_max_sizeIKS3_vEEjRT_i
          38 .eh_frame$_ZNSt16allocator_traitsISaIPN3zmq13socket_base_tEEE12_S_constructIS2_JRKS2_EEENSt9enable_ifIXsrSt6__and_IJNS4_18__construct_helperIT_JDpT0_EE4typeEEE5valueEvE4typeERS3_PSB_DpOSC_
          38 .eh_frame$_ZNSt16allocator_traitsISaIPN3zmq13socket_base_tEEE7destroyIS2_EEvRS3_PT_
          38 .eh_frame$_ZNSt16allocator_traitsISaIPN3zmq13socket_base_tEEE8allocateERS3_j
          38 .eh_frame$_ZNSt16allocator_traitsISaIPN3zmq13socket_base_tEEE8max_sizeERKS3_
          38 .eh_frame$_ZNSt16allocator_traitsISaIPN3zmq13socket_base_tEEE9constructIS2_JRKS2_EEEDTcl12_S_constructfp_fp0_spcl7forwardIT0_Efp1_EEERS3_PT_DpOS8_
          38 .eh_frame$_ZNSt16allocator_traitsISaIPN3zmq6blob_tEEE10deallocateERS3_PS2_j
          38 .eh_frame$_ZNSt16allocator_traitsISaIPN3zmq6blob_tEEE8allocateERS3_j
         150 .eh_frame$_ZNSt16allocator_traitsISaIPN3zmq6pipe_tEEE10_S_destroyIS2_EENSt9enable_ifIXsrSt6__and_IJNS4_16__destroy_helperIT_E4typeEEE5valueEvE4typeERS3_PS9_
         150 .eh_frame$_ZNSt16allocator_traitsISaIPN3zmq6pipe_tEEE10deallocateERS3_PS2_j
         118 .eh_frame$_ZNSt16allocator_traitsISaIPN3zmq6pipe_tEEE11_S_max_sizeIKS3_vEEjRT_i
         150 .eh_frame$_ZNSt16allocator_traitsISaIPN3zmq6pipe_tEEE12_S_constructIS2_JRKS2_EEENSt9enable_ifIXsrSt6__and_IJNS4_18__construct_helperIT_JDpT0_EE4typeEEE5valueEvE4typeERS3_PSB_DpOSC_
          38 .eh_frame$_ZNSt16allocator_traitsISaIPN3zmq6pipe_tEEE12_S_constructIS2_JS2_EEENSt9enable_ifIXsrSt6__and_IJNS4_18__construct_helperIT_JDpT0_EE4typeEEE5valueEvE4typeERS3_PS9_DpOSA_
         150 .eh_frame$_ZNSt16allocator_traitsISaIPN3zmq6pipe_tEEE7destroyIS2_EEvRS3_PT_
         150 .eh_frame$_ZNSt16allocator_traitsISaIPN3zmq6pipe_tEEE8allocateERS3_j
         118 .eh_frame$_ZNSt16allocator_traitsISaIPN3zmq6pipe_tEEE8max_sizeERKS3_
         150 .eh_frame$_ZNSt16allocator_traitsISaIPN3zmq6pipe_tEEE9constructIS2_JRKS2_EEEDTcl12_S_constructfp_fp0_spcl7forwardIT0_Efp1_EEERS3_PT_DpOS8_
          38 .eh_frame$_ZNSt16allocator_traitsISaIPN3zmq6pipe_tEEE9constructIS2_JS2_EEEDTcl12_S_constructfp_fp0_spcl7forwardIT0_Efp1_EEERS3_PT_DpOS6_
          38 .eh_frame$_ZNSt16allocator_traitsISaIPN3zmq9i_mailboxEEE10deallocateERS3_PS2_j
          38 .eh_frame$_ZNSt16allocator_traitsISaIPN3zmq9i_mailboxEEE11_S_max_sizeIKS3_vEEjRT_i
          38 .eh_frame$_ZNSt16allocator_traitsISaIPN3zmq9i_mailboxEEE8allocateERS3_j
          38 .eh_frame$_ZNSt16allocator_traitsISaIPN3zmq9i_mailboxEEE8max_sizeERKS3_
          38 .eh_frame$_ZNSt16allocator_traitsISaIPPN3zmq10metadata_tEEE10deallocateERS4_PS3_j
          38 .eh_frame$_ZNSt16allocator_traitsISaIPPN3zmq10metadata_tEEE8allocateERS4_j
          38 .eh_frame$_ZNSt16allocator_traitsISaIPPN3zmq6pipe_tEEE10deallocateERS4_PS3_j
          38 .eh_frame$_ZNSt16allocator_traitsISaIPPN3zmq6pipe_tEEE8allocateERS4_j
          38 .eh_frame$_ZNSt16allocator_traitsISaIPhEE10deallocateERS1_PS0_j
          38 .eh_frame$_ZNSt16allocator_traitsISaIPhEE8allocateERS1_j
          38 .eh_frame$_ZNSt16allocator_traitsISaISt13_Rb_tree_nodeINSt7__cxx1112basic_stringIcSt11char_traitsIcESaIcEEEEEE10_S_destroyIS6_EENSt9enable_ifIXsrSt6__and_IJNS9_16__destroy_helperIT_E4typeEEE5valueEvE4typeERS8_PSE_
          38 .eh_frame$_ZNSt16allocator_traitsISaISt13_Rb_tree_nodeINSt7__cxx1112basic_stringIcSt11char_traitsIcESaIcEEEEEE10deallocateERS8_PS7_j
          38 .eh_frame$_ZNSt16allocator_traitsISaISt13_Rb_tree_nodeINSt7__cxx1112basic_stringIcSt11char_traitsIcESaIcEEEEEE12_S_constructIS6_JRKS6_EEENSt9enable_ifIXsrSt6__and_IJNS9_18__construct_helperIT_JDpT0_EE4typeEEE5valueEvE4typeERS8_PSG_DpOSH_
          38 .eh_frame$_ZNSt16allocator_traitsISaISt13_Rb_tree_nodeINSt7__cxx1112basic_stringIcSt11char_traitsIcESaIcEEEEEE7destroyIS6_EEvRS8_PT_
          38 .eh_frame$_ZNSt16allocator_traitsISaISt13_Rb_tree_nodeINSt7__cxx1112basic_stringIcSt11char_traitsIcESaIcEEEEEE8allocateERS8_j
          38 .eh_frame$_ZNSt16allocator_traitsISaISt13_Rb_tree_nodeINSt7__cxx1112basic_stringIcSt11char_traitsIcESaIcEEEEEE9constructIS6_JRKS6_EEEDTcl12_S_constructfp_fp0_spcl7forwardIT0_Efp1_EEERS8_PT_DpOSD_
          38 .eh_frame$_ZNSt16allocator_traitsISaISt13_Rb_tree_nodeIPN3zmq5own_tEEEE10_S_destroyIS3_EENSt9enable_ifIXsrSt6__and_IJNS6_16__destroy_helperIT_E4typeEEE5valueEvE4typeERS5_PSB_
          38 .eh_frame$_ZNSt16allocator_traitsISaISt13_Rb_tree_nodeIPN3zmq5own_tEEEE10deallocateERS5_PS4_j
          38 .eh_frame$_ZNSt16allocator_traitsISaISt13_Rb_tree_nodeIPN3zmq5own_tEEEE12_S_constructIS3_JRKS3_EEENSt9enable_ifIXsrSt6__and_IJNS6_18__construct_helperIT_JDpT0_EE4typeEEE5valueEvE4typeERS5_PSD_DpOSE_
          38 .eh_frame$_ZNSt16allocator_traitsISaISt13_Rb_tree_nodeIPN3zmq5own_tEEEE7destroyIS3_EEvRS5_PT_
          38 .eh_frame$_ZNSt16allocator_traitsISaISt13_Rb_tree_nodeIPN3zmq5own_tEEEE8allocateERS5_j
          38 .eh_frame$_ZNSt16allocator_traitsISaISt13_Rb_tree_nodeIPN3zmq5own_tEEEE9constructIS3_JRKS3_EEEDTcl12_S_constructfp_fp0_spcl7forwardIT0_Efp1_EEERS5_PT_DpOSA_
          E0 .eh_frame$_ZNSt16allocator_traitsISaISt13_Rb_tree_nodeIPN3zmq6pipe_tEEEE10_S_destroyIS3_EENSt9enable_ifIXsrSt6__and_IJNS6_16__destroy_helperIT_E4typeEEE5valueEvE4typeERS5_PSB_
          E0 .eh_frame$_ZNSt16allocator_traitsISaISt13_Rb_tree_nodeIPN3zmq6pipe_tEEEE10deallocateERS5_PS4_j
          A8 .eh_frame$_ZNSt16allocator_traitsISaISt13_Rb_tree_nodeIPN3zmq6pipe_tEEEE12_S_constructIS3_JRKS3_EEENSt9enable_ifIXsrSt6__and_IJNS6_18__construct_helperIT_JDpT0_EE4typeEEE5valueEvE4typeERS5_PSD_DpOSE_
          E0 .eh_frame$_ZNSt16allocator_traitsISaISt13_Rb_tree_nodeIPN3zmq6pipe_tEEEE7destroyIS3_EEvRS5_PT_
          A8 .eh_frame$_ZNSt16allocator_traitsISaISt13_Rb_tree_nodeIPN3zmq6pipe_tEEEE8allocateERS5_j
          A8 .eh_frame$_ZNSt16allocator_traitsISaISt13_Rb_tree_nodeIPN3zmq6pipe_tEEEE9constructIS3_JRKS3_EEEDTcl12_S_constructfp_fp0_spcl7forwardIT0_Efp1_EEERS5_PT_DpOSA_
          38 .eh_frame$_ZNSt16allocator_traitsISaISt13_Rb_tree_nodeISt4pairIKN3zmq6blob_tENS2_21routing_socket_base_t10out_pipe_tEEEEE10_S_destroyIS7_EENSt9enable_ifIXsrSt6__and_IJNSA_16__destroy_helperIT_E4typeEEE5valueEvE4typeERS9_PSF_
          38 .eh_frame$_ZNSt16allocator_traitsISaISt13_Rb_tree_nodeISt4pairIKN3zmq6blob_tENS2_21routing_socket_base_t10out_pipe_tEEEEE10deallocateERS9_PS8_j
          3C .eh_frame$_ZNSt16allocator_traitsISaISt13_Rb_tree_nodeISt4pairIKN3zmq6blob_tENS2_21routing_socket_base_t10out_pipe_tEEEEE12_S_constructIS7_JS3_RKS6_EEENSt9enable_ifIXsrSt6__and_IJNSA_18__construct_helperIT_JDpT0_EE4typeEEE5valueEvE4typeERS9_PSH_DpOSI_
          38 .eh_frame$_ZNSt16allocator_traitsISaISt13_Rb_tree_nodeISt4pairIKN3zmq6blob_tENS2_21routing_socket_base_t10out_pipe_tEEEEE7destroyIS7_EEvRS9_PT_
          38 .eh_frame$_ZNSt16allocator_traitsISaISt13_Rb_tree_nodeISt4pairIKN3zmq6blob_tENS2_21routing_socket_base_t10out_pipe_tEEEEE8allocateERS9_j
          3C .eh_frame$_ZNSt16allocator_traitsISaISt13_Rb_tree_nodeISt4pairIKN3zmq6blob_tENS2_21routing_socket_base_t10out_pipe_tEEEEE9constructIS7_JS3_RKS6_EEEDTcl12_S_constructfp_fp0_spcl7forwardIT0_Efp1_EEERS9_PT_DpOSE_
          38 .eh_frame$_ZNSt16allocator_traitsISaISt13_Rb_tree_nodeISt4pairIKNSt7__cxx1112basic_stringIcSt11char_traitsIcESaIcEEEMN3zmq14session_base_tEFPNS9_5own_tEPNS9_11io_thread_tEbEEEEE10_S_destroyISH_EENSt9enable_ifIXsrSt6__and_IJNSK_16__destroy_helperIT_E4typeEEE5valueEvE4typeERSJ_PSP_
          38 .eh_frame$_ZNSt16allocator_traitsISaISt13_Rb_tree_nodeISt4pairIKNSt7__cxx1112basic_stringIcSt11char_traitsIcESaIcEEEMN3zmq14session_base_tEFPNS9_5own_tEPNS9_11io_thread_tEbEEEEE10deallocateERSJ_PSI_j
          38 .eh_frame$_ZNSt16allocator_traitsISaISt13_Rb_tree_nodeISt4pairIKNSt7__cxx1112basic_stringIcSt11char_traitsIcESaIcEEEMN3zmq14session_base_tEFPNS9_5own_tEPNS9_11io_thread_tEbEEEEE12_S_constructISH_JRSH_EEENSt9enable_ifIXsrSt6__and_IJNSK_18__construct_helperIT_JDpT0_EE4typeEEE5valueEvE4typeERSJ_PSQ_DpOSR_
          38 .eh_frame$_ZNSt16allocator_traitsISaISt13_Rb_tree_nodeISt4pairIKNSt7__cxx1112basic_stringIcSt11char_traitsIcESaIcEEEMN3zmq14session_base_tEFPNS9_5own_tEPNS9_11io_thread_tEbEEEEE7destroyISH_EEvRSJ_PT_
          38 .eh_frame$_ZNSt16allocator_traitsISaISt13_Rb_tree_nodeISt4pairIKNSt7__cxx1112basic_stringIcSt11char_traitsIcESaIcEEEMN3zmq14session_base_tEFPNS9_5own_tEPNS9_11io_thread_tEbEEEEE8allocateERSJ_j
          38 .eh_frame$_ZNSt16allocator_traitsISaISt13_Rb_tree_nodeISt4pairIKNSt7__cxx1112basic_stringIcSt11char_traitsIcESaIcEEEMN3zmq14session_base_tEFPNS9_5own_tEPNS9_11io_thread_tEbEEEEE9constructISH_JRSH_EEEDTcl12_S_constructfp_fp0_spcl7forwardIT0_Efp1_EEERSJ_PT_DpOSN_
          38 .eh_frame$_ZNSt16allocator_traitsISaISt13_Rb_tree_nodeISt4pairIKNSt7__cxx1112basic_stringIcSt11char_traitsIcESaIcEEEMN3zmq14session_base_tEFvPNS9_11io_thread_tEEEEEE10_S_destroyISF_EENSt9enable_ifIXsrSt6__and_IJNSI_16__destroy_helperIT_E4typeEEE5valueEvE4typeERSH_PSN_
          38 .eh_frame$_ZNSt16allocator_traitsISaISt13_Rb_tree_nodeISt4pairIKNSt7__cxx1112basic_stringIcSt11char_traitsIcESaIcEEEMN3zmq14session_base_tEFvPNS9_11io_thread_tEEEEEE10deallocateERSH_PSG_j
          38 .eh_frame$_ZNSt16allocator_traitsISaISt13_Rb_tree_nodeISt4pairIKNSt7__cxx1112basic_stringIcSt11char_traitsIcESaIcEEEMN3zmq14session_base_tEFvPNS9_11io_thread_tEEEEEE12_S_constructISF_JRSF_EEENSt9enable_ifIXsrSt6__and_IJNSI_18__construct_helperIT_JDpT0_EE4typeEEE5valueEvE4typeERSH_PSO_DpOSP_
          38 .eh_frame$_ZNSt16allocator_traitsISaISt13_Rb_tree_nodeISt4pairIKNSt7__cxx1112basic_stringIcSt11char_traitsIcESaIcEEEMN3zmq14session_base_tEFvPNS9_11io_thread_tEEEEEE7destroyISF_EEvRSH_PT_
          38 .eh_frame$_ZNSt16allocator_traitsISaISt13_Rb_tree_nodeISt4pairIKNSt7__cxx1112basic_stringIcSt11char_traitsIcESaIcEEEMN3zmq14session_base_tEFvPNS9_11io_thread_tEEEEEE8allocateERSH_j
          38 .eh_frame$_ZNSt16allocator_traitsISaISt13_Rb_tree_nodeISt4pairIKNSt7__cxx1112basic_stringIcSt11char_traitsIcESaIcEEEMN3zmq14session_base_tEFvPNS9_11io_thread_tEEEEEE9constructISF_JRSF_EEEDTcl12_S_constructfp_fp0_spcl7forwardIT0_Efp1_EEERSH_PT_DpOSL_
          38 .eh_frame$_ZNSt16allocator_traitsISaISt13_Rb_tree_nodeISt4pairIKNSt7__cxx1112basic_stringIcSt11char_traitsIcESaIcEEEN3zmq10endpoint_tEEEEE10_S_destroyISB_EENSt9enable_ifIXsrSt6__and_IJNSE_16__destroy_helperIT_E4typeEEE5valueEvE4typeERSD_PSJ_
          38 .eh_frame$_ZNSt16allocator_traitsISaISt13_Rb_tree_nodeISt4pairIKNSt7__cxx1112basic_stringIcSt11char_traitsIcESaIcEEEN3zmq10endpoint_tEEEEE10deallocateERSD_PSC_j
          40 .eh_frame$_ZNSt16allocator_traitsISaISt13_Rb_tree_nodeISt4pairIKNSt7__cxx1112basic_stringIcSt11char_traitsIcESaIcEEEN3zmq10endpoint_tEEEEE12_S_constructISB_JRKSt21piecewise_construct_tSt5tupleIJOS7_EESJ_IJEEEEENSt9enable_ifIXsrSt6__and_IJNSE_18__construct_helperIT_JDpT0_EE4typeEEE5valueEvE4typeERSD_PSQ_DpOSR_
          3C .eh_frame$_ZNSt16allocator_traitsISaISt13_Rb_tree_nodeISt4pairIKNSt7__cxx1112basic_stringIcSt11char_traitsIcESaIcEEEN3zmq10endpoint_tEEEEE12_S_constructISB_JS7_RKSA_EEENSt9enable_ifIXsrSt6__and_IJNSE_18__construct_helperIT_JDpT0_EE4typeEEE5valueEvE4typeERSD_PSL_DpOSM_
          38 .eh_frame$_ZNSt16allocator_traitsISaISt13_Rb_tree_nodeISt4pairIKNSt7__cxx1112basic_stringIcSt11char_traitsIcESaIcEEEN3zmq10endpoint_tEEEEE7destroyISB_EEvRSD_PT_
          38 .eh_frame$_ZNSt16allocator_traitsISaISt13_Rb_tree_nodeISt4pairIKNSt7__cxx1112basic_stringIcSt11char_traitsIcESaIcEEEN3zmq10endpoint_tEEEEE8allocateERSD_j
          40 .eh_frame$_ZNSt16allocator_traitsISaISt13_Rb_tree_nodeISt4pairIKNSt7__cxx1112basic_stringIcSt11char_traitsIcESaIcEEEN3zmq10endpoint_tEEEEE9constructISB_JRKSt21piecewise_construct_tSt5tupleIJOS7_EESJ_IJEEEEEDTcl12_S_constructfp_fp0_spcl7forwardIT0_Efp1_EEERSD_PT_DpOSN_
          3C .eh_frame$_ZNSt16allocator_traitsISaISt13_Rb_tree_nodeISt4pairIKNSt7__cxx1112basic_stringIcSt11char_traitsIcESaIcEEEN3zmq10endpoint_tEEEEE9constructISB_JS7_RKSA_EEEDTcl12_S_constructfp_fp0_spcl7forwardIT0_Efp1_EEERSD_PT_DpOSI_
          38 .eh_frame$_ZNSt16allocator_traitsISaISt13_Rb_tree_nodeISt4pairIKNSt7__cxx1112basic_stringIcSt11char_traitsIcESaIcEEEN3zmq5ctx_t20pending_connection_tEEEEE10_S_destroyISC_EENSt9enable_ifIXsrSt6__and_IJNSF_16__destroy_helperIT_E4typeEEE5valueEvE4typeERSE_PSK_
          38 .eh_frame$_ZNSt16allocator_traitsISaISt13_Rb_tree_nodeISt4pairIKNSt7__cxx1112basic_stringIcSt11char_traitsIcESaIcEEEN3zmq5ctx_t20pending_connection_tEEEEE10deallocateERSE_PSD_j
          38 .eh_frame$_ZNSt16allocator_traitsISaISt13_Rb_tree_nodeISt4pairIKNSt7__cxx1112basic_stringIcSt11char_traitsIcESaIcEEEN3zmq5ctx_t20pending_connection_tEEEEE12_S_constructISC_JRKSC_EEENSt9enable_ifIXsrSt6__and_IJNSF_18__construct_helperIT_JDpT0_EE4typeEEE5valueEvE4typeERSE_PSM_DpOSN_
          3C .eh_frame$_ZNSt16allocator_traitsISaISt13_Rb_tree_nodeISt4pairIKNSt7__cxx1112basic_stringIcSt11char_traitsIcESaIcEEEN3zmq5ctx_t20pending_connection_tEEEEE12_S_constructISC_JRS8_RKSB_EEENSt9enable_ifIXsrSt6__and_IJNSF_18__construct_helperIT_JDpT0_EE4typeEEE5valueEvE4typeERSE_PSN_DpOSO_
          38 .eh_frame$_ZNSt16allocator_traitsISaISt13_Rb_tree_nodeISt4pairIKNSt7__cxx1112basic_stringIcSt11char_traitsIcESaIcEEEN3zmq5ctx_t20pending_connection_tEEEEE37select_on_container_copy_constructionERKSE_
          38 .eh_frame$_ZNSt16allocator_traitsISaISt13_Rb_tree_nodeISt4pairIKNSt7__cxx1112basic_stringIcSt11char_traitsIcESaIcEEEN3zmq5ctx_t20pending_connection_tEEEEE7destroyISC_EEvRSE_PT_
          38 .eh_frame$_ZNSt16allocator_traitsISaISt13_Rb_tree_nodeISt4pairIKNSt7__cxx1112basic_stringIcSt11char_traitsIcESaIcEEEN3zmq5ctx_t20pending_connection_tEEEEE8allocateERSE_j
          38 .eh_frame$_ZNSt16allocator_traitsISaISt13_Rb_tree_nodeISt4pairIKNSt7__cxx1112basic_stringIcSt11char_traitsIcESaIcEEEN3zmq5ctx_t20pending_connection_tEEEEE9_S_selectIKSE_vEET_RSI_z
          38 .eh_frame$_ZNSt16allocator_traitsISaISt13_Rb_tree_nodeISt4pairIKNSt7__cxx1112basic_stringIcSt11char_traitsIcESaIcEEEN3zmq5ctx_t20pending_connection_tEEEEE9constructISC_JRKSC_EEEDTcl12_S_constructfp_fp0_spcl7forwardIT0_Efp1_EEERSE_PT_DpOSJ_
          3C .eh_frame$_ZNSt16allocator_traitsISaISt13_Rb_tree_nodeISt4pairIKNSt7__cxx1112basic_stringIcSt11char_traitsIcESaIcEEEN3zmq5ctx_t20pending_connection_tEEEEE9constructISC_JRS8_RKSB_EEEDTcl12_S_constructfp_fp0_spcl7forwardIT0_Efp1_EEERSE_PT_DpOSK_
          70 .eh_frame$_ZNSt16allocator_traitsISaISt13_Rb_tree_nodeISt4pairIKNSt7__cxx1112basic_stringIcSt11char_traitsIcESaIcEEEPN3zmq6pipe_tEEEEE10_S_destroyISC_EENSt9enable_ifIXsrSt6__and_IJNSF_16__destroy_helperIT_E4typeEEE5valueEvE4typeERSE_PSK_
          70 .eh_frame$_ZNSt16allocator_traitsISaISt13_Rb_tree_nodeISt4pairIKNSt7__cxx1112basic_stringIcSt11char_traitsIcESaIcEEEPN3zmq6pipe_tEEEEE10deallocateERSE_PSD_j
          78 .eh_frame$_ZNSt16allocator_traitsISaISt13_Rb_tree_nodeISt4pairIKNSt7__cxx1112basic_stringIcSt11char_traitsIcESaIcEEEPN3zmq6pipe_tEEEEE12_S_constructISC_JS7_RSB_EEENSt9enable_ifIXsrSt6__and_IJNSF_18__construct_helperIT_JDpT0_EE4typeEEE5valueEvE4typeERSE_PSL_DpOSM_
          70 .eh_frame$_ZNSt16allocator_traitsISaISt13_Rb_tree_nodeISt4pairIKNSt7__cxx1112basic_stringIcSt11char_traitsIcESaIcEEEPN3zmq6pipe_tEEEEE7destroyISC_EEvRSE_PT_
          70 .eh_frame$_ZNSt16allocator_traitsISaISt13_Rb_tree_nodeISt4pairIKNSt7__cxx1112basic_stringIcSt11char_traitsIcESaIcEEEPN3zmq6pipe_tEEEEE8allocateERSE_j
          78 .eh_frame$_ZNSt16allocator_traitsISaISt13_Rb_tree_nodeISt4pairIKNSt7__cxx1112basic_stringIcSt11char_traitsIcESaIcEEEPN3zmq6pipe_tEEEEE9constructISC_JS7_RSB_EEEDTcl12_S_constructfp_fp0_spcl7forwardIT0_Efp1_EEERSE_PT_DpOSI_
          38 .eh_frame$_ZNSt16allocator_traitsISaISt13_Rb_tree_nodeISt4pairIKNSt7__cxx1112basic_stringIcSt11char_traitsIcESaIcEEES1_IPN3zmq5own_tEPNS9_6pipe_tEEEEEE10_S_destroyISF_EENSt9enable_ifIXsrSt6__and_IJNSI_16__destroy_helperIT_E4typeEEE5valueEvE4typeERSH_PSN_
          38 .eh_frame$_ZNSt16allocator_traitsISaISt13_Rb_tree_nodeISt4pairIKNSt7__cxx1112basic_stringIcSt11char_traitsIcESaIcEEES1_IPN3zmq5own_tEPNS9_6pipe_tEEEEEE10deallocateERSH_PSG_j
          3C .eh_frame$_ZNSt16allocator_traitsISaISt13_Rb_tree_nodeISt4pairIKNSt7__cxx1112basic_stringIcSt11char_traitsIcESaIcEEES1_IPN3zmq5own_tEPNS9_6pipe_tEEEEEE12_S_constructISF_JRS8_SE_EEENSt9enable_ifIXsrSt6__and_IJNSI_18__construct_helperIT_JDpT0_EE4typeEEE5valueEvE4typeERSH_PSO_DpOSP_
          38 .eh_frame$_ZNSt16allocator_traitsISaISt13_Rb_tree_nodeISt4pairIKNSt7__cxx1112basic_stringIcSt11char_traitsIcESaIcEEES1_IPN3zmq5own_tEPNS9_6pipe_tEEEEEE7destroyISF_EEvRSH_PT_
          38 .eh_frame$_ZNSt16allocator_traitsISaISt13_Rb_tree_nodeISt4pairIKNSt7__cxx1112basic_stringIcSt11char_traitsIcESaIcEEES1_IPN3zmq5own_tEPNS9_6pipe_tEEEEEE8allocateERSH_j
          3C .eh_frame$_ZNSt16allocator_traitsISaISt13_Rb_tree_nodeISt4pairIKNSt7__cxx1112basic_stringIcSt11char_traitsIcESaIcEEES1_IPN3zmq5own_tEPNS9_6pipe_tEEEEEE9constructISF_JRS8_SE_EEEDTcl12_S_constructfp_fp0_spcl7forwardIT0_Efp1_EEERSH_PT_DpOSL_
         230 .eh_frame$_ZNSt16allocator_traitsISaISt13_Rb_tree_nodeISt4pairIKNSt7__cxx1112basic_stringIcSt11char_traitsIcESaIcEEES7_EEEE10_S_destroyIS9_EENSt9enable_ifIXsrSt6__and_IJNSC_16__destroy_helperIT_E4typeEEE5valueEvE4typeERSB_PSH_
         268 .eh_frame$_ZNSt16allocator_traitsISaISt13_Rb_tree_nodeISt4pairIKNSt7__cxx1112basic_stringIcSt11char_traitsIcESaIcEEES7_EEEE10deallocateERSB_PSA_j
         188 .eh_frame$_ZNSt16allocator_traitsISaISt13_Rb_tree_nodeISt4pairIKNSt7__cxx1112basic_stringIcSt11char_traitsIcESaIcEEES7_EEEE12_S_constructIS9_JRKS9_EEENSt9enable_ifIXsrSt6__and_IJNSC_18__construct_helperIT_JDpT0_EE4typeEEE5valueEvE4typeERSB_PSJ_DpOSK_
          3C .eh_frame$_ZNSt16allocator_traitsISaISt13_Rb_tree_nodeISt4pairIKNSt7__cxx1112basic_stringIcSt11char_traitsIcESaIcEEES7_EEEE12_S_constructIS9_JRS8_S7_EEENSt9enable_ifIXsrSt6__and_IJNSC_18__construct_helperIT_JDpT0_EE4typeEEE5valueEvE4typeERSB_PSI_DpOSJ_
          38 .eh_frame$_ZNSt16allocator_traitsISaISt13_Rb_tree_nodeISt4pairIKNSt7__cxx1112basic_stringIcSt11char_traitsIcESaIcEEES7_EEEE12_S_constructIS9_JS1_IS7_S7_EEEENSt9enable_ifIXsrSt6__and_IJNSC_18__construct_helperIT_JDpT0_EE4typeEEE5valueEvE4typeERSB_PSI_DpOSJ_
          3C .eh_frame$_ZNSt16allocator_traitsISaISt13_Rb_tree_nodeISt4pairIKNSt7__cxx1112basic_stringIcSt11char_traitsIcESaIcEEES7_EEEE12_S_constructIS9_JS7_RS8_EEENSt9enable_ifIXsrSt6__and_IJNSC_18__construct_helperIT_JDpT0_EE4typeEEE5valueEvE4typeERSB_PSI_DpOSJ_
          78 .eh_frame$_ZNSt16allocator_traitsISaISt13_Rb_tree_nodeISt4pairIKNSt7__cxx1112basic_stringIcSt11char_traitsIcESaIcEEES7_EEEE12_S_constructIS9_JS7_S7_EEENSt9enable_ifIXsrSt6__and_IJNSC_18__construct_helperIT_JDpT0_EE4typeEEE5valueEvE4typeERSB_PSH_DpOSI_
         188 .eh_frame$_ZNSt16allocator_traitsISaISt13_Rb_tree_nodeISt4pairIKNSt7__cxx1112basic_stringIcSt11char_traitsIcESaIcEEES7_EEEE37select_on_container_copy_constructionERKSB_
         230 .eh_frame$_ZNSt16allocator_traitsISaISt13_Rb_tree_nodeISt4pairIKNSt7__cxx1112basic_stringIcSt11char_traitsIcESaIcEEES7_EEEE7destroyIS9_EEvRSB_PT_
         1C0 .eh_frame$_ZNSt16allocator_traitsISaISt13_Rb_tree_nodeISt4pairIKNSt7__cxx1112basic_stringIcSt11char_traitsIcESaIcEEES7_EEEE8allocateERSB_j
         188 .eh_frame$_ZNSt16allocator_traitsISaISt13_Rb_tree_nodeISt4pairIKNSt7__cxx1112basic_stringIcSt11char_traitsIcESaIcEEES7_EEEE9_S_selectIKSB_vEET_RSF_z
         188 .eh_frame$_ZNSt16allocator_traitsISaISt13_Rb_tree_nodeISt4pairIKNSt7__cxx1112basic_stringIcSt11char_traitsIcESaIcEEES7_EEEE9constructIS9_JRKS9_EEEDTcl12_S_constructfp_fp0_spcl7forwardIT0_Efp1_EEERSB_PT_DpOSG_
          3C .eh_frame$_ZNSt16allocator_traitsISaISt13_Rb_tree_nodeISt4pairIKNSt7__cxx1112basic_stringIcSt11char_traitsIcESaIcEEES7_EEEE9constructIS9_JRS8_S7_EEEDTcl12_S_constructfp_fp0_spcl7forwardIT0_Efp1_EEERSB_PT_DpOSF_
          38 .eh_frame$_ZNSt16allocator_traitsISaISt13_Rb_tree_nodeISt4pairIKNSt7__cxx1112basic_stringIcSt11char_traitsIcESaIcEEES7_EEEE9constructIS9_JS1_IS7_S7_EEEEDTcl12_S_constructfp_fp0_spcl7forwardIT0_Efp1_EEERSB_PT_DpOSF_
          3C .eh_frame$_ZNSt16allocator_traitsISaISt13_Rb_tree_nodeISt4pairIKNSt7__cxx1112basic_stringIcSt11char_traitsIcESaIcEEES7_EEEE9constructIS9_JS7_RS8_EEEDTcl12_S_constructfp_fp0_spcl7forwardIT0_Efp1_EEERSB_PT_DpOSF_
          78 .eh_frame$_ZNSt16allocator_traitsISaISt13_Rb_tree_nodeISt4pairIKNSt7__cxx1112basic_stringIcSt11char_traitsIcESaIcEEES7_EEEE9constructIS9_JS7_S7_EEEDTcl12_S_constructfp_fp0_spcl7forwardIT0_Efp1_EEERSB_PT_DpOSE_
          38 .eh_frame$_ZNSt16allocator_traitsISaISt13_Rb_tree_nodeISt4pairIKjN3zmq8server_t9outpipe_tEEEEE10_S_destroyIS6_EENSt9enable_ifIXsrSt6__and_IJNS9_16__destroy_helperIT_E4typeEEE5valueEvE4typeERS8_PSE_
          38 .eh_frame$_ZNSt16allocator_traitsISaISt13_Rb_tree_nodeISt4pairIKjN3zmq8server_t9outpipe_tEEEEE10deallocateERS8_PS7_j
          3C .eh_frame$_ZNSt16allocator_traitsISaISt13_Rb_tree_nodeISt4pairIKjN3zmq8server_t9outpipe_tEEEEE12_S_constructIS6_JRjRS5_EEENSt9enable_ifIXsrSt6__and_IJNS9_18__construct_helperIT_JDpT0_EE4typeEEE5valueEvE4typeERS8_PSG_DpOSH_
          38 .eh_frame$_ZNSt16allocator_traitsISaISt13_Rb_tree_nodeISt4pairIKjN3zmq8server_t9outpipe_tEEEEE7destroyIS6_EEvRS8_PT_
          38 .eh_frame$_ZNSt16allocator_traitsISaISt13_Rb_tree_nodeISt4pairIKjN3zmq8server_t9outpipe_tEEEEE8allocateERS8_j
          3C .eh_frame$_ZNSt16allocator_traitsISaISt13_Rb_tree_nodeISt4pairIKjN3zmq8server_t9outpipe_tEEEEE9constructIS6_JRjRS5_EEEDTcl12_S_constructfp_fp0_spcl7forwardIT0_Efp1_EEERS8_PT_DpOSD_
          38 .eh_frame$_ZNSt16allocator_traitsISaISt13_Rb_tree_nodeISt4pairIKtN3zmq8select_t14family_entry_tEEEEE10_S_destroyIS6_EENSt9enable_ifIXsrSt6__and_IJNS9_16__destroy_helperIT_E4typeEEE5valueEvE4typeERS8_PSE_
          38 .eh_frame$_ZNSt16allocator_traitsISaISt13_Rb_tree_nodeISt4pairIKtN3zmq8select_t14family_entry_tEEEEE10deallocateERS8_PS7_j
          40 .eh_frame$_ZNSt16allocator_traitsISaISt13_Rb_tree_nodeISt4pairIKtN3zmq8select_t14family_entry_tEEEEE12_S_constructIS6_JRKSt21piecewise_construct_tSt5tupleIJRS2_EESE_IJEEEEENSt9enable_ifIXsrSt6__and_IJNS9_18__construct_helperIT_JDpT0_EE4typeEEE5valueEvE4typeERS8_PSL_DpOSM_
          38 .eh_frame$_ZNSt16allocator_traitsISaISt13_Rb_tree_nodeISt4pairIKtN3zmq8select_t14family_entry_tEEEEE7destroyIS6_EEvRS8_PT_
          38 .eh_frame$_ZNSt16allocator_traitsISaISt13_Rb_tree_nodeISt4pairIKtN3zmq8select_t14family_entry_tEEEEE8allocateERS8_j
          40 .eh_frame$_ZNSt16allocator_traitsISaISt13_Rb_tree_nodeISt4pairIKtN3zmq8select_t14family_entry_tEEEEE9constructIS6_JRKSt21piecewise_construct_tSt5tupleIJRS2_EESE_IJEEEEEDTcl12_S_constructfp_fp0_spcl7forwardIT0_Efp1_EEERS8_PT_DpOSI_
          38 .eh_frame$_ZNSt16allocator_traitsISaISt13_Rb_tree_nodeISt4pairIKyN3zmq13poller_base_t12timer_info_tEEEEE10_S_destroyIS6_EENSt9enable_ifIXsrSt6__and_IJNS9_16__destroy_helperIT_E4typeEEE5valueEvE4typeERS8_PSE_
          38 .eh_frame$_ZNSt16allocator_traitsISaISt13_Rb_tree_nodeISt4pairIKyN3zmq13poller_base_t12timer_info_tEEEEE10deallocateERS8_PS7_j
          38 .eh_frame$_ZNSt16allocator_traitsISaISt13_Rb_tree_nodeISt4pairIKyN3zmq13poller_base_t12timer_info_tEEEEE12_S_constructIS6_JS6_EEENSt9enable_ifIXsrSt6__and_IJNS9_18__construct_helperIT_JDpT0_EE4typeEEE5valueEvE4typeERS8_PSE_DpOSF_
          38 .eh_frame$_ZNSt16allocator_traitsISaISt13_Rb_tree_nodeISt4pairIKyN3zmq13poller_base_t12timer_info_tEEEEE7destroyIS6_EEvRS8_PT_
          38 .eh_frame$_ZNSt16allocator_traitsISaISt13_Rb_tree_nodeISt4pairIKyN3zmq13poller_base_t12timer_info_tEEEEE8allocateERS8_j
          38 .eh_frame$_ZNSt16allocator_traitsISaISt13_Rb_tree_nodeISt4pairIKyN3zmq13poller_base_t12timer_info_tEEEEE9constructIS6_JS6_EEEDTcl12_S_constructfp_fp0_spcl7forwardIT0_Efp1_EEERS8_PT_DpOSB_
          38 .eh_frame$_ZNSt16allocator_traitsISaISt13_Rb_tree_nodeISt4pairIKyN3zmq8timers_t7timer_tEEEEE10_S_destroyIS6_EENSt9enable_ifIXsrSt6__and_IJNS9_16__destroy_helperIT_E4typeEEE5valueEvE4typeERS8_PSE_
          38 .eh_frame$_ZNSt16allocator_traitsISaISt13_Rb_tree_nodeISt4pairIKyN3zmq8timers_t7timer_tEEEEE10deallocateERS8_PS7_j
          38 .eh_frame$_ZNSt16allocator_traitsISaISt13_Rb_tree_nodeISt4pairIKyN3zmq8timers_t7timer_tEEEEE12_S_constructIS6_JS6_EEENSt9enable_ifIXsrSt6__and_IJNS9_18__construct_helperIT_JDpT0_EE4typeEEE5valueEvE4typeERS8_PSE_DpOSF_
          38 .eh_frame$_ZNSt16allocator_traitsISaISt13_Rb_tree_nodeISt4pairIKyN3zmq8timers_t7timer_tEEEEE7destroyIS6_EEvRS8_PT_
          38 .eh_frame$_ZNSt16allocator_traitsISaISt13_Rb_tree_nodeISt4pairIKyN3zmq8timers_t7timer_tEEEEE8allocateERS8_j
          38 .eh_frame$_ZNSt16allocator_traitsISaISt13_Rb_tree_nodeISt4pairIKyN3zmq8timers_t7timer_tEEEEE9constructIS6_JS6_EEEDTcl12_S_constructfp_fp0_spcl7forwardIT0_Efp1_EEERS8_PT_DpOSB_
          E0 .eh_frame$_ZNSt16allocator_traitsISaISt13_Rb_tree_nodeIiEEE10_S_destroyIiEENSt9enable_ifIXsrSt6__and_IJNS3_16__destroy_helperIT_E4typeEEE5valueEvE4typeERS2_PS8_
          E0 .eh_frame$_ZNSt16allocator_traitsISaISt13_Rb_tree_nodeIiEEE10deallocateERS2_PS1_j
          70 .eh_frame$_ZNSt16allocator_traitsISaISt13_Rb_tree_nodeIiEEE12_S_constructIiJRKiEEENSt9enable_ifIXsrSt6__and_IJNS3_18__construct_helperIT_JDpT0_EE4typeEEE5valueEvE4typeERS2_PSA_DpOSB_
          E0 .eh_frame$_ZNSt16allocator_traitsISaISt13_Rb_tree_nodeIiEEE7destroyIiEEvRS2_PT_
          70 .eh_frame$_ZNSt16allocator_traitsISaISt13_Rb_tree_nodeIiEEE8allocateERS2_j
          70 .eh_frame$_ZNSt16allocator_traitsISaISt13_Rb_tree_nodeIiEEE9constructIiJRKiEEEDTcl12_S_constructfp_fp0_spcl7forwardIT0_Efp1_EEERS2_PT_DpOS7_
          38 .eh_frame$_ZNSt16allocator_traitsISaISt23_Sp_counted_ptr_inplaceISt5mutexSaIS1_ELN9__gnu_cxx12_Lock_policyE2EEEE10deallocateERS6_PS5_j
          38 .eh_frame$_ZNSt16allocator_traitsISaISt23_Sp_counted_ptr_inplaceISt5mutexSaIS1_ELN9__gnu_cxx12_Lock_policyE2EEEE8allocateERS6_j
          38 .eh_frame$_ZNSt16allocator_traitsISaISt5mutexEE10_S_destroyIS0_EENSt9enable_ifIXsrSt6__and_IJNS2_16__destroy_helperIT_E4typeEEE5valueEvE4typeERS1_PS7_
          38 .eh_frame$_ZNSt16allocator_traitsISaISt5mutexEE12_S_constructIS0_JEEENSt9enable_ifIXsrSt6__and_IJNS2_18__construct_helperIT_JDpT0_EE4typeEEE5valueEvE4typeERS1_PS7_DpOS8_
          38 .eh_frame$_ZNSt16allocator_traitsISaISt5mutexEE7destroyIS0_EEvRS1_PT_
          38 .eh_frame$_ZNSt16allocator_traitsISaISt5mutexEE9constructIS0_JEEEDTcl12_S_constructfp_fp0_spcl7forwardIT0_Efp1_EEERS1_PT_DpOS4_
          70 .eh_frame$_ZNSt16allocator_traitsISaIhEE10_S_destroyIhEENSt9enable_ifIXsrSt6__and_IJNS1_16__destroy_helperIT_E4typeEEE5valueEvE4typeERS0_PS6_
         118 .eh_frame$_ZNSt16allocator_traitsISaIhEE10deallocateERS0_Phj
          38 .eh_frame$_ZNSt16allocator_traitsISaIhEE11_S_max_sizeIKS0_vEEjRT_i
          38 .eh_frame$_ZNSt16allocator_traitsISaIhEE12_S_constructIhJRKhEEENSt9enable_ifIXsrSt6__and_IJNS1_18__construct_helperIT_JDpT0_EE4typeEEE5valueEvE4typeERS0_PS8_DpOS9_
          38 .eh_frame$_ZNSt16allocator_traitsISaIhEE12_S_constructIhJhEEENSt9enable_ifIXsrSt6__and_IJNS1_18__construct_helperIT_JDpT0_EE4typeEEE5valueEvE4typeERS0_PS6_DpOS7_
          70 .eh_frame$_ZNSt16allocator_traitsISaIhEE7destroyIhEEvRS0_PT_
         118 .eh_frame$_ZNSt16allocator_traitsISaIhEE8allocateERS0_j
          38 .eh_frame$_ZNSt16allocator_traitsISaIhEE8max_sizeERKS0_
          38 .eh_frame$_ZNSt16allocator_traitsISaIhEE9constructIhJRKhEEEDTcl12_S_constructfp_fp0_spcl7forwardIT0_Efp1_EEERS0_PT_DpOS5_
          38 .eh_frame$_ZNSt16allocator_traitsISaIhEE9constructIhJhEEEDTcl12_S_constructfp_fp0_spcl7forwardIT0_Efp1_EEERS0_PT_DpOS3_
          38 .eh_frame$_ZNSt16allocator_traitsISaIjEE10_S_destroyIjEENSt9enable_ifIXsrSt6__and_IJNS1_16__destroy_helperIT_E4typeEEE5valueEvE4typeERS0_PS6_
          70 .eh_frame$_ZNSt16allocator_traitsISaIjEE10deallocateERS0_Pjj
          70 .eh_frame$_ZNSt16allocator_traitsISaIjEE11_S_max_sizeIKS0_vEEjRT_i
          38 .eh_frame$_ZNSt16allocator_traitsISaIjEE12_S_constructIjJRKjEEENSt9enable_ifIXsrSt6__and_IJNS1_18__construct_helperIT_JDpT0_EE4typeEEE5valueEvE4typeERS0_PS8_DpOS9_
          38 .eh_frame$_ZNSt16allocator_traitsISaIjEE12_S_constructIjJjEEENSt9enable_ifIXsrSt6__and_IJNS1_18__construct_helperIT_JDpT0_EE4typeEEE5valueEvE4typeERS0_PS6_DpOS7_
          38 .eh_frame$_ZNSt16allocator_traitsISaIjEE7destroyIjEEvRS0_PT_
          70 .eh_frame$_ZNSt16allocator_traitsISaIjEE8allocateERS0_j
          70 .eh_frame$_ZNSt16allocator_traitsISaIjEE8max_sizeERKS0_
          38 .eh_frame$_ZNSt16allocator_traitsISaIjEE9constructIjJRKjEEEDTcl12_S_constructfp_fp0_spcl7forwardIT0_Efp1_EEERS0_PT_DpOS5_
          38 .eh_frame$_ZNSt16allocator_traitsISaIjEE9constructIjJjEEEDTcl12_S_constructfp_fp0_spcl7forwardIT0_Efp1_EEERS0_PT_DpOS3_
          38 .eh_frame$_ZNSt17_Rb_tree_iteratorINSt7__cxx1112basic_stringIcSt11char_traitsIcESaIcEEEEC1EPSt18_Rb_tree_node_base
          38 .eh_frame$_ZNSt17_Rb_tree_iteratorINSt7__cxx1112basic_stringIcSt11char_traitsIcESaIcEEEEmmEv
          38 .eh_frame$_ZNSt17_Rb_tree_iteratorIPN3zmq5own_tEEC1EPSt18_Rb_tree_node_base
          38 .eh_frame$_ZNSt17_Rb_tree_iteratorIPN3zmq5own_tEEmmEv
          E0 .eh_frame$_ZNSt17_Rb_tree_iteratorIPN3zmq6pipe_tEEC1EPSt18_Rb_tree_node_base
          A8 .eh_frame$_ZNSt17_Rb_tree_iteratorIPN3zmq6pipe_tEEmmEv
          70 .eh_frame$_ZNSt17_Rb_tree_iteratorISt4pairIKN3zmq6blob_tENS1_21routing_socket_base_t10out_pipe_tEEEC1EPSt18_Rb_tree_node_base
          38 .eh_frame$_ZNSt17_Rb_tree_iteratorISt4pairIKN3zmq6blob_tENS1_21routing_socket_base_t10out_pipe_tEEEC1Ev
          38 .eh_frame$_ZNSt17_Rb_tree_iteratorISt4pairIKN3zmq6blob_tENS1_21routing_socket_base_t10out_pipe_tEEEmmEv
          70 .eh_frame$_ZNSt17_Rb_tree_iteratorISt4pairIKN3zmq6blob_tENS1_21routing_socket_base_t10out_pipe_tEEEppEv
          38 .eh_frame$_ZNSt17_Rb_tree_iteratorISt4pairIKNSt7__cxx1112basic_stringIcSt11char_traitsIcESaIcEEEMN3zmq14session_base_tEFPNS8_5own_tEPNS8_11io_thread_tEbEEEC1EPSt18_Rb_tree_node_base
          38 .eh_frame$_ZNSt17_Rb_tree_iteratorISt4pairIKNSt7__cxx1112basic_stringIcSt11char_traitsIcESaIcEEEMN3zmq14session_base_tEFPNS8_5own_tEPNS8_11io_thread_tEbEEEmmEv
          38 .eh_frame$_ZNSt17_Rb_tree_iteratorISt4pairIKNSt7__cxx1112basic_stringIcSt11char_traitsIcESaIcEEEMN3zmq14session_base_tEFPNS8_5own_tEPNS8_11io_thread_tEbEEEppEv
          38 .eh_frame$_ZNSt17_Rb_tree_iteratorISt4pairIKNSt7__cxx1112basic_stringIcSt11char_traitsIcESaIcEEEMN3zmq14session_base_tEFvPNS8_11io_thread_tEEEEC1EPSt18_Rb_tree_node_base
          38 .eh_frame$_ZNSt17_Rb_tree_iteratorISt4pairIKNSt7__cxx1112basic_stringIcSt11char_traitsIcESaIcEEEMN3zmq14session_base_tEFvPNS8_11io_thread_tEEEEmmEv
          38 .eh_frame$_ZNSt17_Rb_tree_iteratorISt4pairIKNSt7__cxx1112basic_stringIcSt11char_traitsIcESaIcEEEMN3zmq14session_base_tEFvPNS8_11io_thread_tEEEEppEv
          38 .eh_frame$_ZNSt17_Rb_tree_iteratorISt4pairIKNSt7__cxx1112basic_stringIcSt11char_traitsIcESaIcEEEN3zmq10endpoint_tEEEC1EPSt18_Rb_tree_node_base
          38 .eh_frame$_ZNSt17_Rb_tree_iteratorISt4pairIKNSt7__cxx1112basic_stringIcSt11char_traitsIcESaIcEEEN3zmq10endpoint_tEEEmmEv
          38 .eh_frame$_ZNSt17_Rb_tree_iteratorISt4pairIKNSt7__cxx1112basic_stringIcSt11char_traitsIcESaIcEEEN3zmq10endpoint_tEEEppEv
          38 .eh_frame$_ZNSt17_Rb_tree_iteratorISt4pairIKNSt7__cxx1112basic_stringIcSt11char_traitsIcESaIcEEEN3zmq5ctx_t20pending_connection_tEEEC1EPSt18_Rb_tree_node_base
          38 .eh_frame$_ZNSt17_Rb_tree_iteratorISt4pairIKNSt7__cxx1112basic_stringIcSt11char_traitsIcESaIcEEEN3zmq5ctx_t20pending_connection_tEEEppEv
          70 .eh_frame$_ZNSt17_Rb_tree_iteratorISt4pairIKNSt7__cxx1112basic_stringIcSt11char_traitsIcESaIcEEEPN3zmq6pipe_tEEEC1EPSt18_Rb_tree_node_base
          70 .eh_frame$_ZNSt17_Rb_tree_iteratorISt4pairIKNSt7__cxx1112basic_stringIcSt11char_traitsIcESaIcEEEPN3zmq6pipe_tEEEppEv
          38 .eh_frame$_ZNSt17_Rb_tree_iteratorISt4pairIKNSt7__cxx1112basic_stringIcSt11char_traitsIcESaIcEEES0_IPN3zmq5own_tEPNS8_6pipe_tEEEEC1EPSt18_Rb_tree_node_base
          38 .eh_frame$_ZNSt17_Rb_tree_iteratorISt4pairIKNSt7__cxx1112basic_stringIcSt11char_traitsIcESaIcEEES0_IPN3zmq5own_tEPNS8_6pipe_tEEEEC1Ev
          38 .eh_frame$_ZNSt17_Rb_tree_iteratorISt4pairIKNSt7__cxx1112basic_stringIcSt11char_traitsIcESaIcEEES0_IPN3zmq5own_tEPNS8_6pipe_tEEEEppEv
          A8 .eh_frame$_ZNSt17_Rb_tree_iteratorISt4pairIKNSt7__cxx1112basic_stringIcSt11char_traitsIcESaIcEEES6_EEC1EPSt18_Rb_tree_node_base
          A8 .eh_frame$_ZNSt17_Rb_tree_iteratorISt4pairIKNSt7__cxx1112basic_stringIcSt11char_traitsIcESaIcEEES6_EEmmEv
          38 .eh_frame$_ZNSt17_Rb_tree_iteratorISt4pairIKNSt7__cxx1112basic_stringIcSt11char_traitsIcESaIcEEES6_EEppEv
          38 .eh_frame$_ZNSt17_Rb_tree_iteratorISt4pairIKjN3zmq8server_t9outpipe_tEEEC1EPSt18_Rb_tree_node_base
          38 .eh_frame$_ZNSt17_Rb_tree_iteratorISt4pairIKjN3zmq8server_t9outpipe_tEEEC1Ev
          38 .eh_frame$_ZNSt17_Rb_tree_iteratorISt4pairIKjN3zmq8server_t9outpipe_tEEEmmEv
          38 .eh_frame$_ZNSt17_Rb_tree_iteratorISt4pairIKjN3zmq8server_t9outpipe_tEEEppEv
          38 .eh_frame$_ZNSt17_Rb_tree_iteratorISt4pairIKtN3zmq8select_t14family_entry_tEEEC1EPSt18_Rb_tree_node_base
          38 .eh_frame$_ZNSt17_Rb_tree_iteratorISt4pairIKtN3zmq8select_t14family_entry_tEEEmmEv
          38 .eh_frame$_ZNSt17_Rb_tree_iteratorISt4pairIKtN3zmq8select_t14family_entry_tEEEppEv
          38 .eh_frame$_ZNSt17_Rb_tree_iteratorISt4pairIKyN3zmq13poller_base_t12timer_info_tEEEC1EPSt18_Rb_tree_node_base
          38 .eh_frame$_ZNSt17_Rb_tree_iteratorISt4pairIKyN3zmq13poller_base_t12timer_info_tEEEppEv
          38 .eh_frame$_ZNSt17_Rb_tree_iteratorISt4pairIKyN3zmq8timers_t7timer_tEEEC1EPSt18_Rb_tree_node_base
          38 .eh_frame$_ZNSt17_Rb_tree_iteratorISt4pairIKyN3zmq8timers_t7timer_tEEEppEv
          70 .eh_frame$_ZNSt17_Rb_tree_iteratorIiEC1EPSt18_Rb_tree_node_base
          70 .eh_frame$_ZNSt17_Rb_tree_iteratorIiEmmEv
         188 .eh_frame$_ZNSt18_Rb_tree_node_base10_S_maximumEPS_
         188 .eh_frame$_ZNSt18_Rb_tree_node_base10_S_minimumEPS_
         3B8 .eh_frame$_ZNSt18_Rb_tree_node_baseC2Ev
          38 .eh_frame$_ZNSt18condition_variable10wait_untilINSt6chrono8durationIxSt5ratioILx1ELx1000000000EEEEEESt9cv_statusRSt11unique_lockISt5mutexERKNS1_10time_pointINS1_3_V212system_clockET_EE
          38 .eh_frame$_ZNSt18condition_variable17__wait_until_implINSt6chrono8durationIxSt5ratioILx1ELx1000000000EEEEEESt9cv_statusRSt11unique_lockISt5mutexERKNS1_10time_pointINS1_3_V212system_clockET_EE
          38 .eh_frame$_ZNSt20__copy_move_backwardILb0ELb1ESt26random_access_iterator_tagE13__copy_move_bIPN3zmq6blob_tEEEPT_PKS6_S9_S7_
          38 .eh_frame$_ZNSt20__copy_move_backwardILb0ELb1ESt26random_access_iterator_tagE13__copy_move_bIPPN3zmq10metadata_tEEEPT_PKS7_SA_S8_
          38 .eh_frame$_ZNSt20__copy_move_backwardILb0ELb1ESt26random_access_iterator_tagE13__copy_move_bIPPN3zmq6pipe_tEEEPT_PKS7_SA_S8_
          38 .eh_frame$_ZNSt20__copy_move_backwardILb0ELb1ESt26random_access_iterator_tagE13__copy_move_bIPhEEPT_PKS4_S7_S5_
          38 .eh_frame$_ZNSt20__copy_move_backwardILb1ELb1ESt26random_access_iterator_tagE13__copy_move_bIPN3zmq9i_mailboxEEEPT_PKS6_S9_S7_
         168 .eh_frame$_ZNSt20__uninitialized_copyILb0EE13__uninit_copyIN9__gnu_cxx17__normal_iteratorIPKN3zmq18tcp_address_mask_tESt6vectorIS5_SaIS5_EEEEPS5_EET0_T_SE_SD_
          48 .eh_frame$_ZNSt20__uninitialized_copyILb0EE13__uninit_copyISt13move_iteratorIPN3zmq18tcp_address_mask_tEES5_EET0_T_S8_S7_
          38 .eh_frame$_ZNSt20__uninitialized_copyILb1EE13__uninit_copyISt13move_iteratorIPN3zmq15socket_poller_t6item_tEES6_EET0_T_S9_S8_
          38 .eh_frame$_ZNSt20__uninitialized_copyILb1EE13__uninit_copyISt13move_iteratorIPN3zmq8select_t10fd_entry_tEES6_EET0_T_S9_S8_
          38 .eh_frame$_ZNSt20__uninitialized_copyILb1EE13__uninit_copyISt13move_iteratorIPPN3zmq10signaler_tEES6_EET0_T_S9_S8_
          38 .eh_frame$_ZNSt20__uninitialized_copyILb1EE13__uninit_copyISt13move_iteratorIPPN3zmq11io_thread_tEES6_EET0_T_S9_S8_
          38 .eh_frame$_ZNSt20__uninitialized_copyILb1EE13__uninit_copyISt13move_iteratorIPPN3zmq13socket_base_tEES6_EET0_T_S9_S8_
         118 .eh_frame$_ZNSt20__uninitialized_copyILb1EE13__uninit_copyISt13move_iteratorIPPN3zmq6pipe_tEES6_EET0_T_S9_S8_
          38 .eh_frame$_ZNSt20__uninitialized_copyILb1EE13__uninit_copyISt13move_iteratorIPPN3zmq9i_mailboxEES6_EET0_T_S9_S8_
          38 .eh_frame$_ZNSt20__uninitialized_copyILb1EE13__uninit_copyISt13move_iteratorIPhES3_EET0_T_S6_S5_
          70 .eh_frame$_ZNSt20__uninitialized_copyILb1EE13__uninit_copyISt13move_iteratorIPjES3_EET0_T_S6_S5_
          38 .eh_frame$_ZNSt22__uninitialized_fill_nILb1EE15__uninit_fill_nIPPN3zmq9i_mailboxEjS4_EET_S6_T0_RKT1_
          38 .eh_frame$_ZNSt22__uninitialized_fill_nILb1EE15__uninit_fill_nIPhjhEET_S3_T0_RKT1_
          38 .eh_frame$_ZNSt23_Rb_tree_const_iteratorINSt7__cxx1112basic_stringIcSt11char_traitsIcESaIcEEEEC1EPKSt18_Rb_tree_node_base
          38 .eh_frame$_ZNSt23_Rb_tree_const_iteratorINSt7__cxx1112basic_stringIcSt11char_traitsIcESaIcEEEEC1ERKSt17_Rb_tree_iteratorIS5_E
          38 .eh_frame$_ZNSt23_Rb_tree_const_iteratorINSt7__cxx1112basic_stringIcSt11char_traitsIcESaIcEEEEppEi
          38 .eh_frame$_ZNSt23_Rb_tree_const_iteratorINSt7__cxx1112basic_stringIcSt11char_traitsIcESaIcEEEEppEv
          38 .eh_frame$_ZNSt23_Rb_tree_const_iteratorIPN3zmq5own_tEEC1EPKSt18_Rb_tree_node_base
          38 .eh_frame$_ZNSt23_Rb_tree_const_iteratorIPN3zmq5own_tEEC1ERKSt17_Rb_tree_iteratorIS2_E
          38 .eh_frame$_ZNSt23_Rb_tree_const_iteratorIPN3zmq5own_tEEppEi
          38 .eh_frame$_ZNSt23_Rb_tree_const_iteratorIPN3zmq5own_tEEppEv
          A8 .eh_frame$_ZNSt23_Rb_tree_const_iteratorIPN3zmq6pipe_tEEC1EPKSt18_Rb_tree_node_base
          E0 .eh_frame$_ZNSt23_Rb_tree_const_iteratorIPN3zmq6pipe_tEEC1ERKSt17_Rb_tree_iteratorIS2_E
          E0 .eh_frame$_ZNSt23_Rb_tree_const_iteratorIPN3zmq6pipe_tEEppEi
          E0 .eh_frame$_ZNSt23_Rb_tree_const_iteratorIPN3zmq6pipe_tEEppEv
          38 .eh_frame$_ZNSt23_Rb_tree_const_iteratorISt4pairIKN3zmq6blob_tENS1_21routing_socket_base_t10out_pipe_tEEEC1EPKSt18_Rb_tree_node_base
          38 .eh_frame$_ZNSt23_Rb_tree_const_iteratorISt4pairIKN3zmq6blob_tENS1_21routing_socket_base_t10out_pipe_tEEEC1ERKSt17_Rb_tree_iteratorIS6_E
          38 .eh_frame$_ZNSt23_Rb_tree_const_iteratorISt4pairIKN3zmq6blob_tENS1_21routing_socket_base_t10out_pipe_tEEEppEi
          38 .eh_frame$_ZNSt23_Rb_tree_const_iteratorISt4pairIKN3zmq6blob_tENS1_21routing_socket_base_t10out_pipe_tEEEppEv
          38 .eh_frame$_ZNSt23_Rb_tree_const_iteratorISt4pairIKNSt7__cxx1112basic_stringIcSt11char_traitsIcESaIcEEEMN3zmq14session_base_tEFPNS8_5own_tEPNS8_11io_thread_tEbEEEC1ERKSt17_Rb_tree_iteratorISG_E
          38 .eh_frame$_ZNSt23_Rb_tree_const_iteratorISt4pairIKNSt7__cxx1112basic_stringIcSt11char_traitsIcESaIcEEEMN3zmq14session_base_tEFvPNS8_11io_thread_tEEEEC1ERKSt17_Rb_tree_iteratorISE_E
          38 .eh_frame$_ZNSt23_Rb_tree_const_iteratorISt4pairIKNSt7__cxx1112basic_stringIcSt11char_traitsIcESaIcEEEN3zmq10endpoint_tEEEC1ERKSt17_Rb_tree_iteratorISA_E
          38 .eh_frame$_ZNSt23_Rb_tree_const_iteratorISt4pairIKNSt7__cxx1112basic_stringIcSt11char_traitsIcESaIcEEEN3zmq5ctx_t20pending_connection_tEEEC1ERKSt17_Rb_tree_iteratorISB_E
          38 .eh_frame$_ZNSt23_Rb_tree_const_iteratorISt4pairIKNSt7__cxx1112basic_stringIcSt11char_traitsIcESaIcEEEN3zmq5ctx_t20pending_connection_tEEEppEi
          38 .eh_frame$_ZNSt23_Rb_tree_const_iteratorISt4pairIKNSt7__cxx1112basic_stringIcSt11char_traitsIcESaIcEEEN3zmq5ctx_t20pending_connection_tEEEppEv
          70 .eh_frame$_ZNSt23_Rb_tree_const_iteratorISt4pairIKNSt7__cxx1112basic_stringIcSt11char_traitsIcESaIcEEEPN3zmq6pipe_tEEEC1ERKSt17_Rb_tree_iteratorISB_E
          38 .eh_frame$_ZNSt23_Rb_tree_const_iteratorISt4pairIKNSt7__cxx1112basic_stringIcSt11char_traitsIcESaIcEEEPN3zmq6pipe_tEEEppEi
          38 .eh_frame$_ZNSt23_Rb_tree_const_iteratorISt4pairIKNSt7__cxx1112basic_stringIcSt11char_traitsIcESaIcEEEPN3zmq6pipe_tEEEppEv
          38 .eh_frame$_ZNSt23_Rb_tree_const_iteratorISt4pairIKNSt7__cxx1112basic_stringIcSt11char_traitsIcESaIcEEES0_IPN3zmq5own_tEPNS8_6pipe_tEEEEC1EPKSt18_Rb_tree_node_base
          38 .eh_frame$_ZNSt23_Rb_tree_const_iteratorISt4pairIKNSt7__cxx1112basic_stringIcSt11char_traitsIcESaIcEEES0_IPN3zmq5own_tEPNS8_6pipe_tEEEEC1ERKSt17_Rb_tree_iteratorISE_E
          38 .eh_frame$_ZNSt23_Rb_tree_const_iteratorISt4pairIKNSt7__cxx1112basic_stringIcSt11char_traitsIcESaIcEEES0_IPN3zmq5own_tEPNS8_6pipe_tEEEEppEi
          38 .eh_frame$_ZNSt23_Rb_tree_const_iteratorISt4pairIKNSt7__cxx1112basic_stringIcSt11char_traitsIcESaIcEEES0_IPN3zmq5own_tEPNS8_6pipe_tEEEEppEv
          A8 .eh_frame$_ZNSt23_Rb_tree_const_iteratorISt4pairIKNSt7__cxx1112basic_stringIcSt11char_traitsIcESaIcEEES6_EEC1EPKSt18_Rb_tree_node_base
          38 .eh_frame$_ZNSt23_Rb_tree_const_iteratorISt4pairIKNSt7__cxx1112basic_stringIcSt11char_traitsIcESaIcEEES6_EEC1ERKSt17_Rb_tree_iteratorIS8_E
          70 .eh_frame$_ZNSt23_Rb_tree_const_iteratorISt4pairIKNSt7__cxx1112basic_stringIcSt11char_traitsIcESaIcEEES6_EEppEv
          38 .eh_frame$_ZNSt23_Rb_tree_const_iteratorISt4pairIKjN3zmq8server_t9outpipe_tEEEC1ERKSt17_Rb_tree_iteratorIS5_E
          38 .eh_frame$_ZNSt23_Rb_tree_const_iteratorISt4pairIKtN3zmq8select_t14family_entry_tEEEC1ERKSt17_Rb_tree_iteratorIS5_E
          38 .eh_frame$_ZNSt23_Rb_tree_const_iteratorISt4pairIKyN3zmq13poller_base_t12timer_info_tEEEC1ERKSt17_Rb_tree_iteratorIS5_E
          38 .eh_frame$_ZNSt23_Rb_tree_const_iteratorISt4pairIKyN3zmq13poller_base_t12timer_info_tEEEppEi
          38 .eh_frame$_ZNSt23_Rb_tree_const_iteratorISt4pairIKyN3zmq13poller_base_t12timer_info_tEEEppEv
          38 .eh_frame$_ZNSt23_Rb_tree_const_iteratorISt4pairIKyN3zmq8timers_t7timer_tEEEC1ERKSt17_Rb_tree_iteratorIS5_E
          38 .eh_frame$_ZNSt23_Rb_tree_const_iteratorISt4pairIKyN3zmq8timers_t7timer_tEEEppEi
          38 .eh_frame$_ZNSt23_Rb_tree_const_iteratorISt4pairIKyN3zmq8timers_t7timer_tEEEppEv
          38 .eh_frame$_ZNSt23_Rb_tree_const_iteratorIiEC1EPKSt18_Rb_tree_node_base
          70 .eh_frame$_ZNSt23_Rb_tree_const_iteratorIiEC1ERKSt17_Rb_tree_iteratorIiE
          70 .eh_frame$_ZNSt23_Rb_tree_const_iteratorIiEppEi
          70 .eh_frame$_ZNSt23_Rb_tree_const_iteratorIiEppEv
          38 .eh_frame$_ZNSt23_Sp_counted_ptr_inplaceISt5mutexSaIS0_ELN9__gnu_cxx12_Lock_policyE2EE10_M_destroyEv
          48 .eh_frame$_ZNSt23_Sp_counted_ptr_inplaceISt5mutexSaIS0_ELN9__gnu_cxx12_Lock_policyE2EE10_M_disposeEv
          38 .eh_frame$_ZNSt23_Sp_counted_ptr_inplaceISt5mutexSaIS0_ELN9__gnu_cxx12_Lock_policyE2EE14_M_get_deleterERKSt9type_info
          38 .eh_frame$_ZNSt23_Sp_counted_ptr_inplaceISt5mutexSaIS0_ELN9__gnu_cxx12_Lock_policyE2EE5_Impl8_M_allocEv
          38 .eh_frame$_ZNSt23_Sp_counted_ptr_inplaceISt5mutexSaIS0_ELN9__gnu_cxx12_Lock_policyE2EE5_ImplC1ES1_
          38 .eh_frame$_ZNSt23_Sp_counted_ptr_inplaceISt5mutexSaIS0_ELN9__gnu_cxx12_Lock_policyE2EE5_ImplD1Ev
          38 .eh_frame$_ZNSt23_Sp_counted_ptr_inplaceISt5mutexSaIS0_ELN9__gnu_cxx12_Lock_policyE2EE6_M_ptrEv
          48 .eh_frame$_ZNSt23_Sp_counted_ptr_inplaceISt5mutexSaIS0_ELN9__gnu_cxx12_Lock_policyE2EEC1IJEEES1_DpOT_
          38 .eh_frame$_ZNSt23_Sp_counted_ptr_inplaceISt5mutexSaIS0_ELN9__gnu_cxx12_Lock_policyE2EED0Ev
          38 .eh_frame$_ZNSt23_Sp_counted_ptr_inplaceISt5mutexSaIS0_ELN9__gnu_cxx12_Lock_policyE2EED1Ev
          38 .eh_frame$_ZNSt27__uninitialized_default_n_1ILb1EE18__uninit_default_nIPPN3zmq9i_mailboxEjEET_S6_T0_
          A8 .eh_frame$_ZNSt27__uninitialized_default_n_1ILb1EE18__uninit_default_nIPhjEET_S3_T0_
          38 .eh_frame$_ZNSt27__uninitialized_default_n_1ILb1EE18__uninit_default_nIPjjEET_S3_T0_
          44 .eh_frame$_ZNSt3_V222condition_variable_any10notify_allEv
          48 .eh_frame$_ZNSt3_V222condition_variable_any10wait_untilIN3zmq7mutex_tENSt6chrono3_V212system_clockENS4_8durationIxSt5ratioILx1ELx1000000000EEEEEESt9cv_statusRT_RKNS4_10time_pointIT0_T1_EE
          48 .eh_frame$_ZNSt3_V222condition_variable_any4waitIN3zmq7mutex_tEEEvRT_
          38 .eh_frame$_ZNSt3_V222condition_variable_any7_UnlockIN3zmq7mutex_tEEC1ERS3_
          48 .eh_frame$_ZNSt3_V222condition_variable_any7_UnlockIN3zmq7mutex_tEED1Ev
          38 .eh_frame$_ZNSt3_V222condition_variable_any8wait_forIN3zmq7mutex_tExSt5ratioILx1ELx1000EEEESt9cv_statusRT_RKNSt6chrono8durationIT0_T1_EE
          48 .eh_frame$_ZNSt3_V222condition_variable_anyC1Ev
          38 .eh_frame$_ZNSt3_V222condition_variable_anyD1Ev
          70 .eh_frame$_ZNSt3mapIN3zmq6blob_tENS0_21routing_socket_base_t10out_pipe_tESt4lessIS1_ESaISt4pairIKS1_S3_EEE3endEv
          38 .eh_frame$_ZNSt3mapIN3zmq6blob_tENS0_21routing_socket_base_t10out_pipe_tESt4lessIS1_ESaISt4pairIKS1_S3_EEE4findERS7_
          70 .eh_frame$_ZNSt3mapIN3zmq6blob_tENS0_21routing_socket_base_t10out_pipe_tESt4lessIS1_ESaISt4pairIKS1_S3_EEE5beginEv
          38 .eh_frame$_ZNSt3mapIN3zmq6blob_tENS0_21routing_socket_base_t10out_pipe_tESt4lessIS1_ESaISt4pairIKS1_S3_EEE5eraseB5cxx11ESt17_Rb_tree_iteratorIS8_E
          38 .eh_frame$_ZNSt3mapIN3zmq6blob_tENS0_21routing_socket_base_t10out_pipe_tESt4lessIS1_ESaISt4pairIKS1_S3_EEE5eraseERS7_
          3C .eh_frame$_ZNSt3mapIN3zmq6blob_tENS0_21routing_socket_base_t10out_pipe_tESt4lessIS1_ESaISt4pairIKS1_S3_EEE7emplaceIJS1_RKS3_EEES6_ISt17_Rb_tree_iteratorIS8_EbEDpOT_
          44 .eh_frame$_ZNSt3mapIN3zmq6blob_tENS0_21routing_socket_base_t10out_pipe_tESt4lessIS1_ESaISt4pairIKS1_S3_EEEC1Ev
          38 .eh_frame$_ZNSt3mapIN3zmq6blob_tENS0_21routing_socket_base_t10out_pipe_tESt4lessIS1_ESaISt4pairIKS1_S3_EEED1Ev
          38 .eh_frame$_ZNSt3mapINSt7__cxx1112basic_stringIcSt11char_traitsIcESaIcEEEMN3zmq14session_base_tEFPNS6_5own_tEPNS6_11io_thread_tEbESt4lessIS5_ESaISt4pairIKS5_SD_EEE3endEv
          38 .eh_frame$_ZNSt3mapINSt7__cxx1112basic_stringIcSt11char_traitsIcESaIcEEEMN3zmq14session_base_tEFPNS6_5own_tEPNS6_11io_thread_tEbESt4lessIS5_ESaISt4pairIKS5_SD_EEE4findERSH_
          48 .eh_frame$_ZNSt3mapINSt7__cxx1112basic_stringIcSt11char_traitsIcESaIcEEEMN3zmq14session_base_tEFPNS6_5own_tEPNS6_11io_thread_tEbESt4lessIS5_ESaISt4pairIKS5_SD_EEEC1IPSI_EET_SN_
          38 .eh_frame$_ZNSt3mapINSt7__cxx1112basic_stringIcSt11char_traitsIcESaIcEEEMN3zmq14session_base_tEFPNS6_5own_tEPNS6_11io_thread_tEbESt4lessIS5_ESaISt4pairIKS5_SD_EEED1Ev
          38 .eh_frame$_ZNSt3mapINSt7__cxx1112basic_stringIcSt11char_traitsIcESaIcEEEMN3zmq14session_base_tEFvPNS6_11io_thread_tEESt4lessIS5_ESaISt4pairIKS5_SB_EEE3endEv
          38 .eh_frame$_ZNSt3mapINSt7__cxx1112basic_stringIcSt11char_traitsIcESaIcEEEMN3zmq14session_base_tEFvPNS6_11io_thread_tEESt4lessIS5_ESaISt4pairIKS5_SB_EEE4findERSF_
          48 .eh_frame$_ZNSt3mapINSt7__cxx1112basic_stringIcSt11char_traitsIcESaIcEEEMN3zmq14session_base_tEFvPNS6_11io_thread_tEESt4lessIS5_ESaISt4pairIKS5_SB_EEEC1IPSG_EET_SL_
          38 .eh_frame$_ZNSt3mapINSt7__cxx1112basic_stringIcSt11char_traitsIcESaIcEEEMN3zmq14session_base_tEFvPNS6_11io_thread_tEESt4lessIS5_ESaISt4pairIKS5_SB_EEED1Ev
          38 .eh_frame$_ZNSt3mapINSt7__cxx1112basic_stringIcSt11char_traitsIcESaIcEEEN3zmq10endpoint_tESt4lessIS5_ESaISt4pairIKS5_S7_EEE11lower_boundERSB_
          38 .eh_frame$_ZNSt3mapINSt7__cxx1112basic_stringIcSt11char_traitsIcESaIcEEEN3zmq10endpoint_tESt4lessIS5_ESaISt4pairIKS5_S7_EEE3endEv
          38 .eh_frame$_ZNSt3mapINSt7__cxx1112basic_stringIcSt11char_traitsIcESaIcEEEN3zmq10endpoint_tESt4lessIS5_ESaISt4pairIKS5_S7_EEE4findERSB_
          38 .eh_frame$_ZNSt3mapINSt7__cxx1112basic_stringIcSt11char_traitsIcESaIcEEEN3zmq10endpoint_tESt4lessIS5_ESaISt4pairIKS5_S7_EEE5beginEv
          38 .eh_frame$_ZNSt3mapINSt7__cxx1112basic_stringIcSt11char_traitsIcESaIcEEEN3zmq10endpoint_tESt4lessIS5_ESaISt4pairIKS5_S7_EEE5eraseB5cxx11ESt17_Rb_tree_iteratorISC_E
          3C .eh_frame$_ZNSt3mapINSt7__cxx1112basic_stringIcSt11char_traitsIcESaIcEEEN3zmq10endpoint_tESt4lessIS5_ESaISt4pairIKS5_S7_EEE7emplaceIJS5_RKS7_EEESA_ISt17_Rb_tree_iteratorISC_EbEDpOT_
          44 .eh_frame$_ZNSt3mapINSt7__cxx1112basic_stringIcSt11char_traitsIcESaIcEEEN3zmq10endpoint_tESt4lessIS5_ESaISt4pairIKS5_S7_EEEC1Ev
          38 .eh_frame$_ZNSt3mapINSt7__cxx1112basic_stringIcSt11char_traitsIcESaIcEEEN3zmq10endpoint_tESt4lessIS5_ESaISt4pairIKS5_S7_EEED1Ev
          50 .eh_frame$_ZNSt3mapINSt7__cxx1112basic_stringIcSt11char_traitsIcESaIcEEEN3zmq10endpoint_tESt4lessIS5_ESaISt4pairIKS5_S7_EEEixEOS5_
          38 .eh_frame$_ZNSt3mapINSt7__cxx1112basic_stringIcSt11char_traitsIcESaIcEEES5_St4lessIS5_ESaISt4pairIKS5_S5_EEE6insertIS8_IS5_S5_EvEES8_ISt17_Rb_tree_iteratorISA_EbEOT_
          38 .eh_frame$_ZNSt3mapINSt7__cxx1112basic_stringIcSt11char_traitsIcESaIcEEES5_St4lessIS5_ESaISt4pairIKS5_S5_EEE6insertISt23_Rb_tree_const_iteratorISA_EEEvT_SG_
          3C .eh_frame$_ZNSt3mapINSt7__cxx1112basic_stringIcSt11char_traitsIcESaIcEEES5_St4lessIS5_ESaISt4pairIKS5_S5_EEE7emplaceIJRS9_S5_EEES8_ISt17_Rb_tree_iteratorISA_EbEDpOT_
          3C .eh_frame$_ZNSt3mapINSt7__cxx1112basic_stringIcSt11char_traitsIcESaIcEEES5_St4lessIS5_ESaISt4pairIKS5_S5_EEE7emplaceIJS5_RS9_EEES8_ISt17_Rb_tree_iteratorISA_EbEDpOT_
          78 .eh_frame$_ZNSt3mapINSt7__cxx1112basic_stringIcSt11char_traitsIcESaIcEEES5_St4lessIS5_ESaISt4pairIKS5_S5_EEE7emplaceIJS5_S5_EEES8_ISt17_Rb_tree_iteratorISA_EbEDpOT_
          44 .eh_frame$_ZNSt3mapINSt7__cxx1112basic_stringIcSt11char_traitsIcESaIcEEES5_St4lessIS5_ESaISt4pairIKS5_S5_EEEC1EOSC_
         188 .eh_frame$_ZNSt3mapINSt7__cxx1112basic_stringIcSt11char_traitsIcESaIcEEES5_St4lessIS5_ESaISt4pairIKS5_S5_EEEC1ERKSC_
         110 .eh_frame$_ZNSt3mapINSt7__cxx1112basic_stringIcSt11char_traitsIcESaIcEEES5_St4lessIS5_ESaISt4pairIKS5_S5_EEEC1Ev
         1F8 .eh_frame$_ZNSt3mapINSt7__cxx1112basic_stringIcSt11char_traitsIcESaIcEEES5_St4lessIS5_ESaISt4pairIKS5_S5_EEED1Ev
          38 .eh_frame$_ZNSt3mapIjN3zmq8server_t9outpipe_tESt4lessIjESaISt4pairIKjS2_EEE3endEv
          38 .eh_frame$_ZNSt3mapIjN3zmq8server_t9outpipe_tESt4lessIjESaISt4pairIKjS2_EEE4findERS6_
          38 .eh_frame$_ZNSt3mapIjN3zmq8server_t9outpipe_tESt4lessIjESaISt4pairIKjS2_EEE5beginEv
          38 .eh_frame$_ZNSt3mapIjN3zmq8server_t9outpipe_tESt4lessIjESaISt4pairIKjS2_EEE5eraseB5cxx11ESt17_Rb_tree_iteratorIS7_E
          3C .eh_frame$_ZNSt3mapIjN3zmq8server_t9outpipe_tESt4lessIjESaISt4pairIKjS2_EEE7emplaceIJRjRS2_EEES5_ISt17_Rb_tree_iteratorIS7_EbEDpOT_
          44 .eh_frame$_ZNSt3mapIjN3zmq8server_t9outpipe_tESt4lessIjESaISt4pairIKjS2_EEEC1Ev
          38 .eh_frame$_ZNSt3mapIjN3zmq8server_t9outpipe_tESt4lessIjESaISt4pairIKjS2_EEED1Ev
          38 .eh_frame$_ZNSt3mapItN3zmq8select_t14family_entry_tESt4lessItESaISt4pairIKtS2_EEE11lower_boundERS6_
          38 .eh_frame$_ZNSt3mapItN3zmq8select_t14family_entry_tESt4lessItESaISt4pairIKtS2_EEE3endEv
          38 .eh_frame$_ZNSt3mapItN3zmq8select_t14family_entry_tESt4lessItESaISt4pairIKtS2_EEE4findERS6_
          38 .eh_frame$_ZNSt3mapItN3zmq8select_t14family_entry_tESt4lessItESaISt4pairIKtS2_EEE5beginEv
          38 .eh_frame$_ZNSt3mapItN3zmq8select_t14family_entry_tESt4lessItESaISt4pairIKtS2_EEE5eraseB5cxx11ESt17_Rb_tree_iteratorIS7_E
          44 .eh_frame$_ZNSt3mapItN3zmq8select_t14family_entry_tESt4lessItESaISt4pairIKtS2_EEEC1Ev
          38 .eh_frame$_ZNSt3mapItN3zmq8select_t14family_entry_tESt4lessItESaISt4pairIKtS2_EEED1Ev
          50 .eh_frame$_ZNSt3mapItN3zmq8select_t14family_entry_tESt4lessItESaISt4pairIKtS2_EEEixERS6_
          38 .eh_frame$_ZNSt3setINSt7__cxx1112basic_stringIcSt11char_traitsIcESaIcEEESt4lessIS5_ESaIS5_EE5eraseERKS5_
          38 .eh_frame$_ZNSt3setINSt7__cxx1112basic_stringIcSt11char_traitsIcESaIcEEESt4lessIS5_ESaIS5_EE6insertERKS5_
          44 .eh_frame$_ZNSt3setINSt7__cxx1112basic_stringIcSt11char_traitsIcESaIcEEESt4lessIS5_ESaIS5_EEC1Ev
          38 .eh_frame$_ZNSt3setINSt7__cxx1112basic_stringIcSt11char_traitsIcESaIcEEESt4lessIS5_ESaIS5_EED1Ev
          38 .eh_frame$_ZNSt3setIPN3zmq5own_tESt4lessIS2_ESaIS2_EE5clearEv
          38 .eh_frame$_ZNSt3setIPN3zmq5own_tESt4lessIS2_ESaIS2_EE5eraseERKS2_
          38 .eh_frame$_ZNSt3setIPN3zmq5own_tESt4lessIS2_ESaIS2_EE6insertERKS2_
          44 .eh_frame$_ZNSt3setIPN3zmq5own_tESt4lessIS2_ESaIS2_EEC1Ev
          38 .eh_frame$_ZNSt3setIPN3zmq5own_tESt4lessIS2_ESaIS2_EED1Ev
          38 .eh_frame$_ZNSt3setIPN3zmq6pipe_tESt4lessIS2_ESaIS2_EE4findERKS2_
          38 .eh_frame$_ZNSt3setIPN3zmq6pipe_tESt4lessIS2_ESaIS2_EE5eraseB5cxx11ESt23_Rb_tree_const_iteratorIS2_E
          E0 .eh_frame$_ZNSt3setIPN3zmq6pipe_tESt4lessIS2_ESaIS2_EE5eraseERKS2_
          A8 .eh_frame$_ZNSt3setIPN3zmq6pipe_tESt4lessIS2_ESaIS2_EE6insertERKS2_
          CC .eh_frame$_ZNSt3setIPN3zmq6pipe_tESt4lessIS2_ESaIS2_EEC1Ev
          E0 .eh_frame$_ZNSt3setIPN3zmq6pipe_tESt4lessIS2_ESaIS2_EED1Ev
          70 .eh_frame$_ZNSt3setIiSt4lessIiESaIiEE5eraseERKi
          70 .eh_frame$_ZNSt3setIiSt4lessIiESaIiEE6insertERKi
         110 .eh_frame$_ZNSt3setIiSt4lessIiESaIiEEC1Ev
          E0 .eh_frame$_ZNSt3setIiSt4lessIiESaIiEED1Ev
          38 .eh_frame$_ZNSt4pairIKN3zmq6blob_tENS0_21routing_socket_base_t10out_pipe_tEEC1IS1_vEEOT_RKS4_
          38 .eh_frame$_ZNSt4pairIKN3zmq6blob_tENS0_21routing_socket_base_t10out_pipe_tEED1Ev
          38 .eh_frame$_ZNSt4pairIKNSt7__cxx1112basic_stringIcSt11char_traitsIcESaIcEEEMN3zmq14session_base_tEFPNS7_5own_tEPNS7_11io_thread_tEbEEC1ERKSF_
          48 .eh_frame$_ZNSt4pairIKNSt7__cxx1112basic_stringIcSt11char_traitsIcESaIcEEEMN3zmq14session_base_tEFPNS7_5own_tEPNS7_11io_thread_tEbEEC1IRA3_KcSE_vEEOT_OT0_
          48 .eh_frame$_ZNSt4pairIKNSt7__cxx1112basic_stringIcSt11char_traitsIcESaIcEEEMN3zmq14session_base_tEFPNS7_5own_tEPNS7_11io_thread_tEbEEC1IRA4_KcSE_vEEOT_OT0_
          38 .eh_frame$_ZNSt4pairIKNSt7__cxx1112basic_stringIcSt11char_traitsIcESaIcEEEMN3zmq14session_base_tEFPNS7_5own_tEPNS7_11io_thread_tEbEED1Ev
          38 .eh_frame$_ZNSt4pairIKNSt7__cxx1112basic_stringIcSt11char_traitsIcESaIcEEEMN3zmq14session_base_tEFvPNS7_11io_thread_tEEEC1ERKSD_
          48 .eh_frame$_ZNSt4pairIKNSt7__cxx1112basic_stringIcSt11char_traitsIcESaIcEEEMN3zmq14session_base_tEFvPNS7_11io_thread_tEEEC1IRA4_KcSC_vEEOT_OT0_
          38 .eh_frame$_ZNSt4pairIKNSt7__cxx1112basic_stringIcSt11char_traitsIcESaIcEEEMN3zmq14session_base_tEFvPNS7_11io_thread_tEEED1Ev
          3C .eh_frame$_ZNSt4pairIKNSt7__cxx1112basic_stringIcSt11char_traitsIcESaIcEEEN3zmq10endpoint_tEEC1IJOS5_EJEEESt21piecewise_construct_tSt5tupleIJDpT_EESD_IJDpT0_EE
          4C .eh_frame$_ZNSt4pairIKNSt7__cxx1112basic_stringIcSt11char_traitsIcESaIcEEEN3zmq10endpoint_tEEC1IJOS5_EJLj0EEJEJEEERSt5tupleIJDpT_EERSC_IJDpT1_EESt12_Index_tupleIJXspT0_EEESL_IJXspT2_EEE
          48 .eh_frame$_ZNSt4pairIKNSt7__cxx1112basic_stringIcSt11char_traitsIcESaIcEEEN3zmq10endpoint_tEEC1IS5_vEEOT_RKS8_
          38 .eh_frame$_ZNSt4pairIKNSt7__cxx1112basic_stringIcSt11char_traitsIcESaIcEEEN3zmq10endpoint_tEED1Ev
          48 .eh_frame$_ZNSt4pairIKNSt7__cxx1112basic_stringIcSt11char_traitsIcESaIcEEEN3zmq5ctx_t20pending_connection_tEEC1ERKSA_
          48 .eh_frame$_ZNSt4pairIKNSt7__cxx1112basic_stringIcSt11char_traitsIcESaIcEEEN3zmq5ctx_t20pending_connection_tEEC1ERS6_RKS9_
          38 .eh_frame$_ZNSt4pairIKNSt7__cxx1112basic_stringIcSt11char_traitsIcESaIcEEEN3zmq5ctx_t20pending_connection_tEED1Ev
          70 .eh_frame$_ZNSt4pairIKNSt7__cxx1112basic_stringIcSt11char_traitsIcESaIcEEEPN3zmq6pipe_tEEC1IS5_RS9_vEEOT_OT0_
          70 .eh_frame$_ZNSt4pairIKNSt7__cxx1112basic_stringIcSt11char_traitsIcESaIcEEEPN3zmq6pipe_tEED1Ev
         1F8 .eh_frame$_ZNSt4pairIKNSt7__cxx1112basic_stringIcSt11char_traitsIcESaIcEEES5_EC1ERKS7_
          38 .eh_frame$_ZNSt4pairIKNSt7__cxx1112basic_stringIcSt11char_traitsIcESaIcEEES5_EC1IS5_S5_vEEOS_IT_T0_E
          70 .eh_frame$_ZNSt4pairIKNSt7__cxx1112basic_stringIcSt11char_traitsIcESaIcEEES5_EC1IS5_S5_vEEOT_OT0_
          48 .eh_frame$_ZNSt4pairIKNSt7__cxx1112basic_stringIcSt11char_traitsIcESaIcEEES5_EC1IS5_vEEOT_RS6_
          38 .eh_frame$_ZNSt4pairIKNSt7__cxx1112basic_stringIcSt11char_traitsIcESaIcEEES5_EC1IS5_vEERS6_OT_
         230 .eh_frame$_ZNSt4pairIKNSt7__cxx1112basic_stringIcSt11char_traitsIcESaIcEEES5_ED1Ev
          38 .eh_frame$_ZNSt4pairIKNSt7__cxx1112basic_stringIcSt11char_traitsIcESaIcEEES_IPN3zmq5own_tEPNS7_6pipe_tEEEC1ISC_vEERS6_OT_
          38 .eh_frame$_ZNSt4pairIKNSt7__cxx1112basic_stringIcSt11char_traitsIcESaIcEEES_IPN3zmq5own_tEPNS7_6pipe_tEEED1Ev
          38 .eh_frame$_ZNSt4pairIKjN3zmq8server_t9outpipe_tEEC1IRjRS3_vEEOT_OT0_
          3C .eh_frame$_ZNSt4pairIKtN3zmq8select_t14family_entry_tEEC1IJRS0_EJEEESt21piecewise_construct_tSt5tupleIJDpT_EES8_IJDpT0_EE
          38 .eh_frame$_ZNSt4pairIKtN3zmq8select_t14family_entry_tEEC1IJRS0_EJLj0EEJEJEEERSt5tupleIJDpT_EERS7_IJDpT1_EESt12_Index_tupleIJXspT0_EEESG_IJXspT2_EEE
          38 .eh_frame$_ZNSt4pairIKtN3zmq8select_t14family_entry_tEED1Ev
          38 .eh_frame$_ZNSt4pairIKyN3zmq13poller_base_t12timer_info_tEEC1IRyRS3_vEEOT_OT0_
          38 .eh_frame$_ZNSt4pairIKyN3zmq8timers_t7timer_tEEC1IRyRS3_vEEOT_OT0_
          38 .eh_frame$_ZNSt4pairIKyN3zmq8timers_t7timer_tEEC1IyvEEOT_RKS3_
          48 .eh_frame$_ZNSt4pairINSt7__cxx1112basic_stringIcSt11char_traitsIcESaIcEEES5_EC1IRS5_vEERKS5_OT_
          38 .eh_frame$_ZNSt4pairINSt7__cxx1112basic_stringIcSt11char_traitsIcESaIcEEES5_ED1Ev
          38 .eh_frame$_ZNSt4pairIPN3zmq5own_tEPNS0_6pipe_tEEC1IRS2_RS4_vEEOT_OT0_
          38 .eh_frame$_ZNSt4pairIPSt18_Rb_tree_node_baseS1_EC1IRPSt13_Rb_tree_nodeINSt7__cxx1112basic_stringIcSt11char_traitsIcESaIcEEEESD_vEEOT_OT0_
          38 .eh_frame$_ZNSt4pairIPSt18_Rb_tree_node_baseS1_EC1IRPSt13_Rb_tree_nodeIPN3zmq5own_tEESA_vEEOT_OT0_
          A8 .eh_frame$_ZNSt4pairIPSt18_Rb_tree_node_baseS1_EC1IRPSt13_Rb_tree_nodeIPN3zmq6pipe_tEESA_vEEOT_OT0_
          38 .eh_frame$_ZNSt4pairIPSt18_Rb_tree_node_baseS1_EC1IRPSt13_Rb_tree_nodeIS_IKN3zmq6blob_tENS5_21routing_socket_base_t10out_pipe_tEEESD_vEEOT_OT0_
          38 .eh_frame$_ZNSt4pairIPSt18_Rb_tree_node_baseS1_EC1IRPSt13_Rb_tree_nodeIS_IKNSt7__cxx1112basic_stringIcSt11char_traitsIcESaIcEEEMN3zmq14session_base_tEFPNSC_5own_tEPNSC_11io_thread_tEbEEESN_vEEOT_OT0_
          38 .eh_frame$_ZNSt4pairIPSt18_Rb_tree_node_baseS1_EC1IRPSt13_Rb_tree_nodeIS_IKNSt7__cxx1112basic_stringIcSt11char_traitsIcESaIcEEEMN3zmq14session_base_tEFvPNSC_11io_thread_tEEEESL_vEEOT_OT0_
          38 .eh_frame$_ZNSt4pairIPSt18_Rb_tree_node_baseS1_EC1IRPSt13_Rb_tree_nodeIS_IKNSt7__cxx1112basic_stringIcSt11char_traitsIcESaIcEEEN3zmq10endpoint_tEEESH_vEEOT_OT0_
          38 .eh_frame$_ZNSt4pairIPSt18_Rb_tree_node_baseS1_EC1IRPSt13_Rb_tree_nodeIS_IKNSt7__cxx1112basic_stringIcSt11char_traitsIcESaIcEEEN3zmq5ctx_t20pending_connection_tEEESI_vEEOT_OT0_
          70 .eh_frame$_ZNSt4pairIPSt18_Rb_tree_node_baseS1_EC1IRPSt13_Rb_tree_nodeIS_IKNSt7__cxx1112basic_stringIcSt11char_traitsIcESaIcEEEPN3zmq6pipe_tEEESI_vEEOT_OT0_
          A8 .eh_frame$_ZNSt4pairIPSt18_Rb_tree_node_baseS1_EC1IRPSt13_Rb_tree_nodeIS_IKNSt7__cxx1112basic_stringIcSt11char_traitsIcESaIcEEESA_EESF_vEEOT_OT0_
          38 .eh_frame$_ZNSt4pairIPSt18_Rb_tree_node_baseS1_EC1IRPSt13_Rb_tree_nodeIS_IKNSt7__cxx1112basic_stringIcSt11char_traitsIcESaIcEEES_IPN3zmq5own_tEPNSC_6pipe_tEEEESL_vEEOT_OT0_
          38 .eh_frame$_ZNSt4pairIPSt18_Rb_tree_node_baseS1_EC1IRPSt13_Rb_tree_nodeIS_IKjN3zmq8server_t9outpipe_tEEESC_vEEOT_OT0_
          38 .eh_frame$_ZNSt4pairIPSt18_Rb_tree_node_baseS1_EC1IRPSt13_Rb_tree_nodeIS_IKtN3zmq8select_t14family_entry_tEEESC_vEEOT_OT0_
          38 .eh_frame$_ZNSt4pairIPSt18_Rb_tree_node_baseS1_EC1IRPSt13_Rb_tree_nodeIS_IKyN3zmq13poller_base_t12timer_info_tEEESC_vEEOT_OT0_
          38 .eh_frame$_ZNSt4pairIPSt18_Rb_tree_node_baseS1_EC1IRPSt13_Rb_tree_nodeIS_IKyN3zmq8timers_t7timer_tEEESC_vEEOT_OT0_
          70 .eh_frame$_ZNSt4pairIPSt18_Rb_tree_node_baseS1_EC1IRPSt13_Rb_tree_nodeIiES7_vEEOT_OT0_
          E0 .eh_frame$_ZNSt4pairIPSt18_Rb_tree_node_baseS1_EC1IRS1_S4_vEEOT_OT0_
         2D8 .eh_frame$_ZNSt4pairIPSt18_Rb_tree_node_baseS1_EC1IRS1_vEEOT_RKS1_
          E0 .eh_frame$_ZNSt4pairIPSt18_Rb_tree_node_baseS1_EC1IRS1_vEERKS1_OT_
          38 .eh_frame$_ZNSt4pairISt17_Rb_tree_iteratorINSt7__cxx1112basic_stringIcSt11char_traitsIcESaIcEEEES7_EC1IS7_S7_vEEOT_OT0_
          38 .eh_frame$_ZNSt4pairISt17_Rb_tree_iteratorINSt7__cxx1112basic_stringIcSt11char_traitsIcESaIcEEEEbEC1IS7_bvEEOT_OT0_
          38 .eh_frame$_ZNSt4pairISt17_Rb_tree_iteratorIPN3zmq5own_tEES4_EC1IS4_S4_vEEOT_OT0_
          38 .eh_frame$_ZNSt4pairISt17_Rb_tree_iteratorIPN3zmq5own_tEEbEC1IS4_bvEEOT_OT0_
          E0 .eh_frame$_ZNSt4pairISt17_Rb_tree_iteratorIPN3zmq6pipe_tEES4_EC1IS4_S4_vEEOT_OT0_
          A8 .eh_frame$_ZNSt4pairISt17_Rb_tree_iteratorIPN3zmq6pipe_tEEbEC1IS4_bvEEOT_OT0_
          38 .eh_frame$_ZNSt4pairISt17_Rb_tree_iteratorIS_IKN3zmq6blob_tENS1_21routing_socket_base_t10out_pipe_tEEES7_EC1IS7_S7_vEEOT_OT0_
          38 .eh_frame$_ZNSt4pairISt17_Rb_tree_iteratorIS_IKN3zmq6blob_tENS1_21routing_socket_base_t10out_pipe_tEEEbEC1IS7_bvEEOT_OT0_
          38 .eh_frame$_ZNSt4pairISt17_Rb_tree_iteratorIS_IKNSt7__cxx1112basic_stringIcSt11char_traitsIcESaIcEEEN3zmq10endpoint_tEEEbEC1ISB_bvEEOT_OT0_
          38 .eh_frame$_ZNSt4pairISt17_Rb_tree_iteratorIS_IKNSt7__cxx1112basic_stringIcSt11char_traitsIcESaIcEEEN3zmq5ctx_t20pending_connection_tEEESC_EC1ISC_SC_vEEOT_OT0_
          70 .eh_frame$_ZNSt4pairISt17_Rb_tree_iteratorIS_IKNSt7__cxx1112basic_stringIcSt11char_traitsIcESaIcEEEPN3zmq6pipe_tEEESC_EC1ISC_SC_vEEOT_OT0_
          A8 .eh_frame$_ZNSt4pairISt17_Rb_tree_iteratorIS_IKNSt7__cxx1112basic_stringIcSt11char_traitsIcESaIcEEES6_EEbEC1IS9_bvEEOT_OT0_
          38 .eh_frame$_ZNSt4pairISt17_Rb_tree_iteratorIS_IKNSt7__cxx1112basic_stringIcSt11char_traitsIcESaIcEEES_IPN3zmq5own_tEPNS8_6pipe_tEEEESF_EC1Ev
          38 .eh_frame$_ZNSt4pairISt17_Rb_tree_iteratorIS_IKNSt7__cxx1112basic_stringIcSt11char_traitsIcESaIcEEES_IPN3zmq5own_tEPNS8_6pipe_tEEEESF_EC1ISF_SF_vEEOT_OT0_
          38 .eh_frame$_ZNSt4pairISt17_Rb_tree_iteratorIS_IKNSt7__cxx1112basic_stringIcSt11char_traitsIcESaIcEEES_IPN3zmq5own_tEPNS8_6pipe_tEEEESF_EaSEOSG_
          38 .eh_frame$_ZNSt4pairISt17_Rb_tree_iteratorIS_IKjN3zmq8server_t9outpipe_tEEEbEC1IS6_bvEEOT_OT0_
          70 .eh_frame$_ZNSt4pairISt17_Rb_tree_iteratorIiES1_EC1IS1_S1_vEEOT_OT0_
          70 .eh_frame$_ZNSt4pairISt17_Rb_tree_iteratorIiEbEC1IS1_bvEEOT_OT0_
          38 .eh_frame$_ZNSt4pairISt23_Rb_tree_const_iteratorINSt7__cxx1112basic_stringIcSt11char_traitsIcESaIcEEEEbEC1IRSt17_Rb_tree_iteratorIS6_ERbvEEOT_OT0_
          38 .eh_frame$_ZNSt4pairISt23_Rb_tree_const_iteratorIPN3zmq5own_tEEbEC1IRSt17_Rb_tree_iteratorIS3_ERbvEEOT_OT0_
          A8 .eh_frame$_ZNSt4pairISt23_Rb_tree_const_iteratorIPN3zmq6pipe_tEEbEC1IRSt17_Rb_tree_iteratorIS3_ERbvEEOT_OT0_
          38 .eh_frame$_ZNSt4pairISt23_Rb_tree_const_iteratorIS_IKNSt7__cxx1112basic_stringIcSt11char_traitsIcESaIcEEES_IPN3zmq5own_tEPNS8_6pipe_tEEEESF_EC1ISF_SF_vEEOT_OT0_
          70 .eh_frame$_ZNSt4pairISt23_Rb_tree_const_iteratorIiEbEC1IRSt17_Rb_tree_iteratorIiERbvEEOT_OT0_
          38 .eh_frame$_ZNSt4pairIjtEC1IRjtvEEOT_OT0_
          38 .eh_frame$_ZNSt4pairIjtEaSERKS0_
          38 .eh_frame$_ZNSt5dequeIN3zmq6blob_tESaIS1_EE12emplace_backIJS1_EEEvDpOT_
          38 .eh_frame$_ZNSt5dequeIN3zmq6blob_tESaIS1_EE14_S_buffer_sizeEv
          38 .eh_frame$_ZNSt5dequeIN3zmq6blob_tESaIS1_EE15_M_destroy_dataESt15_Deque_iteratorIS1_RS1_PS1_ES7_RKS2_
          3C .eh_frame$_ZNSt5dequeIN3zmq6blob_tESaIS1_EE16_M_pop_front_auxEv
          48 .eh_frame$_ZNSt5dequeIN3zmq6blob_tESaIS1_EE16_M_push_back_auxIJS1_EEEvDpOT_
          3C .eh_frame$_ZNSt5dequeIN3zmq6blob_tESaIS1_EE17_M_reallocate_mapEjb
          40 .eh_frame$_ZNSt5dequeIN3zmq6blob_tESaIS1_EE19_M_destroy_data_auxESt15_Deque_iteratorIS1_RS1_PS1_ES7_
          3C .eh_frame$_ZNSt5dequeIN3zmq6blob_tESaIS1_EE22_M_reserve_map_at_backEj
          38 .eh_frame$_ZNSt5dequeIN3zmq6blob_tESaIS1_EE3endEv
          38 .eh_frame$_ZNSt5dequeIN3zmq6blob_tESaIS1_EE5beginEv
          38 .eh_frame$_ZNSt5dequeIN3zmq6blob_tESaIS1_EE5frontEv
          44 .eh_frame$_ZNSt5dequeIN3zmq6blob_tESaIS1_EE9pop_frontEv
          38 .eh_frame$_ZNSt5dequeIN3zmq6blob_tESaIS1_EE9push_backEOS1_
          38 .eh_frame$_ZNSt5dequeIN3zmq6blob_tESaIS1_EEC1Ev
          48 .eh_frame$_ZNSt5dequeIN3zmq6blob_tESaIS1_EED1Ev
          38 .eh_frame$_ZNSt5dequeIPN3zmq10metadata_tESaIS2_EE12emplace_backIJS2_EEEvDpOT_
          38 .eh_frame$_ZNSt5dequeIPN3zmq10metadata_tESaIS2_EE15_M_destroy_dataESt15_Deque_iteratorIS2_RS2_PS2_ES8_RKS3_
          3C .eh_frame$_ZNSt5dequeIPN3zmq10metadata_tESaIS2_EE16_M_pop_front_auxEv
          48 .eh_frame$_ZNSt5dequeIPN3zmq10metadata_tESaIS2_EE16_M_push_back_auxIJRKS2_EEEvDpOT_
          48 .eh_frame$_ZNSt5dequeIPN3zmq10metadata_tESaIS2_EE16_M_push_back_auxIJS2_EEEvDpOT_
          3C .eh_frame$_ZNSt5dequeIPN3zmq10metadata_tESaIS2_EE17_M_reallocate_mapEjb
          3C .eh_frame$_ZNSt5dequeIPN3zmq10metadata_tESaIS2_EE22_M_reserve_map_at_backEj
          38 .eh_frame$_ZNSt5dequeIPN3zmq10metadata_tESaIS2_EE3endEv
          38 .eh_frame$_ZNSt5dequeIPN3zmq10metadata_tESaIS2_EE5beginEv
          38 .eh_frame$_ZNSt5dequeIPN3zmq10metadata_tESaIS2_EE5frontEv
          44 .eh_frame$_ZNSt5dequeIPN3zmq10metadata_tESaIS2_EE9pop_frontEv
          38 .eh_frame$_ZNSt5dequeIPN3zmq10metadata_tESaIS2_EE9push_backEOS2_
          38 .eh_frame$_ZNSt5dequeIPN3zmq10metadata_tESaIS2_EE9push_backERKS2_
          38 .eh_frame$_ZNSt5dequeIPN3zmq10metadata_tESaIS2_EEC1Ev
          48 .eh_frame$_ZNSt5dequeIPN3zmq10metadata_tESaIS2_EED1Ev
          38 .eh_frame$_ZNSt5dequeIPN3zmq6pipe_tESaIS2_EE12emplace_backIJS2_EEEvDpOT_
          38 .eh_frame$_ZNSt5dequeIPN3zmq6pipe_tESaIS2_EE15_M_destroy_dataESt15_Deque_iteratorIS2_RS2_PS2_ES8_RKS3_
          3C .eh_frame$_ZNSt5dequeIPN3zmq6pipe_tESaIS2_EE16_M_pop_front_auxEv
          48 .eh_frame$_ZNSt5dequeIPN3zmq6pipe_tESaIS2_EE16_M_push_back_auxIJRKS2_EEEvDpOT_
          48 .eh_frame$_ZNSt5dequeIPN3zmq6pipe_tESaIS2_EE16_M_push_back_auxIJS2_EEEvDpOT_
          3C .eh_frame$_ZNSt5dequeIPN3zmq6pipe_tESaIS2_EE17_M_reallocate_mapEjb
          3C .eh_frame$_ZNSt5dequeIPN3zmq6pipe_tESaIS2_EE22_M_reserve_map_at_backEj
          38 .eh_frame$_ZNSt5dequeIPN3zmq6pipe_tESaIS2_EE3endEv
          38 .eh_frame$_ZNSt5dequeIPN3zmq6pipe_tESaIS2_EE5beginEv
          38 .eh_frame$_ZNSt5dequeIPN3zmq6pipe_tESaIS2_EE5frontEv
          44 .eh_frame$_ZNSt5dequeIPN3zmq6pipe_tESaIS2_EE9pop_frontEv
          38 .eh_frame$_ZNSt5dequeIPN3zmq6pipe_tESaIS2_EE9push_backEOS2_
          38 .eh_frame$_ZNSt5dequeIPN3zmq6pipe_tESaIS2_EE9push_backERKS2_
          38 .eh_frame$_ZNSt5dequeIPN3zmq6pipe_tESaIS2_EEC1Ev
          48 .eh_frame$_ZNSt5dequeIPN3zmq6pipe_tESaIS2_EED1Ev
          38 .eh_frame$_ZNSt5dequeIhSaIhEE12emplace_backIJhEEEvDpOT_
          38 .eh_frame$_ZNSt5dequeIhSaIhEE15_M_destroy_dataESt15_Deque_iteratorIhRhPhES5_RKS0_
          3C .eh_frame$_ZNSt5dequeIhSaIhEE16_M_pop_front_auxEv
          48 .eh_frame$_ZNSt5dequeIhSaIhEE16_M_push_back_auxIJhEEEvDpOT_
          3C .eh_frame$_ZNSt5dequeIhSaIhEE17_M_reallocate_mapEjb
          3C .eh_frame$_ZNSt5dequeIhSaIhEE22_M_reserve_map_at_backEj
          38 .eh_frame$_ZNSt5dequeIhSaIhEE3endEv
          38 .eh_frame$_ZNSt5dequeIhSaIhEE5beginEv
          38 .eh_frame$_ZNSt5dequeIhSaIhEE5frontEv
          44 .eh_frame$_ZNSt5dequeIhSaIhEE9pop_frontEv
          38 .eh_frame$_ZNSt5dequeIhSaIhEE9push_backEOh
          38 .eh_frame$_ZNSt5dequeIhSaIhEEC1Ev
          48 .eh_frame$_ZNSt5dequeIhSaIhEED1Ev
          38 .eh_frame$_ZNSt5mutex13native_handleEv
          38 .eh_frame$_ZNSt5mutex4lockEv
          38 .eh_frame$_ZNSt5mutex6unlockEv
          38 .eh_frame$_ZNSt5mutexC1Ev
          38 .eh_frame$_ZNSt5mutexD1Ev
          38 .eh_frame$_ZNSt5tupleIJONSt7__cxx1112basic_stringIcSt11char_traitsIcESaIcEEEEEC1EOS7_
          38 .eh_frame$_ZNSt5tupleIJONSt7__cxx1112basic_stringIcSt11char_traitsIcESaIcEEEEEC1IJS5_EvEEDpOT_
          38 .eh_frame$_ZNSt5tupleIJRKtEEC1EOS2_
          38 .eh_frame$_ZNSt5tupleIJRKtEEC1ES1_
          3C .eh_frame$_ZNSt6atomicIPN3zmq5msg_tEE23compare_exchange_strongERS2_S2_St12memory_order
          38 .eh_frame$_ZNSt6atomicIPN3zmq5msg_tEEC1Ev
          38 .eh_frame$_ZNSt6atomicIPN3zmq5msg_tEEaSES2_
          38 .eh_frame$_ZNSt6atomicIPN3zmq8yqueue_tINS0_5msg_tELi256EE7chunk_tEE8exchangeES5_St12memory_order
          38 .eh_frame$_ZNSt6atomicIPN3zmq8yqueue_tINS0_5msg_tELi256EE7chunk_tEEC1Ev
          38 .eh_frame$_ZNSt6atomicIPN3zmq8yqueue_tINS0_5msg_tELi256EE7chunk_tEEaSES5_
          70 .eh_frame$_ZNSt6atomicIPN3zmq8yqueue_tINS0_9command_tELi16EE7chunk_tEE8exchangeES5_St12memory_order
          70 .eh_frame$_ZNSt6atomicIPN3zmq8yqueue_tINS0_9command_tELi16EE7chunk_tEEC1Ev
          70 .eh_frame$_ZNSt6atomicIPN3zmq8yqueue_tINS0_9command_tELi16EE7chunk_tEEaSES5_
          78 .eh_frame$_ZNSt6atomicIPN3zmq9command_tEE23compare_exchange_strongERS2_S2_St12memory_order
          70 .eh_frame$_ZNSt6atomicIPN3zmq9command_tEEC1Ev
          70 .eh_frame$_ZNSt6atomicIPN3zmq9command_tEEaSES2_
         188 .eh_frame$_ZNSt6atomicIiEC1Ei
         188 .eh_frame$_ZNSt6atomicIjEC1Ej
          38 .eh_frame$_ZNSt6chrono10time_pointINS_3_V212system_clockENS_8durationIxSt5ratioILx1ELx1000000000EEEEEC1ERKS6_
          38 .eh_frame$_ZNSt6chrono10time_pointINS_3_V212system_clockENS_8durationIxSt5ratioILx1ELx1EEEEEC1ERKS6_
          38 .eh_frame$_ZNSt6chrono13duration_castINS_8durationIxSt5ratioILx1ELx1000000000EEEExS2_ILx1ELx1000EEEENSt9enable_ifIXsrNS_13__is_durationIT_EE5valueES8_E4typeERKNS1_IT0_T1_EE
          38 .eh_frame$_ZNSt6chrono13duration_castINS_8durationIxSt5ratioILx1ELx1000000000EEEExS2_ILx1ELx1EEEENSt9enable_ifIXsrNS_13__is_durationIT_EE5valueES8_E4typeERKNS1_IT0_T1_EE
          38 .eh_frame$_ZNSt6chrono13duration_castINS_8durationIxSt5ratioILx1ELx1000000000EEEExS3_EENSt9enable_ifIXsrNS_13__is_durationIT_EE5valueES7_E4typeERKNS1_IT0_T1_EE
          38 .eh_frame$_ZNSt6chrono13duration_castINS_8durationIxSt5ratioILx1ELx1EEEExS2_ILx1ELx1000000000EEEENSt9enable_ifIXsrNS_13__is_durationIT_EE5valueES8_E4typeERKNS1_IT0_T1_EE
          38 .eh_frame$_ZNSt6chrono15time_point_castINS_8durationIxSt5ratioILx1ELx1EEEENS_3_V212system_clockENS1_IxS2_ILx1ELx1000000000EEEEEENSt9enable_ifIXsrNS_13__is_durationIT_EE5valueENS_10time_pointIT0_SB_EEE4typeERKNSD_ISE_T1_EE
          3C .eh_frame$_ZNSt6chrono20__duration_cast_implINS_8durationIxSt5ratioILx1ELx1000000000EEEES2_ILx1000000000ELx1EExLb0ELb1EE6__castIxS2_ILx1ELx1EEEES4_RKNS1_IT_T0_EE
          3C .eh_frame$_ZNSt6chrono20__duration_cast_implINS_8durationIxSt5ratioILx1ELx1000000000EEEES2_ILx1000000ELx1EExLb0ELb1EE6__castIxS2_ILx1ELx1000EEEES4_RKNS1_IT_T0_EE
          38 .eh_frame$_ZNSt6chrono20__duration_cast_implINS_8durationIxSt5ratioILx1ELx1000000000EEEES2_ILx1ELx1EExLb1ELb1EE6__castIxS3_EES4_RKNS1_IT_T0_EE
          38 .eh_frame$_ZNSt6chrono20__duration_cast_implINS_8durationIxSt5ratioILx1ELx1EEEES2_ILx1ELx1000000000EExLb1ELb0EE6__castIxS5_EES4_RKNS1_IT_T0_EE
          38 .eh_frame$_ZNSt6chrono8durationIxSt5ratioILx1ELx1000000000EEEC1IxS1_ILx1ELx1000EEvEERKNS0_IT_T0_EE
          38 .eh_frame$_ZNSt6chrono8durationIxSt5ratioILx1ELx1000000000EEEC1IxS1_ILx1ELx1EEvEERKNS0_IT_T0_EE
          38 .eh_frame$_ZNSt6chrono8durationIxSt5ratioILx1ELx1000000000EEEC1IxvEERKT_
          38 .eh_frame$_ZNSt6chrono8durationIxSt5ratioILx1ELx1000EEEC1IivEERKT_
          38 .eh_frame$_ZNSt6chrono8durationIxSt5ratioILx1ELx1EEEC1IxvEERKT_
          38 .eh_frame$_ZNSt6chronoltINS_3_V212system_clockENS_8durationIxSt5ratioILx1ELx1000000000EEEES6_EEbRKNS_10time_pointIT_T0_EERKNS7_IS8_T1_EE
          40 .eh_frame$_ZNSt6chronoltIxSt5ratioILx1ELx1000000000EExS2_EEbRKNS_8durationIT_T0_EERKNS3_IT1_T2_EE
          38 .eh_frame$_ZNSt6chronomiINS_3_V212system_clockENS_8durationIxSt5ratioILx1ELx1000000000EEEENS3_IxS4_ILx1ELx1EEEEEENSt11common_typeIJT0_T1_EE4typeERKNS_10time_pointIT_SA_EERKNSE_ISF_SB_EE
          40 .eh_frame$_ZNSt6chronomiIxSt5ratioILx1ELx1000000000EExS1_ILx1ELx1EEEENSt11common_typeIJNS_8durationIT_T0_EENS5_IT1_T2_EEEE4typeERKS8_RKSB_
          38 .eh_frame$_ZNSt6chronoplINS_3_V212system_clockENS_8durationIxSt5ratioILx1ELx1000000000EEEExS4_ILx1ELx1000EEEENS_10time_pointIT_NSt11common_typeIJT0_NS3_IT1_T2_EEEE4typeEEERKNS8_IS9_SB_EERKSE_
          40 .eh_frame$_ZNSt6chronoplIxSt5ratioILx1ELx1000000000EExS1_ILx1ELx1000EEEENSt11common_typeIJNS_8durationIT_T0_EENS5_IT1_T2_EEEE4typeERKS8_RKSB_
          48 .eh_frame$_ZNSt6vectorIN3zmq15socket_poller_t6item_tESaIS2_EE19_M_emplace_back_auxIJRKS2_EEEvDpOT_
          38 .eh_frame$_ZNSt6vectorIN3zmq15socket_poller_t6item_tESaIS2_EE3endEv
          38 .eh_frame$_ZNSt6vectorIN3zmq15socket_poller_t6item_tESaIS2_EE5beginEv
          3C .eh_frame$_ZNSt6vectorIN3zmq15socket_poller_t6item_tESaIS2_EE5eraseEN9__gnu_cxx17__normal_iteratorIPKS2_S4_EE
          3C .eh_frame$_ZNSt6vectorIN3zmq15socket_poller_t6item_tESaIS2_EE8_M_eraseEN9__gnu_cxx17__normal_iteratorIPS2_S4_EE
          38 .eh_frame$_ZNSt6vectorIN3zmq15socket_poller_t6item_tESaIS2_EE9push_backERKS2_
          44 .eh_frame$_ZNSt6vectorIN3zmq15socket_poller_t6item_tESaIS2_EEC1Ev
          44 .eh_frame$_ZNSt6vectorIN3zmq15socket_poller_t6item_tESaIS2_EED1Ev
          44 .eh_frame$_ZNSt6vectorIN3zmq18tcp_address_mask_tESaIS1_EE15_M_erase_at_endEPS1_
          48 .eh_frame$_ZNSt6vectorIN3zmq18tcp_address_mask_tESaIS1_EE19_M_emplace_back_auxIJRKS1_EEEvDpOT_
          38 .eh_frame$_ZNSt6vectorIN3zmq18tcp_address_mask_tESaIS1_EE5clearEv
          38 .eh_frame$_ZNSt6vectorIN3zmq18tcp_address_mask_tESaIS1_EE9push_backERKS1_
          38 .eh_frame$_ZNSt6vectorIN3zmq18tcp_address_mask_tESaIS1_EEC1EOS3_
         1E0 .eh_frame$_ZNSt6vectorIN3zmq18tcp_address_mask_tESaIS1_EEC1ERKS3_
          44 .eh_frame$_ZNSt6vectorIN3zmq18tcp_address_mask_tESaIS1_EEC1Ev
         1DC .eh_frame$_ZNSt6vectorIN3zmq18tcp_address_mask_tESaIS1_EED1Ev
          38 .eh_frame$_ZNSt6vectorIN3zmq18tcp_address_mask_tESaIS1_EEixEj
          44 .eh_frame$_ZNSt6vectorIN3zmq8select_t10fd_entry_tESaIS2_EE15_M_erase_at_endEPS2_
          48 .eh_frame$_ZNSt6vectorIN3zmq8select_t10fd_entry_tESaIS2_EE19_M_emplace_back_auxIJRKS2_EEEvDpOT_
          38 .eh_frame$_ZNSt6vectorIN3zmq8select_t10fd_entry_tESaIS2_EE3endEv
          38 .eh_frame$_ZNSt6vectorIN3zmq8select_t10fd_entry_tESaIS2_EE5beginEv
          3C .eh_frame$_ZNSt6vectorIN3zmq8select_t10fd_entry_tESaIS2_EE5eraseEN9__gnu_cxx17__normal_iteratorIPKS2_S4_EE
          3C .eh_frame$_ZNSt6vectorIN3zmq8select_t10fd_entry_tESaIS2_EE5eraseEN9__gnu_cxx17__normal_iteratorIPKS2_S4_EES9_
          3C .eh_frame$_ZNSt6vectorIN3zmq8select_t10fd_entry_tESaIS2_EE8_M_eraseEN9__gnu_cxx17__normal_iteratorIPS2_S4_EE
          3C .eh_frame$_ZNSt6vectorIN3zmq8select_t10fd_entry_tESaIS2_EE8_M_eraseEN9__gnu_cxx17__normal_iteratorIPS2_S4_EES8_
          38 .eh_frame$_ZNSt6vectorIN3zmq8select_t10fd_entry_tESaIS2_EE9push_backERKS2_
          44 .eh_frame$_ZNSt6vectorIN3zmq8select_t10fd_entry_tESaIS2_EEC1Ev
          44 .eh_frame$_ZNSt6vectorIN3zmq8select_t10fd_entry_tESaIS2_EED1Ev
          44 .eh_frame$_ZNSt6vectorIPN3zmq10signaler_tESaIS2_EE15_M_erase_at_endEPS2_
          48 .eh_frame$_ZNSt6vectorIPN3zmq10signaler_tESaIS2_EE19_M_emplace_back_auxIJRKS2_EEEvDpOT_
          38 .eh_frame$_ZNSt6vectorIPN3zmq10signaler_tESaIS2_EE3endEv
          38 .eh_frame$_ZNSt6vectorIPN3zmq10signaler_tESaIS2_EE5beginEv
          38 .eh_frame$_ZNSt6vectorIPN3zmq10signaler_tESaIS2_EE5clearEv
          3C .eh_frame$_ZNSt6vectorIPN3zmq10signaler_tESaIS2_EE5eraseEN9__gnu_cxx17__normal_iteratorIPKS2_S4_EE
          3C .eh_frame$_ZNSt6vectorIPN3zmq10signaler_tESaIS2_EE8_M_eraseEN9__gnu_cxx17__normal_iteratorIPS2_S4_EE
          38 .eh_frame$_ZNSt6vectorIPN3zmq10signaler_tESaIS2_EE9push_backERKS2_
          44 .eh_frame$_ZNSt6vectorIPN3zmq10signaler_tESaIS2_EEC1Ev
          44 .eh_frame$_ZNSt6vectorIPN3zmq10signaler_tESaIS2_EED1Ev
          48 .eh_frame$_ZNSt6vectorIPN3zmq11io_thread_tESaIS2_EE19_M_emplace_back_auxIJRKS2_EEEvDpOT_
          38 .eh_frame$_ZNSt6vectorIPN3zmq11io_thread_tESaIS2_EE9push_backERKS2_
          44 .eh_frame$_ZNSt6vectorIPN3zmq11io_thread_tESaIS2_EEC1Ev
          44 .eh_frame$_ZNSt6vectorIPN3zmq11io_thread_tESaIS2_EED1Ev
          38 .eh_frame$_ZNSt6vectorIPN3zmq11io_thread_tESaIS2_EEixEj
          48 .eh_frame$_ZNSt6vectorIPN3zmq13socket_base_tESaIS2_EE19_M_emplace_back_auxIJRKS2_EEEvDpOT_
          38 .eh_frame$_ZNSt6vectorIPN3zmq13socket_base_tESaIS2_EE3endEv
          38 .eh_frame$_ZNSt6vectorIPN3zmq13socket_base_tESaIS2_EE4backEv
          44 .eh_frame$_ZNSt6vectorIPN3zmq13socket_base_tESaIS2_EE8pop_backEv
          38 .eh_frame$_ZNSt6vectorIPN3zmq13socket_base_tESaIS2_EE9push_backERKS2_
          44 .eh_frame$_ZNSt6vectorIPN3zmq13socket_base_tESaIS2_EEC1Ev
          44 .eh_frame$_ZNSt6vectorIPN3zmq13socket_base_tESaIS2_EED1Ev
          38 .eh_frame$_ZNSt6vectorIPN3zmq13socket_base_tESaIS2_EEixEj
         168 .eh_frame$_ZNSt6vectorIPN3zmq6pipe_tESaIS2_EE19_M_emplace_back_auxIJRKS2_EEEvDpOT_
         118 .eh_frame$_ZNSt6vectorIPN3zmq6pipe_tESaIS2_EE3endEv
          E0 .eh_frame$_ZNSt6vectorIPN3zmq6pipe_tESaIS2_EE4backEv
          38 .eh_frame$_ZNSt6vectorIPN3zmq6pipe_tESaIS2_EE5beginEv
          3C .eh_frame$_ZNSt6vectorIPN3zmq6pipe_tESaIS2_EE5eraseEN9__gnu_cxx17__normal_iteratorIPKS2_S4_EE
          3C .eh_frame$_ZNSt6vectorIPN3zmq6pipe_tESaIS2_EE8_M_eraseEN9__gnu_cxx17__normal_iteratorIPS2_S4_EE
         110 .eh_frame$_ZNSt6vectorIPN3zmq6pipe_tESaIS2_EE8pop_backEv
         118 .eh_frame$_ZNSt6vectorIPN3zmq6pipe_tESaIS2_EE9push_backERKS2_
         154 .eh_frame$_ZNSt6vectorIPN3zmq6pipe_tESaIS2_EEC1Ev
         154 .eh_frame$_ZNSt6vectorIPN3zmq6pipe_tESaIS2_EED1Ev
          E0 .eh_frame$_ZNSt6vectorIPN3zmq6pipe_tESaIS2_EEixEj
          50 .eh_frame$_ZNSt6vectorIPN3zmq9i_mailboxESaIS2_EE14_M_fill_insertEN9__gnu_cxx17__normal_iteratorIPS2_S4_EEjRKS2_
          44 .eh_frame$_ZNSt6vectorIPN3zmq9i_mailboxESaIS2_EE15_M_erase_at_endEPS2_
          48 .eh_frame$_ZNSt6vectorIPN3zmq9i_mailboxESaIS2_EE17_M_default_appendEj
          48 .eh_frame$_ZNSt6vectorIPN3zmq9i_mailboxESaIS2_EE20_M_allocate_and_copyISt13move_iteratorIPS2_EEES7_jT_S9_
          38 .eh_frame$_ZNSt6vectorIPN3zmq9i_mailboxESaIS2_EE3endEv
          38 .eh_frame$_ZNSt6vectorIPN3zmq9i_mailboxESaIS2_EE5beginEv
          38 .eh_frame$_ZNSt6vectorIPN3zmq9i_mailboxESaIS2_EE5clearEv
          38 .eh_frame$_ZNSt6vectorIPN3zmq9i_mailboxESaIS2_EE6insertEN9__gnu_cxx17__normal_iteratorIPKS2_S4_EEjRS7_
          38 .eh_frame$_ZNSt6vectorIPN3zmq9i_mailboxESaIS2_EE6resizeEj
          3C .eh_frame$_ZNSt6vectorIPN3zmq9i_mailboxESaIS2_EE6resizeEjRKS2_
          3C .eh_frame$_ZNSt6vectorIPN3zmq9i_mailboxESaIS2_EE7reserveEj
          44 .eh_frame$_ZNSt6vectorIPN3zmq9i_mailboxESaIS2_EEC1Ev
          44 .eh_frame$_ZNSt6vectorIPN3zmq9i_mailboxESaIS2_EED1Ev
          38 .eh_frame$_ZNSt6vectorIPN3zmq9i_mailboxESaIS2_EEixEj
          38 .eh_frame$_ZNSt6vectorIhN3zmq18secure_allocator_tIhEEE18_M_fill_initializeEjRKh
          70 .eh_frame$_ZNSt6vectorIhN3zmq18secure_allocator_tIhEEE21_M_default_initializeEj
          70 .eh_frame$_ZNSt6vectorIhN3zmq18secure_allocator_tIhEEE5beginEv
          90 .eh_frame$_ZNSt6vectorIhN3zmq18secure_allocator_tIhEEEC1EjRKS2_
          48 .eh_frame$_ZNSt6vectorIhN3zmq18secure_allocator_tIhEEEC1EjRKhRKS2_
          88 .eh_frame$_ZNSt6vectorIhN3zmq18secure_allocator_tIhEEED1Ev
          70 .eh_frame$_ZNSt6vectorIhN3zmq18secure_allocator_tIhEEEixEj
          48 .eh_frame$_ZNSt6vectorIhSaIhEE19_M_emplace_back_auxIJRKhEEEvDpOT_
          A8 .eh_frame$_ZNSt6vectorIhSaIhEE21_M_default_initializeEj
          A8 .eh_frame$_ZNSt6vectorIhSaIhEE5beginEv
          44 .eh_frame$_ZNSt6vectorIhSaIhEE8pop_backEv
          38 .eh_frame$_ZNSt6vectorIhSaIhEE9push_backERKh
          D8 .eh_frame$_ZNSt6vectorIhSaIhEEC1EjRKS0_
          44 .eh_frame$_ZNSt6vectorIhSaIhEEC1Ev
         110 .eh_frame$_ZNSt6vectorIhSaIhEED1Ev
          E0 .eh_frame$_ZNSt6vectorIhSaIhEEixEj
          38 .eh_frame$_ZNSt6vectorIjSaIjEE12emplace_backIJjEEEvDpOT_
          44 .eh_frame$_ZNSt6vectorIjSaIjEE15_M_erase_at_endEPj
          48 .eh_frame$_ZNSt6vectorIjSaIjEE17_M_default_appendEj
          48 .eh_frame$_ZNSt6vectorIjSaIjEE19_M_emplace_back_auxIJRKjEEEvDpOT_
          48 .eh_frame$_ZNSt6vectorIjSaIjEE19_M_emplace_back_auxIJjEEEvDpOT_
          48 .eh_frame$_ZNSt6vectorIjSaIjEE20_M_allocate_and_copyISt13move_iteratorIPjEEES4_jT_S6_
          38 .eh_frame$_ZNSt6vectorIjSaIjEE3endEv
          38 .eh_frame$_ZNSt6vectorIjSaIjEE4backEv
          38 .eh_frame$_ZNSt6vectorIjSaIjEE6resizeEj
          3C .eh_frame$_ZNSt6vectorIjSaIjEE7reserveEj
          44 .eh_frame$_ZNSt6vectorIjSaIjEE8pop_backEv
          38 .eh_frame$_ZNSt6vectorIjSaIjEE9push_backEOj
          38 .eh_frame$_ZNSt6vectorIjSaIjEE9push_backERKj
          88 .eh_frame$_ZNSt6vectorIjSaIjEEC1Ev
          88 .eh_frame$_ZNSt6vectorIjSaIjEED1Ev
          38 .eh_frame$_ZNSt6vectorIjSaIjEEixEj
          38 .eh_frame$_ZNSt8_Rb_treeIN3zmq6blob_tESt4pairIKS1_NS0_21routing_socket_base_t10out_pipe_tEESt10_Select1stIS6_ESt4lessIS1_ESaIS6_EE11_M_get_nodeEv
          44 .eh_frame$_ZNSt8_Rb_treeIN3zmq6blob_tESt4pairIKS1_NS0_21routing_socket_base_t10out_pipe_tEESt10_Select1stIS6_ESt4lessIS1_ESaIS6_EE11_M_put_nodeEPSt13_Rb_tree_nodeIS6_E
          38 .eh_frame$_ZNSt8_Rb_treeIN3zmq6blob_tESt4pairIKS1_NS0_21routing_socket_base_t10out_pipe_tEESt10_Select1stIS6_ESt4lessIS1_ESaIS6_EE11equal_rangeERS3_
          38 .eh_frame$_ZNSt8_Rb_treeIN3zmq6blob_tESt4pairIKS1_NS0_21routing_socket_base_t10out_pipe_tEESt10_Select1stIS6_ESt4lessIS1_ESaIS6_EE12_M_drop_nodeEPSt13_Rb_tree_nodeIS6_E
          38 .eh_frame$_ZNSt8_Rb_treeIN3zmq6blob_tESt4pairIKS1_NS0_21routing_socket_base_t10out_pipe_tEESt10_Select1stIS6_ESt4lessIS1_ESaIS6_EE12_M_erase_auxESt23_Rb_tree_const_iteratorIS6_E
          3C .eh_frame$_ZNSt8_Rb_treeIN3zmq6blob_tESt4pairIKS1_NS0_21routing_socket_base_t10out_pipe_tEESt10_Select1stIS6_ESt4lessIS1_ESaIS6_EE12_M_erase_auxESt23_Rb_tree_const_iteratorIS6_ESE_
          38 .eh_frame$_ZNSt8_Rb_treeIN3zmq6blob_tESt4pairIKS1_NS0_21routing_socket_base_t10out_pipe_tEESt10_Select1stIS6_ESt4lessIS1_ESaIS6_EE13_Rb_tree_implISA_Lb1EE13_M_initializeEv
          38 .eh_frame$_ZNSt8_Rb_treeIN3zmq6blob_tESt4pairIKS1_NS0_21routing_socket_base_t10out_pipe_tEESt10_Select1stIS6_ESt4lessIS1_ESaIS6_EE13_Rb_tree_implISA_Lb1EE8_M_resetEv
          38 .eh_frame$_ZNSt8_Rb_treeIN3zmq6blob_tESt4pairIKS1_NS0_21routing_socket_base_t10out_pipe_tEESt10_Select1stIS6_ESt4lessIS1_ESaIS6_EE13_Rb_tree_implISA_Lb1EEC1Ev
          38 .eh_frame$_ZNSt8_Rb_treeIN3zmq6blob_tESt4pairIKS1_NS0_21routing_socket_base_t10out_pipe_tEESt10_Select1stIS6_ESt4lessIS1_ESaIS6_EE13_Rb_tree_implISA_Lb1EED1Ev
          3C .eh_frame$_ZNSt8_Rb_treeIN3zmq6blob_tESt4pairIKS1_NS0_21routing_socket_base_t10out_pipe_tEESt10_Select1stIS6_ESt4lessIS1_ESaIS6_EE14_M_create_nodeIJS1_RKS5_EEEPSt13_Rb_tree_nodeIS6_EDpOT_
          3C .eh_frame$_ZNSt8_Rb_treeIN3zmq6blob_tESt4pairIKS1_NS0_21routing_socket_base_t10out_pipe_tEESt10_Select1stIS6_ESt4lessIS1_ESaIS6_EE14_M_insert_nodeEPSt18_Rb_tree_node_baseSE_PSt13_Rb_tree_nodeIS6_E
          38 .eh_frame$_ZNSt8_Rb_treeIN3zmq6blob_tESt4pairIKS1_NS0_21routing_socket_base_t10out_pipe_tEESt10_Select1stIS6_ESt4lessIS1_ESaIS6_EE14_M_lower_boundEPSt13_Rb_tree_nodeIS6_ESF_RS3_
          38 .eh_frame$_ZNSt8_Rb_treeIN3zmq6blob_tESt4pairIKS1_NS0_21routing_socket_base_t10out_pipe_tEESt10_Select1stIS6_ESt4lessIS1_ESaIS6_EE14_M_upper_boundEPSt13_Rb_tree_nodeIS6_ESF_RS3_
          48 .eh_frame$_ZNSt8_Rb_treeIN3zmq6blob_tESt4pairIKS1_NS0_21routing_socket_base_t10out_pipe_tEESt10_Select1stIS6_ESt4lessIS1_ESaIS6_EE15_M_destroy_nodeEPSt13_Rb_tree_nodeIS6_E
          50 .eh_frame$_ZNSt8_Rb_treeIN3zmq6blob_tESt4pairIKS1_NS0_21routing_socket_base_t10out_pipe_tEESt10_Select1stIS6_ESt4lessIS1_ESaIS6_EE17_M_construct_nodeIJS1_RKS5_EEEvPSt13_Rb_tree_nodeIS6_EDpOT_
          48 .eh_frame$_ZNSt8_Rb_treeIN3zmq6blob_tESt4pairIKS1_NS0_21routing_socket_base_t10out_pipe_tEESt10_Select1stIS6_ESt4lessIS1_ESaIS6_EE17_M_emplace_uniqueIJS1_RKS5_EEES2_ISt17_Rb_tree_iteratorIS6_EbEDpOT_
          38 .eh_frame$_ZNSt8_Rb_treeIN3zmq6blob_tESt4pairIKS1_NS0_21routing_socket_base_t10out_pipe_tEESt10_Select1stIS6_ESt4lessIS1_ESaIS6_EE21_M_get_Node_allocatorEv
          38 .eh_frame$_ZNSt8_Rb_treeIN3zmq6blob_tESt4pairIKS1_NS0_21routing_socket_base_t10out_pipe_tEESt10_Select1stIS6_ESt4lessIS1_ESaIS6_EE24_M_get_insert_unique_posERS3_
          70 .eh_frame$_ZNSt8_Rb_treeIN3zmq6blob_tESt4pairIKS1_NS0_21routing_socket_base_t10out_pipe_tEESt10_Select1stIS6_ESt4lessIS1_ESaIS6_EE3endEv
          48 .eh_frame$_ZNSt8_Rb_treeIN3zmq6blob_tESt4pairIKS1_NS0_21routing_socket_base_t10out_pipe_tEESt10_Select1stIS6_ESt4lessIS1_ESaIS6_EE4findERS3_
          70 .eh_frame$_ZNSt8_Rb_treeIN3zmq6blob_tESt4pairIKS1_NS0_21routing_socket_base_t10out_pipe_tEESt10_Select1stIS6_ESt4lessIS1_ESaIS6_EE5beginEv
          44 .eh_frame$_ZNSt8_Rb_treeIN3zmq6blob_tESt4pairIKS1_NS0_21routing_socket_base_t10out_pipe_tEESt10_Select1stIS6_ESt4lessIS1_ESaIS6_EE5clearEv
          38 .eh_frame$_ZNSt8_Rb_treeIN3zmq6blob_tESt4pairIKS1_NS0_21routing_socket_base_t10out_pipe_tEESt10_Select1stIS6_ESt4lessIS1_ESaIS6_EE5eraseB5cxx11ESt17_Rb_tree_iteratorIS6_E
          38 .eh_frame$_ZNSt8_Rb_treeIN3zmq6blob_tESt4pairIKS1_NS0_21routing_socket_base_t10out_pipe_tEESt10_Select1stIS6_ESt4lessIS1_ESaIS6_EE5eraseB5cxx11ESt23_Rb_tree_const_iteratorIS6_E
          38 .eh_frame$_ZNSt8_Rb_treeIN3zmq6blob_tESt4pairIKS1_NS0_21routing_socket_base_t10out_pipe_tEESt10_Select1stIS6_ESt4lessIS1_ESaIS6_EE5eraseB5cxx11ESt23_Rb_tree_const_iteratorIS6_ESE_
          38 .eh_frame$_ZNSt8_Rb_treeIN3zmq6blob_tESt4pairIKS1_NS0_21routing_socket_base_t10out_pipe_tEESt10_Select1stIS6_ESt4lessIS1_ESaIS6_EE5eraseERS3_
          38 .eh_frame$_ZNSt8_Rb_treeIN3zmq6blob_tESt4pairIKS1_NS0_21routing_socket_base_t10out_pipe_tEESt10_Select1stIS6_ESt4lessIS1_ESaIS6_EE6_M_endEv
          38 .eh_frame$_ZNSt8_Rb_treeIN3zmq6blob_tESt4pairIKS1_NS0_21routing_socket_base_t10out_pipe_tEESt10_Select1stIS6_ESt4lessIS1_ESaIS6_EE6_S_keyEPKSt13_Rb_tree_nodeIS6_E
          38 .eh_frame$_ZNSt8_Rb_treeIN3zmq6blob_tESt4pairIKS1_NS0_21routing_socket_base_t10out_pipe_tEESt10_Select1stIS6_ESt4lessIS1_ESaIS6_EE6_S_keyEPKSt18_Rb_tree_node_base
          38 .eh_frame$_ZNSt8_Rb_treeIN3zmq6blob_tESt4pairIKS1_NS0_21routing_socket_base_t10out_pipe_tEESt10_Select1stIS6_ESt4lessIS1_ESaIS6_EE7_S_leftEPKSt18_Rb_tree_node_base
          38 .eh_frame$_ZNSt8_Rb_treeIN3zmq6blob_tESt4pairIKS1_NS0_21routing_socket_base_t10out_pipe_tEESt10_Select1stIS6_ESt4lessIS1_ESaIS6_EE7_S_leftEPSt18_Rb_tree_node_base
          38 .eh_frame$_ZNSt8_Rb_treeIN3zmq6blob_tESt4pairIKS1_NS0_21routing_socket_base_t10out_pipe_tEESt10_Select1stIS6_ESt4lessIS1_ESaIS6_EE8_M_beginEv
          38 .eh_frame$_ZNSt8_Rb_treeIN3zmq6blob_tESt4pairIKS1_NS0_21routing_socket_base_t10out_pipe_tEESt10_Select1stIS6_ESt4lessIS1_ESaIS6_EE8_M_eraseEPSt13_Rb_tree_nodeIS6_E
          38 .eh_frame$_ZNSt8_Rb_treeIN3zmq6blob_tESt4pairIKS1_NS0_21routing_socket_base_t10out_pipe_tEESt10_Select1stIS6_ESt4lessIS1_ESaIS6_EE8_S_rightEPKSt18_Rb_tree_node_base
          38 .eh_frame$_ZNSt8_Rb_treeIN3zmq6blob_tESt4pairIKS1_NS0_21routing_socket_base_t10out_pipe_tEESt10_Select1stIS6_ESt4lessIS1_ESaIS6_EE8_S_rightEPSt18_Rb_tree_node_base
          38 .eh_frame$_ZNSt8_Rb_treeIN3zmq6blob_tESt4pairIKS1_NS0_21routing_socket_base_t10out_pipe_tEESt10_Select1stIS6_ESt4lessIS1_ESaIS6_EE8_S_valueEPKSt13_Rb_tree_nodeIS6_E
          38 .eh_frame$_ZNSt8_Rb_treeIN3zmq6blob_tESt4pairIKS1_NS0_21routing_socket_base_t10out_pipe_tEESt10_Select1stIS6_ESt4lessIS1_ESaIS6_EE8_S_valueEPKSt18_Rb_tree_node_base
          38 .eh_frame$_ZNSt8_Rb_treeIN3zmq6blob_tESt4pairIKS1_NS0_21routing_socket_base_t10out_pipe_tEESt10_Select1stIS6_ESt4lessIS1_ESaIS6_EEC1Ev
          44 .eh_frame$_ZNSt8_Rb_treeIN3zmq6blob_tESt4pairIKS1_NS0_21routing_socket_base_t10out_pipe_tEESt10_Select1stIS6_ESt4lessIS1_ESaIS6_EED1Ev
          4C .eh_frame$_ZNSt8_Rb_treeINSt7__cxx1112basic_stringIcSt11char_traitsIcESaIcEEES5_St9_IdentityIS5_ESt4lessIS5_ESaIS5_EE10_M_insert_IRKS5_NSB_11_Alloc_nodeEEESt17_Rb_tree_iteratorIS5_EPSt18_Rb_tree_node_baseSJ_OT_RT0_
          38 .eh_frame$_ZNSt8_Rb_treeINSt7__cxx1112basic_stringIcSt11char_traitsIcESaIcEEES5_St9_IdentityIS5_ESt4lessIS5_ESaIS5_EE11_Alloc_nodeC1ERSB_
          38 .eh_frame$_ZNSt8_Rb_treeINSt7__cxx1112basic_stringIcSt11char_traitsIcESaIcEEES5_St9_IdentityIS5_ESt4lessIS5_ESaIS5_EE11_M_get_nodeEv
          44 .eh_frame$_ZNSt8_Rb_treeINSt7__cxx1112basic_stringIcSt11char_traitsIcESaIcEEES5_St9_IdentityIS5_ESt4lessIS5_ESaIS5_EE11_M_put_nodeEPSt13_Rb_tree_nodeIS5_E
          38 .eh_frame$_ZNSt8_Rb_treeINSt7__cxx1112basic_stringIcSt11char_traitsIcESaIcEEES5_St9_IdentityIS5_ESt4lessIS5_ESaIS5_EE11equal_rangeERKS5_
          38 .eh_frame$_ZNSt8_Rb_treeINSt7__cxx1112basic_stringIcSt11char_traitsIcESaIcEEES5_St9_IdentityIS5_ESt4lessIS5_ESaIS5_EE12_M_drop_nodeEPSt13_Rb_tree_nodeIS5_E
          38 .eh_frame$_ZNSt8_Rb_treeINSt7__cxx1112basic_stringIcSt11char_traitsIcESaIcEEES5_St9_IdentityIS5_ESt4lessIS5_ESaIS5_EE12_M_erase_auxESt23_Rb_tree_const_iteratorIS5_E
          3C .eh_frame$_ZNSt8_Rb_treeINSt7__cxx1112basic_stringIcSt11char_traitsIcESaIcEEES5_St9_IdentityIS5_ESt4lessIS5_ESaIS5_EE12_M_erase_auxESt23_Rb_tree_const_iteratorIS5_ESD_
          38 .eh_frame$_ZNSt8_Rb_treeINSt7__cxx1112basic_stringIcSt11char_traitsIcESaIcEEES5_St9_IdentityIS5_ESt4lessIS5_ESaIS5_EE13_Rb_tree_implIS9_Lb1EE13_M_initializeEv
          38 .eh_frame$_ZNSt8_Rb_treeINSt7__cxx1112basic_stringIcSt11char_traitsIcESaIcEEES5_St9_IdentityIS5_ESt4lessIS5_ESaIS5_EE13_Rb_tree_implIS9_Lb1EE8_M_resetEv
          38 .eh_frame$_ZNSt8_Rb_treeINSt7__cxx1112basic_stringIcSt11char_traitsIcESaIcEEES5_St9_IdentityIS5_ESt4lessIS5_ESaIS5_EE13_Rb_tree_implIS9_Lb1EEC1Ev
          38 .eh_frame$_ZNSt8_Rb_treeINSt7__cxx1112basic_stringIcSt11char_traitsIcESaIcEEES5_St9_IdentityIS5_ESt4lessIS5_ESaIS5_EE13_Rb_tree_implIS9_Lb1EED1Ev
          38 .eh_frame$_ZNSt8_Rb_treeINSt7__cxx1112basic_stringIcSt11char_traitsIcESaIcEEES5_St9_IdentityIS5_ESt4lessIS5_ESaIS5_EE14_M_create_nodeIJRKS5_EEEPSt13_Rb_tree_nodeIS5_EDpOT_
          38 .eh_frame$_ZNSt8_Rb_treeINSt7__cxx1112basic_stringIcSt11char_traitsIcESaIcEEES5_St9_IdentityIS5_ESt4lessIS5_ESaIS5_EE14_M_lower_boundEPSt13_Rb_tree_nodeIS5_ESE_RKS5_
          38 .eh_frame$_ZNSt8_Rb_treeINSt7__cxx1112basic_stringIcSt11char_traitsIcESaIcEEES5_St9_IdentityIS5_ESt4lessIS5_ESaIS5_EE14_M_upper_boundEPSt13_Rb_tree_nodeIS5_ESE_RKS5_
          48 .eh_frame$_ZNSt8_Rb_treeINSt7__cxx1112basic_stringIcSt11char_traitsIcESaIcEEES5_St9_IdentityIS5_ESt4lessIS5_ESaIS5_EE15_M_destroy_nodeEPSt13_Rb_tree_nodeIS5_E
          40 .eh_frame$_ZNSt8_Rb_treeINSt7__cxx1112basic_stringIcSt11char_traitsIcESaIcEEES5_St9_IdentityIS5_ESt4lessIS5_ESaIS5_EE16_M_insert_uniqueIRKS5_EESt4pairISt17_Rb_tree_iteratorIS5_EbEOT_
          4C .eh_frame$_ZNSt8_Rb_treeINSt7__cxx1112basic_stringIcSt11char_traitsIcESaIcEEES5_St9_IdentityIS5_ESt4lessIS5_ESaIS5_EE17_M_construct_nodeIJRKS5_EEEvPSt13_Rb_tree_nodeIS5_EDpOT_
          38 .eh_frame$_ZNSt8_Rb_treeINSt7__cxx1112basic_stringIcSt11char_traitsIcESaIcEEES5_St9_IdentityIS5_ESt4lessIS5_ESaIS5_EE21_M_get_Node_allocatorEv
          38 .eh_frame$_ZNSt8_Rb_treeINSt7__cxx1112basic_stringIcSt11char_traitsIcESaIcEEES5_St9_IdentityIS5_ESt4lessIS5_ESaIS5_EE24_M_get_insert_unique_posERKS5_
          38 .eh_frame$_ZNSt8_Rb_treeINSt7__cxx1112basic_stringIcSt11char_traitsIcESaIcEEES5_St9_IdentityIS5_ESt4lessIS5_ESaIS5_EE3endEv
          38 .eh_frame$_ZNSt8_Rb_treeINSt7__cxx1112basic_stringIcSt11char_traitsIcESaIcEEES5_St9_IdentityIS5_ESt4lessIS5_ESaIS5_EE5beginEv
          44 .eh_frame$_ZNSt8_Rb_treeINSt7__cxx1112basic_stringIcSt11char_traitsIcESaIcEEES5_St9_IdentityIS5_ESt4lessIS5_ESaIS5_EE5clearEv
          38 .eh_frame$_ZNSt8_Rb_treeINSt7__cxx1112basic_stringIcSt11char_traitsIcESaIcEEES5_St9_IdentityIS5_ESt4lessIS5_ESaIS5_EE5eraseB5cxx11ESt23_Rb_tree_const_iteratorIS5_E
          38 .eh_frame$_ZNSt8_Rb_treeINSt7__cxx1112basic_stringIcSt11char_traitsIcESaIcEEES5_St9_IdentityIS5_ESt4lessIS5_ESaIS5_EE5eraseB5cxx11ESt23_Rb_tree_const_iteratorIS5_ESD_
          38 .eh_frame$_ZNSt8_Rb_treeINSt7__cxx1112basic_stringIcSt11char_traitsIcESaIcEEES5_St9_IdentityIS5_ESt4lessIS5_ESaIS5_EE5eraseERKS5_
          38 .eh_frame$_ZNSt8_Rb_treeINSt7__cxx1112basic_stringIcSt11char_traitsIcESaIcEEES5_St9_IdentityIS5_ESt4lessIS5_ESaIS5_EE6_M_endEv
          38 .eh_frame$_ZNSt8_Rb_treeINSt7__cxx1112basic_stringIcSt11char_traitsIcESaIcEEES5_St9_IdentityIS5_ESt4lessIS5_ESaIS5_EE6_S_keyEPKSt13_Rb_tree_nodeIS5_E
          38 .eh_frame$_ZNSt8_Rb_treeINSt7__cxx1112basic_stringIcSt11char_traitsIcESaIcEEES5_St9_IdentityIS5_ESt4lessIS5_ESaIS5_EE6_S_keyEPKSt18_Rb_tree_node_base
          38 .eh_frame$_ZNSt8_Rb_treeINSt7__cxx1112basic_stringIcSt11char_traitsIcESaIcEEES5_St9_IdentityIS5_ESt4lessIS5_ESaIS5_EE7_S_leftEPKSt18_Rb_tree_node_base
          38 .eh_frame$_ZNSt8_Rb_treeINSt7__cxx1112basic_stringIcSt11char_traitsIcESaIcEEES5_St9_IdentityIS5_ESt4lessIS5_ESaIS5_EE7_S_leftEPSt18_Rb_tree_node_base
          38 .eh_frame$_ZNSt8_Rb_treeINSt7__cxx1112basic_stringIcSt11char_traitsIcESaIcEEES5_St9_IdentityIS5_ESt4lessIS5_ESaIS5_EE8_M_beginEv
          38 .eh_frame$_ZNSt8_Rb_treeINSt7__cxx1112basic_stringIcSt11char_traitsIcESaIcEEES5_St9_IdentityIS5_ESt4lessIS5_ESaIS5_EE8_M_eraseEPSt13_Rb_tree_nodeIS5_E
          38 .eh_frame$_ZNSt8_Rb_treeINSt7__cxx1112basic_stringIcSt11char_traitsIcESaIcEEES5_St9_IdentityIS5_ESt4lessIS5_ESaIS5_EE8_S_rightEPKSt18_Rb_tree_node_base
          38 .eh_frame$_ZNSt8_Rb_treeINSt7__cxx1112basic_stringIcSt11char_traitsIcESaIcEEES5_St9_IdentityIS5_ESt4lessIS5_ESaIS5_EE8_S_rightEPSt18_Rb_tree_node_base
          38 .eh_frame$_ZNSt8_Rb_treeINSt7__cxx1112basic_stringIcSt11char_traitsIcESaIcEEES5_St9_IdentityIS5_ESt4lessIS5_ESaIS5_EE8_S_valueEPKSt13_Rb_tree_nodeIS5_E
          38 .eh_frame$_ZNSt8_Rb_treeINSt7__cxx1112basic_stringIcSt11char_traitsIcESaIcEEES5_St9_IdentityIS5_ESt4lessIS5_ESaIS5_EE8_S_valueEPKSt18_Rb_tree_node_base
          38 .eh_frame$_ZNSt8_Rb_treeINSt7__cxx1112basic_stringIcSt11char_traitsIcESaIcEEES5_St9_IdentityIS5_ESt4lessIS5_ESaIS5_EEC1Ev
          44 .eh_frame$_ZNSt8_Rb_treeINSt7__cxx1112basic_stringIcSt11char_traitsIcESaIcEEES5_St9_IdentityIS5_ESt4lessIS5_ESaIS5_EED1Ev
          4C .eh_frame$_ZNSt8_Rb_treeINSt7__cxx1112basic_stringIcSt11char_traitsIcESaIcEEESt4pairIKS5_MN3zmq14session_base_tEFPNS8_5own_tEPNS8_11io_thread_tEbEESt10_Select1stISG_ESt4lessIS5_ESaISG_EE10_M_insert_IRSG_NSM_11_Alloc_nodeEEESt17_Rb_tree_iteratorISG_EPSt18_Rb_tree_node_baseST_OT_RT0_
          38 .eh_frame$_ZNSt8_Rb_treeINSt7__cxx1112basic_stringIcSt11char_traitsIcESaIcEEESt4pairIKS5_MN3zmq14session_base_tEFPNS8_5own_tEPNS8_11io_thread_tEbEESt10_Select1stISG_ESt4lessIS5_ESaISG_EE11_Alloc_nodeC1ERSM_
          38 .eh_frame$_ZNSt8_Rb_treeINSt7__cxx1112basic_stringIcSt11char_traitsIcESaIcEEESt4pairIKS5_MN3zmq14session_base_tEFPNS8_5own_tEPNS8_11io_thread_tEbEESt10_Select1stISG_ESt4lessIS5_ESaISG_EE11_M_get_nodeEv
          38 .eh_frame$_ZNSt8_Rb_treeINSt7__cxx1112basic_stringIcSt11char_traitsIcESaIcEEESt4pairIKS5_MN3zmq14session_base_tEFPNS8_5own_tEPNS8_11io_thread_tEbEESt10_Select1stISG_ESt4lessIS5_ESaISG_EE11_M_leftmostEv
          44 .eh_frame$_ZNSt8_Rb_treeINSt7__cxx1112basic_stringIcSt11char_traitsIcESaIcEEESt4pairIKS5_MN3zmq14session_base_tEFPNS8_5own_tEPNS8_11io_thread_tEbEESt10_Select1stISG_ESt4lessIS5_ESaISG_EE11_M_put_nodeEPSt13_Rb_tree_nodeISG_E
          38 .eh_frame$_ZNSt8_Rb_treeINSt7__cxx1112basic_stringIcSt11char_traitsIcESaIcEEESt4pairIKS5_MN3zmq14session_base_tEFPNS8_5own_tEPNS8_11io_thread_tEbEESt10_Select1stISG_ESt4lessIS5_ESaISG_EE12_M_drop_nodeEPSt13_Rb_tree_nodeISG_E
          38 .eh_frame$_ZNSt8_Rb_treeINSt7__cxx1112basic_stringIcSt11char_traitsIcESaIcEEESt4pairIKS5_MN3zmq14session_base_tEFPNS8_5own_tEPNS8_11io_thread_tEbEESt10_Select1stISG_ESt4lessIS5_ESaISG_EE12_M_rightmostEv
          38 .eh_frame$_ZNSt8_Rb_treeINSt7__cxx1112basic_stringIcSt11char_traitsIcESaIcEEESt4pairIKS5_MN3zmq14session_base_tEFPNS8_5own_tEPNS8_11io_thread_tEbEESt10_Select1stISG_ESt4lessIS5_ESaISG_EE13_Rb_tree_implISK_Lb1EE13_M_initializeEv
          38 .eh_frame$_ZNSt8_Rb_treeINSt7__cxx1112basic_stringIcSt11char_traitsIcESaIcEEESt4pairIKS5_MN3zmq14session_base_tEFPNS8_5own_tEPNS8_11io_thread_tEbEESt10_Select1stISG_ESt4lessIS5_ESaISG_EE13_Rb_tree_implISK_Lb1EEC1Ev
          38 .eh_frame$_ZNSt8_Rb_treeINSt7__cxx1112basic_stringIcSt11char_traitsIcESaIcEEESt4pairIKS5_MN3zmq14session_base_tEFPNS8_5own_tEPNS8_11io_thread_tEbEESt10_Select1stISG_ESt4lessIS5_ESaISG_EE13_Rb_tree_implISK_Lb1EED1Ev
          38 .eh_frame$_ZNSt8_Rb_treeINSt7__cxx1112basic_stringIcSt11char_traitsIcESaIcEEESt4pairIKS5_MN3zmq14session_base_tEFPNS8_5own_tEPNS8_11io_thread_tEbEESt10_Select1stISG_ESt4lessIS5_ESaISG_EE14_M_create_nodeIJRSG_EEEPSt13_Rb_tree_nodeISG_EDpOT_
          38 .eh_frame$_ZNSt8_Rb_treeINSt7__cxx1112basic_stringIcSt11char_traitsIcESaIcEEESt4pairIKS5_MN3zmq14session_base_tEFPNS8_5own_tEPNS8_11io_thread_tEbEESt10_Select1stISG_ESt4lessIS5_ESaISG_EE14_M_lower_boundEPSt13_Rb_tree_nodeISG_ESP_RS7_
          48 .eh_frame$_ZNSt8_Rb_treeINSt7__cxx1112basic_stringIcSt11char_traitsIcESaIcEEESt4pairIKS5_MN3zmq14session_base_tEFPNS8_5own_tEPNS8_11io_thread_tEbEESt10_Select1stISG_ESt4lessIS5_ESaISG_EE15_M_destroy_nodeEPSt13_Rb_tree_nodeISG_E
          38 .eh_frame$_ZNSt8_Rb_treeINSt7__cxx1112basic_stringIcSt11char_traitsIcESaIcEEESt4pairIKS5_MN3zmq14session_base_tEFPNS8_5own_tEPNS8_11io_thread_tEbEESt10_Select1stISG_ESt4lessIS5_ESaISG_EE16_M_insert_uniqueIPSG_EEvT_SP_
          4C .eh_frame$_ZNSt8_Rb_treeINSt7__cxx1112basic_stringIcSt11char_traitsIcESaIcEEESt4pairIKS5_MN3zmq14session_base_tEFPNS8_5own_tEPNS8_11io_thread_tEbEESt10_Select1stISG_ESt4lessIS5_ESaISG_EE17_M_construct_nodeIJRSG_EEEvPSt13_Rb_tree_nodeISG_EDpOT_
          40 .eh_frame$_ZNSt8_Rb_treeINSt7__cxx1112basic_stringIcSt11char_traitsIcESaIcEEESt4pairIKS5_MN3zmq14session_base_tEFPNS8_5own_tEPNS8_11io_thread_tEbEESt10_Select1stISG_ESt4lessIS5_ESaISG_EE17_M_insert_unique_IRSG_NSM_11_Alloc_nodeEEESt17_Rb_tree_iteratorISG_ESt23_Rb_tree_const_iteratorISG_EOT_RT0_
          38 .eh_frame$_ZNSt8_Rb_treeINSt7__cxx1112basic_stringIcSt11char_traitsIcESaIcEEESt4pairIKS5_MN3zmq14session_base_tEFPNS8_5own_tEPNS8_11io_thread_tEbEESt10_Select1stISG_ESt4lessIS5_ESaISG_EE21_M_get_Node_allocatorEv
          38 .eh_frame$_ZNSt8_Rb_treeINSt7__cxx1112basic_stringIcSt11char_traitsIcESaIcEEESt4pairIKS5_MN3zmq14session_base_tEFPNS8_5own_tEPNS8_11io_thread_tEbEESt10_Select1stISG_ESt4lessIS5_ESaISG_EE24_M_get_insert_unique_posERS7_
          3C .eh_frame$_ZNSt8_Rb_treeINSt7__cxx1112basic_stringIcSt11char_traitsIcESaIcEEESt4pairIKS5_MN3zmq14session_base_tEFPNS8_5own_tEPNS8_11io_thread_tEbEESt10_Select1stISG_ESt4lessIS5_ESaISG_EE29_M_get_insert_hint_unique_posESt23_Rb_tree_const_iteratorISG_ERS7_
          38 .eh_frame$_ZNSt8_Rb_treeINSt7__cxx1112basic_stringIcSt11char_traitsIcESaIcEEESt4pairIKS5_MN3zmq14session_base_tEFPNS8_5own_tEPNS8_11io_thread_tEbEESt10_Select1stISG_ESt4lessIS5_ESaISG_EE3endEv
          48 .eh_frame$_ZNSt8_Rb_treeINSt7__cxx1112basic_stringIcSt11char_traitsIcESaIcEEESt4pairIKS5_MN3zmq14session_base_tEFPNS8_5own_tEPNS8_11io_thread_tEbEESt10_Select1stISG_ESt4lessIS5_ESaISG_EE4findERS7_
          38 .eh_frame$_ZNSt8_Rb_treeINSt7__cxx1112basic_stringIcSt11char_traitsIcESaIcEEESt4pairIKS5_MN3zmq14session_base_tEFPNS8_5own_tEPNS8_11io_thread_tEbEESt10_Select1stISG_ESt4lessIS5_ESaISG_EE5beginEv
          38 .eh_frame$_ZNSt8_Rb_treeINSt7__cxx1112basic_stringIcSt11char_traitsIcESaIcEEESt4pairIKS5_MN3zmq14session_base_tEFPNS8_5own_tEPNS8_11io_thread_tEbEESt10_Select1stISG_ESt4lessIS5_ESaISG_EE6_M_endEv
          38 .eh_frame$_ZNSt8_Rb_treeINSt7__cxx1112basic_stringIcSt11char_traitsIcESaIcEEESt4pairIKS5_MN3zmq14session_base_tEFPNS8_5own_tEPNS8_11io_thread_tEbEESt10_Select1stISG_ESt4lessIS5_ESaISG_EE6_S_keyEPKSt13_Rb_tree_nodeISG_E
          38 .eh_frame$_ZNSt8_Rb_treeINSt7__cxx1112basic_stringIcSt11char_traitsIcESaIcEEESt4pairIKS5_MN3zmq14session_base_tEFPNS8_5own_tEPNS8_11io_thread_tEbEESt10_Select1stISG_ESt4lessIS5_ESaISG_EE6_S_keyEPKSt18_Rb_tree_node_base
          38 .eh_frame$_ZNSt8_Rb_treeINSt7__cxx1112basic_stringIcSt11char_traitsIcESaIcEEESt4pairIKS5_MN3zmq14session_base_tEFPNS8_5own_tEPNS8_11io_thread_tEbEESt10_Select1stISG_ESt4lessIS5_ESaISG_EE7_S_leftEPSt18_Rb_tree_node_base
          38 .eh_frame$_ZNSt8_Rb_treeINSt7__cxx1112basic_stringIcSt11char_traitsIcESaIcEEESt4pairIKS5_MN3zmq14session_base_tEFPNS8_5own_tEPNS8_11io_thread_tEbEESt10_Select1stISG_ESt4lessIS5_ESaISG_EE8_M_beginEv
          38 .eh_frame$_ZNSt8_Rb_treeINSt7__cxx1112basic_stringIcSt11char_traitsIcESaIcEEESt4pairIKS5_MN3zmq14session_base_tEFPNS8_5own_tEPNS8_11io_thread_tEbEESt10_Select1stISG_ESt4lessIS5_ESaISG_EE8_M_eraseEPSt13_Rb_tree_nodeISG_E
          38 .eh_frame$_ZNSt8_Rb_treeINSt7__cxx1112basic_stringIcSt11char_traitsIcESaIcEEESt4pairIKS5_MN3zmq14session_base_tEFPNS8_5own_tEPNS8_11io_thread_tEbEESt10_Select1stISG_ESt4lessIS5_ESaISG_EE8_S_rightEPSt18_Rb_tree_node_base
          38 .eh_frame$_ZNSt8_Rb_treeINSt7__cxx1112basic_stringIcSt11char_traitsIcESaIcEEESt4pairIKS5_MN3zmq14session_base_tEFPNS8_5own_tEPNS8_11io_thread_tEbEESt10_Select1stISG_ESt4lessIS5_ESaISG_EE8_S_valueEPKSt13_Rb_tree_nodeISG_E
          38 .eh_frame$_ZNSt8_Rb_treeINSt7__cxx1112basic_stringIcSt11char_traitsIcESaIcEEESt4pairIKS5_MN3zmq14session_base_tEFPNS8_5own_tEPNS8_11io_thread_tEbEESt10_Select1stISG_ESt4lessIS5_ESaISG_EE8_S_valueEPKSt18_Rb_tree_node_base
          38 .eh_frame$_ZNSt8_Rb_treeINSt7__cxx1112basic_stringIcSt11char_traitsIcESaIcEEESt4pairIKS5_MN3zmq14session_base_tEFPNS8_5own_tEPNS8_11io_thread_tEbEESt10_Select1stISG_ESt4lessIS5_ESaISG_EEC1Ev
          44 .eh_frame$_ZNSt8_Rb_treeINSt7__cxx1112basic_stringIcSt11char_traitsIcESaIcEEESt4pairIKS5_MN3zmq14session_base_tEFPNS8_5own_tEPNS8_11io_thread_tEbEESt10_Select1stISG_ESt4lessIS5_ESaISG_EED1Ev
          4C .eh_frame$_ZNSt8_Rb_treeINSt7__cxx1112basic_stringIcSt11char_traitsIcESaIcEEESt4pairIKS5_MN3zmq14session_base_tEFvPNS8_11io_thread_tEEESt10_Select1stISE_ESt4lessIS5_ESaISE_EE10_M_insert_IRSE_NSK_11_Alloc_nodeEEESt17_Rb_tree_iteratorISE_EPSt18_Rb_tree_node_baseSR_OT_RT0_
          38 .eh_frame$_ZNSt8_Rb_treeINSt7__cxx1112basic_stringIcSt11char_traitsIcESaIcEEESt4pairIKS5_MN3zmq14session_base_tEFvPNS8_11io_thread_tEEESt10_Select1stISE_ESt4lessIS5_ESaISE_EE11_Alloc_nodeC1ERSK_
          38 .eh_frame$_ZNSt8_Rb_treeINSt7__cxx1112basic_stringIcSt11char_traitsIcESaIcEEESt4pairIKS5_MN3zmq14session_base_tEFvPNS8_11io_thread_tEEESt10_Select1stISE_ESt4lessIS5_ESaISE_EE11_M_get_nodeEv
          38 .eh_frame$_ZNSt8_Rb_treeINSt7__cxx1112basic_stringIcSt11char_traitsIcESaIcEEESt4pairIKS5_MN3zmq14session_base_tEFvPNS8_11io_thread_tEEESt10_Select1stISE_ESt4lessIS5_ESaISE_EE11_M_leftmostEv
          44 .eh_frame$_ZNSt8_Rb_treeINSt7__cxx1112basic_stringIcSt11char_traitsIcESaIcEEESt4pairIKS5_MN3zmq14session_base_tEFvPNS8_11io_thread_tEEESt10_Select1stISE_ESt4lessIS5_ESaISE_EE11_M_put_nodeEPSt13_Rb_tree_nodeISE_E
          38 .eh_frame$_ZNSt8_Rb_treeINSt7__cxx1112basic_stringIcSt11char_traitsIcESaIcEEESt4pairIKS5_MN3zmq14session_base_tEFvPNS8_11io_thread_tEEESt10_Select1stISE_ESt4lessIS5_ESaISE_EE12_M_drop_nodeEPSt13_Rb_tree_nodeISE_E
          38 .eh_frame$_ZNSt8_Rb_treeINSt7__cxx1112basic_stringIcSt11char_traitsIcESaIcEEESt4pairIKS5_MN3zmq14session_base_tEFvPNS8_11io_thread_tEEESt10_Select1stISE_ESt4lessIS5_ESaISE_EE12_M_rightmostEv
          38 .eh_frame$_ZNSt8_Rb_treeINSt7__cxx1112basic_stringIcSt11char_traitsIcESaIcEEESt4pairIKS5_MN3zmq14session_base_tEFvPNS8_11io_thread_tEEESt10_Select1stISE_ESt4lessIS5_ESaISE_EE13_Rb_tree_implISI_Lb1EE13_M_initializeEv
          38 .eh_frame$_ZNSt8_Rb_treeINSt7__cxx1112basic_stringIcSt11char_traitsIcESaIcEEESt4pairIKS5_MN3zmq14session_base_tEFvPNS8_11io_thread_tEEESt10_Select1stISE_ESt4lessIS5_ESaISE_EE13_Rb_tree_implISI_Lb1EEC1Ev
          38 .eh_frame$_ZNSt8_Rb_treeINSt7__cxx1112basic_stringIcSt11char_traitsIcESaIcEEESt4pairIKS5_MN3zmq14session_base_tEFvPNS8_11io_thread_tEEESt10_Select1stISE_ESt4lessIS5_ESaISE_EE13_Rb_tree_implISI_Lb1EED1Ev
          38 .eh_frame$_ZNSt8_Rb_treeINSt7__cxx1112basic_stringIcSt11char_traitsIcESaIcEEESt4pairIKS5_MN3zmq14session_base_tEFvPNS8_11io_thread_tEEESt10_Select1stISE_ESt4lessIS5_ESaISE_EE14_M_create_nodeIJRSE_EEEPSt13_Rb_tree_nodeISE_EDpOT_
          38 .eh_frame$_ZNSt8_Rb_treeINSt7__cxx1112basic_stringIcSt11char_traitsIcESaIcEEESt4pairIKS5_MN3zmq14session_base_tEFvPNS8_11io_thread_tEEESt10_Select1stISE_ESt4lessIS5_ESaISE_EE14_M_lower_boundEPSt13_Rb_tree_nodeISE_ESN_RS7_
          48 .eh_frame$_ZNSt8_Rb_treeINSt7__cxx1112basic_stringIcSt11char_traitsIcESaIcEEESt4pairIKS5_MN3zmq14session_base_tEFvPNS8_11io_thread_tEEESt10_Select1stISE_ESt4lessIS5_ESaISE_EE15_M_destroy_nodeEPSt13_Rb_tree_nodeISE_E
          38 .eh_frame$_ZNSt8_Rb_treeINSt7__cxx1112basic_stringIcSt11char_traitsIcESaIcEEESt4pairIKS5_MN3zmq14session_base_tEFvPNS8_11io_thread_tEEESt10_Select1stISE_ESt4lessIS5_ESaISE_EE16_M_insert_uniqueIPSE_EEvT_SN_
          4C .eh_frame$_ZNSt8_Rb_treeINSt7__cxx1112basic_stringIcSt11char_traitsIcESaIcEEESt4pairIKS5_MN3zmq14session_base_tEFvPNS8_11io_thread_tEEESt10_Select1stISE_ESt4lessIS5_ESaISE_EE17_M_construct_nodeIJRSE_EEEvPSt13_Rb_tree_nodeISE_EDpOT_
          40 .eh_frame$_ZNSt8_Rb_treeINSt7__cxx1112basic_stringIcSt11char_traitsIcESaIcEEESt4pairIKS5_MN3zmq14session_base_tEFvPNS8_11io_thread_tEEESt10_Select1stISE_ESt4lessIS5_ESaISE_EE17_M_insert_unique_IRSE_NSK_11_Alloc_nodeEEESt17_Rb_tree_iteratorISE_ESt23_Rb_tree_const_iteratorISE_EOT_RT0_
          38 .eh_frame$_ZNSt8_Rb_treeINSt7__cxx1112basic_stringIcSt11char_traitsIcESaIcEEESt4pairIKS5_MN3zmq14session_base_tEFvPNS8_11io_thread_tEEESt10_Select1stISE_ESt4lessIS5_ESaISE_EE21_M_get_Node_allocatorEv
          38 .eh_frame$_ZNSt8_Rb_treeINSt7__cxx1112basic_stringIcSt11char_traitsIcESaIcEEESt4pairIKS5_MN3zmq14session_base_tEFvPNS8_11io_thread_tEEESt10_Select1stISE_ESt4lessIS5_ESaISE_EE24_M_get_insert_unique_posERS7_
          3C .eh_frame$_ZNSt8_Rb_treeINSt7__cxx1112basic_stringIcSt11char_traitsIcESaIcEEESt4pairIKS5_MN3zmq14session_base_tEFvPNS8_11io_thread_tEEESt10_Select1stISE_ESt4lessIS5_ESaISE_EE29_M_get_insert_hint_unique_posESt23_Rb_tree_const_iteratorISE_ERS7_
          38 .eh_frame$_ZNSt8_Rb_treeINSt7__cxx1112basic_stringIcSt11char_traitsIcESaIcEEESt4pairIKS5_MN3zmq14session_base_tEFvPNS8_11io_thread_tEEESt10_Select1stISE_ESt4lessIS5_ESaISE_EE3endEv
          48 .eh_frame$_ZNSt8_Rb_treeINSt7__cxx1112basic_stringIcSt11char_traitsIcESaIcEEESt4pairIKS5_MN3zmq14session_base_tEFvPNS8_11io_thread_tEEESt10_Select1stISE_ESt4lessIS5_ESaISE_EE4findERS7_
          38 .eh_frame$_ZNSt8_Rb_treeINSt7__cxx1112basic_stringIcSt11char_traitsIcESaIcEEESt4pairIKS5_MN3zmq14session_base_tEFvPNS8_11io_thread_tEEESt10_Select1stISE_ESt4lessIS5_ESaISE_EE5beginEv
          38 .eh_frame$_ZNSt8_Rb_treeINSt7__cxx1112basic_stringIcSt11char_traitsIcESaIcEEESt4pairIKS5_MN3zmq14session_base_tEFvPNS8_11io_thread_tEEESt10_Select1stISE_ESt4lessIS5_ESaISE_EE6_M_endEv
          38 .eh_frame$_ZNSt8_Rb_treeINSt7__cxx1112basic_stringIcSt11char_traitsIcESaIcEEESt4pairIKS5_MN3zmq14session_base_tEFvPNS8_11io_thread_tEEESt10_Select1stISE_ESt4lessIS5_ESaISE_EE6_S_keyEPKSt13_Rb_tree_nodeISE_E
          38 .eh_frame$_ZNSt8_Rb_treeINSt7__cxx1112basic_stringIcSt11char_traitsIcESaIcEEESt4pairIKS5_MN3zmq14session_base_tEFvPNS8_11io_thread_tEEESt10_Select1stISE_ESt4lessIS5_ESaISE_EE6_S_keyEPKSt18_Rb_tree_node_base
          38 .eh_frame$_ZNSt8_Rb_treeINSt7__cxx1112basic_stringIcSt11char_traitsIcESaIcEEESt4pairIKS5_MN3zmq14session_base_tEFvPNS8_11io_thread_tEEESt10_Select1stISE_ESt4lessIS5_ESaISE_EE7_S_leftEPSt18_Rb_tree_node_base
          38 .eh_frame$_ZNSt8_Rb_treeINSt7__cxx1112basic_stringIcSt11char_traitsIcESaIcEEESt4pairIKS5_MN3zmq14session_base_tEFvPNS8_11io_thread_tEEESt10_Select1stISE_ESt4lessIS5_ESaISE_EE8_M_beginEv
          38 .eh_frame$_ZNSt8_Rb_treeINSt7__cxx1112basic_stringIcSt11char_traitsIcESaIcEEESt4pairIKS5_MN3zmq14session_base_tEFvPNS8_11io_thread_tEEESt10_Select1stISE_ESt4lessIS5_ESaISE_EE8_M_eraseEPSt13_Rb_tree_nodeISE_E
          38 .eh_frame$_ZNSt8_Rb_treeINSt7__cxx1112basic_stringIcSt11char_traitsIcESaIcEEESt4pairIKS5_MN3zmq14session_base_tEFvPNS8_11io_thread_tEEESt10_Select1stISE_ESt4lessIS5_ESaISE_EE8_S_rightEPSt18_Rb_tree_node_base
          38 .eh_frame$_ZNSt8_Rb_treeINSt7__cxx1112basic_stringIcSt11char_traitsIcESaIcEEESt4pairIKS5_MN3zmq14session_base_tEFvPNS8_11io_thread_tEEESt10_Select1stISE_ESt4lessIS5_ESaISE_EE8_S_valueEPKSt13_Rb_tree_nodeISE_E
          38 .eh_frame$_ZNSt8_Rb_treeINSt7__cxx1112basic_stringIcSt11char_traitsIcESaIcEEESt4pairIKS5_MN3zmq14session_base_tEFvPNS8_11io_thread_tEEESt10_Select1stISE_ESt4lessIS5_ESaISE_EE8_S_valueEPKSt18_Rb_tree_node_base
          38 .eh_frame$_ZNSt8_Rb_treeINSt7__cxx1112basic_stringIcSt11char_traitsIcESaIcEEESt4pairIKS5_MN3zmq14session_base_tEFvPNS8_11io_thread_tEEESt10_Select1stISE_ESt4lessIS5_ESaISE_EEC1Ev
          44 .eh_frame$_ZNSt8_Rb_treeINSt7__cxx1112basic_stringIcSt11char_traitsIcESaIcEEESt4pairIKS5_MN3zmq14session_base_tEFvPNS8_11io_thread_tEEESt10_Select1stISE_ESt4lessIS5_ESaISE_EED1Ev
          38 .eh_frame$_ZNSt8_Rb_treeINSt7__cxx1112basic_stringIcSt11char_traitsIcESaIcEEESt4pairIKS5_N3zmq10endpoint_tEESt10_Select1stISA_ESt4lessIS5_ESaISA_EE11_M_get_nodeEv
          38 .eh_frame$_ZNSt8_Rb_treeINSt7__cxx1112basic_stringIcSt11char_traitsIcESaIcEEESt4pairIKS5_N3zmq10endpoint_tEESt10_Select1stISA_ESt4lessIS5_ESaISA_EE11_M_leftmostEv
          44 .eh_frame$_ZNSt8_Rb_treeINSt7__cxx1112basic_stringIcSt11char_traitsIcESaIcEEESt4pairIKS5_N3zmq10endpoint_tEESt10_Select1stISA_ESt4lessIS5_ESaISA_EE11_M_put_nodeEPSt13_Rb_tree_nodeISA_E
          3C .eh_frame$_ZNSt8_Rb_treeINSt7__cxx1112basic_stringIcSt11char_traitsIcESaIcEEESt4pairIKS5_N3zmq10endpoint_tEESt10_Select1stISA_ESt4lessIS5_ESaISA_EE11lower_boundERS7_
          38 .eh_frame$_ZNSt8_Rb_treeINSt7__cxx1112basic_stringIcSt11char_traitsIcESaIcEEESt4pairIKS5_N3zmq10endpoint_tEESt10_Select1stISA_ESt4lessIS5_ESaISA_EE12_M_drop_nodeEPSt13_Rb_tree_nodeISA_E
          38 .eh_frame$_ZNSt8_Rb_treeINSt7__cxx1112basic_stringIcSt11char_traitsIcESaIcEEESt4pairIKS5_N3zmq10endpoint_tEESt10_Select1stISA_ESt4lessIS5_ESaISA_EE12_M_erase_auxESt23_Rb_tree_const_iteratorISA_E
          38 .eh_frame$_ZNSt8_Rb_treeINSt7__cxx1112basic_stringIcSt11char_traitsIcESaIcEEESt4pairIKS5_N3zmq10endpoint_tEESt10_Select1stISA_ESt4lessIS5_ESaISA_EE12_M_rightmostEv
          38 .eh_frame$_ZNSt8_Rb_treeINSt7__cxx1112basic_stringIcSt11char_traitsIcESaIcEEESt4pairIKS5_N3zmq10endpoint_tEESt10_Select1stISA_ESt4lessIS5_ESaISA_EE13_Rb_tree_implISE_Lb1EE13_M_initializeEv
          38 .eh_frame$_ZNSt8_Rb_treeINSt7__cxx1112basic_stringIcSt11char_traitsIcESaIcEEESt4pairIKS5_N3zmq10endpoint_tEESt10_Select1stISA_ESt4lessIS5_ESaISA_EE13_Rb_tree_implISE_Lb1EEC1Ev
          38 .eh_frame$_ZNSt8_Rb_treeINSt7__cxx1112basic_stringIcSt11char_traitsIcESaIcEEESt4pairIKS5_N3zmq10endpoint_tEESt10_Select1stISA_ESt4lessIS5_ESaISA_EE13_Rb_tree_implISE_Lb1EED1Ev
          40 .eh_frame$_ZNSt8_Rb_treeINSt7__cxx1112basic_stringIcSt11char_traitsIcESaIcEEESt4pairIKS5_N3zmq10endpoint_tEESt10_Select1stISA_ESt4lessIS5_ESaISA_EE14_M_create_nodeIJRKSt21piecewise_construct_tSt5tupleIJOS5_EESL_IJEEEEEPSt13_Rb_tree_nodeISA_EDpOT_
          3C .eh_frame$_ZNSt8_Rb_treeINSt7__cxx1112basic_stringIcSt11char_traitsIcESaIcEEESt4pairIKS5_N3zmq10endpoint_tEESt10_Select1stISA_ESt4lessIS5_ESaISA_EE14_M_create_nodeIJS5_RKS9_EEEPSt13_Rb_tree_nodeISA_EDpOT_
          3C .eh_frame$_ZNSt8_Rb_treeINSt7__cxx1112basic_stringIcSt11char_traitsIcESaIcEEESt4pairIKS5_N3zmq10endpoint_tEESt10_Select1stISA_ESt4lessIS5_ESaISA_EE14_M_insert_nodeEPSt18_Rb_tree_node_baseSI_PSt13_Rb_tree_nodeISA_E
          38 .eh_frame$_ZNSt8_Rb_treeINSt7__cxx1112basic_stringIcSt11char_traitsIcESaIcEEESt4pairIKS5_N3zmq10endpoint_tEESt10_Select1stISA_ESt4lessIS5_ESaISA_EE14_M_lower_boundEPSt13_Rb_tree_nodeISA_ESJ_RS7_
          48 .eh_frame$_ZNSt8_Rb_treeINSt7__cxx1112basic_stringIcSt11char_traitsIcESaIcEEESt4pairIKS5_N3zmq10endpoint_tEESt10_Select1stISA_ESt4lessIS5_ESaISA_EE15_M_destroy_nodeEPSt13_Rb_tree_nodeISA_E
          50 .eh_frame$_ZNSt8_Rb_treeINSt7__cxx1112basic_stringIcSt11char_traitsIcESaIcEEESt4pairIKS5_N3zmq10endpoint_tEESt10_Select1stISA_ESt4lessIS5_ESaISA_EE17_M_construct_nodeIJRKSt21piecewise_construct_tSt5tupleIJOS5_EESL_IJEEEEEvPSt13_Rb_tree_nodeISA_EDpOT_
          50 .eh_frame$_ZNSt8_Rb_treeINSt7__cxx1112basic_stringIcSt11char_traitsIcESaIcEEESt4pairIKS5_N3zmq10endpoint_tEESt10_Select1stISA_ESt4lessIS5_ESaISA_EE17_M_construct_nodeIJS5_RKS9_EEEvPSt13_Rb_tree_nodeISA_EDpOT_
          48 .eh_frame$_ZNSt8_Rb_treeINSt7__cxx1112basic_stringIcSt11char_traitsIcESaIcEEESt4pairIKS5_N3zmq10endpoint_tEESt10_Select1stISA_ESt4lessIS5_ESaISA_EE17_M_emplace_uniqueIJS5_RKS9_EEES6_ISt17_Rb_tree_iteratorISA_EbEDpOT_
          38 .eh_frame$_ZNSt8_Rb_treeINSt7__cxx1112basic_stringIcSt11char_traitsIcESaIcEEESt4pairIKS5_N3zmq10endpoint_tEESt10_Select1stISA_ESt4lessIS5_ESaISA_EE21_M_get_Node_allocatorEv
          4C .eh_frame$_ZNSt8_Rb_treeINSt7__cxx1112basic_stringIcSt11char_traitsIcESaIcEEESt4pairIKS5_N3zmq10endpoint_tEESt10_Select1stISA_ESt4lessIS5_ESaISA_EE22_M_emplace_hint_uniqueIJRKSt21piecewise_construct_tSt5tupleIJOS5_EESL_IJEEEEESt17_Rb_tree_iteratorISA_ESt23_Rb_tree_const_iteratorISA_EDpOT_
          38 .eh_frame$_ZNSt8_Rb_treeINSt7__cxx1112basic_stringIcSt11char_traitsIcESaIcEEESt4pairIKS5_N3zmq10endpoint_tEESt10_Select1stISA_ESt4lessIS5_ESaISA_EE24_M_get_insert_unique_posERS7_
          3C .eh_frame$_ZNSt8_Rb_treeINSt7__cxx1112basic_stringIcSt11char_traitsIcESaIcEEESt4pairIKS5_N3zmq10endpoint_tEESt10_Select1stISA_ESt4lessIS5_ESaISA_EE29_M_get_insert_hint_unique_posESt23_Rb_tree_const_iteratorISA_ERS7_
          38 .eh_frame$_ZNSt8_Rb_treeINSt7__cxx1112basic_stringIcSt11char_traitsIcESaIcEEESt4pairIKS5_N3zmq10endpoint_tEESt10_Select1stISA_ESt4lessIS5_ESaISA_EE3endEv
          48 .eh_frame$_ZNSt8_Rb_treeINSt7__cxx1112basic_stringIcSt11char_traitsIcESaIcEEESt4pairIKS5_N3zmq10endpoint_tEESt10_Select1stISA_ESt4lessIS5_ESaISA_EE4findERS7_
          38 .eh_frame$_ZNSt8_Rb_treeINSt7__cxx1112basic_stringIcSt11char_traitsIcESaIcEEESt4pairIKS5_N3zmq10endpoint_tEESt10_Select1stISA_ESt4lessIS5_ESaISA_EE5beginEv
          38 .eh_frame$_ZNSt8_Rb_treeINSt7__cxx1112basic_stringIcSt11char_traitsIcESaIcEEESt4pairIKS5_N3zmq10endpoint_tEESt10_Select1stISA_ESt4lessIS5_ESaISA_EE5eraseB5cxx11ESt17_Rb_tree_iteratorISA_E
          38 .eh_frame$_ZNSt8_Rb_treeINSt7__cxx1112basic_stringIcSt11char_traitsIcESaIcEEESt4pairIKS5_N3zmq10endpoint_tEESt10_Select1stISA_ESt4lessIS5_ESaISA_EE6_M_endEv
          38 .eh_frame$_ZNSt8_Rb_treeINSt7__cxx1112basic_stringIcSt11char_traitsIcESaIcEEESt4pairIKS5_N3zmq10endpoint_tEESt10_Select1stISA_ESt4lessIS5_ESaISA_EE6_S_keyEPKSt13_Rb_tree_nodeISA_E
          38 .eh_frame$_ZNSt8_Rb_treeINSt7__cxx1112basic_stringIcSt11char_traitsIcESaIcEEESt4pairIKS5_N3zmq10endpoint_tEESt10_Select1stISA_ESt4lessIS5_ESaISA_EE6_S_keyEPKSt18_Rb_tree_node_base
          38 .eh_frame$_ZNSt8_Rb_treeINSt7__cxx1112basic_stringIcSt11char_traitsIcESaIcEEESt4pairIKS5_N3zmq10endpoint_tEESt10_Select1stISA_ESt4lessIS5_ESaISA_EE7_S_leftEPSt18_Rb_tree_node_base
          38 .eh_frame$_ZNSt8_Rb_treeINSt7__cxx1112basic_stringIcSt11char_traitsIcESaIcEEESt4pairIKS5_N3zmq10endpoint_tEESt10_Select1stISA_ESt4lessIS5_ESaISA_EE8_M_beginEv
          38 .eh_frame$_ZNSt8_Rb_treeINSt7__cxx1112basic_stringIcSt11char_traitsIcESaIcEEESt4pairIKS5_N3zmq10endpoint_tEESt10_Select1stISA_ESt4lessIS5_ESaISA_EE8_M_eraseEPSt13_Rb_tree_nodeISA_E
          38 .eh_frame$_ZNSt8_Rb_treeINSt7__cxx1112basic_stringIcSt11char_traitsIcESaIcEEESt4pairIKS5_N3zmq10endpoint_tEESt10_Select1stISA_ESt4lessIS5_ESaISA_EE8_S_rightEPSt18_Rb_tree_node_base
          38 .eh_frame$_ZNSt8_Rb_treeINSt7__cxx1112basic_stringIcSt11char_traitsIcESaIcEEESt4pairIKS5_N3zmq10endpoint_tEESt10_Select1stISA_ESt4lessIS5_ESaISA_EE8_S_valueEPKSt13_Rb_tree_nodeISA_E
          38 .eh_frame$_ZNSt8_Rb_treeINSt7__cxx1112basic_stringIcSt11char_traitsIcESaIcEEESt4pairIKS5_N3zmq10endpoint_tEESt10_Select1stISA_ESt4lessIS5_ESaISA_EE8_S_valueEPKSt18_Rb_tree_node_base
          38 .eh_frame$_ZNSt8_Rb_treeINSt7__cxx1112basic_stringIcSt11char_traitsIcESaIcEEESt4pairIKS5_N3zmq10endpoint_tEESt10_Select1stISA_ESt4lessIS5_ESaISA_EEC1Ev
          44 .eh_frame$_ZNSt8_Rb_treeINSt7__cxx1112basic_stringIcSt11char_traitsIcESaIcEEESt4pairIKS5_N3zmq10endpoint_tEESt10_Select1stISA_ESt4lessIS5_ESaISA_EED1Ev
          38 .eh_frame$_ZNSt8_Rb_treeINSt7__cxx1112basic_stringIcSt11char_traitsIcESaIcEEESt4pairIKS5_N3zmq5ctx_t20pending_connection_tEESt10_Select1stISB_ESt4lessIS5_ESaISB_EE10_S_maximumEPSt18_Rb_tree_node_base
          38 .eh_frame$_ZNSt8_Rb_treeINSt7__cxx1112basic_stringIcSt11char_traitsIcESaIcEEESt4pairIKS5_N3zmq5ctx_t20pending_connection_tEESt10_Select1stISB_ESt4lessIS5_ESaISB_EE10_S_minimumEPSt18_Rb_tree_node_base
          38 .eh_frame$_ZNSt8_Rb_treeINSt7__cxx1112basic_stringIcSt11char_traitsIcESaIcEEESt4pairIKS5_N3zmq5ctx_t20pending_connection_tEESt10_Select1stISB_ESt4lessIS5_ESaISB_EE11_Alloc_nodeC1ERSH_
          38 .eh_frame$_ZNSt8_Rb_treeINSt7__cxx1112basic_stringIcSt11char_traitsIcESaIcEEESt4pairIKS5_N3zmq5ctx_t20pending_connection_tEESt10_Select1stISB_ESt4lessIS5_ESaISB_EE11_M_get_nodeEv
          38 .eh_frame$_ZNSt8_Rb_treeINSt7__cxx1112basic_stringIcSt11char_traitsIcESaIcEEESt4pairIKS5_N3zmq5ctx_t20pending_connection_tEESt10_Select1stISB_ESt4lessIS5_ESaISB_EE11_M_leftmostEv
          44 .eh_frame$_ZNSt8_Rb_treeINSt7__cxx1112basic_stringIcSt11char_traitsIcESaIcEEESt4pairIKS5_N3zmq5ctx_t20pending_connection_tEESt10_Select1stISB_ESt4lessIS5_ESaISB_EE11_M_put_nodeEPSt13_Rb_tree_nodeISB_E
          38 .eh_frame$_ZNSt8_Rb_treeINSt7__cxx1112basic_stringIcSt11char_traitsIcESaIcEEESt4pairIKS5_N3zmq5ctx_t20pending_connection_tEESt10_Select1stISB_ESt4lessIS5_ESaISB_EE11equal_rangeERS7_
          38 .eh_frame$_ZNSt8_Rb_treeINSt7__cxx1112basic_stringIcSt11char_traitsIcESaIcEEESt4pairIKS5_N3zmq5ctx_t20pending_connection_tEESt10_Select1stISB_ESt4lessIS5_ESaISB_EE12_M_drop_nodeEPSt13_Rb_tree_nodeISB_E
          38 .eh_frame$_ZNSt8_Rb_treeINSt7__cxx1112basic_stringIcSt11char_traitsIcESaIcEEESt4pairIKS5_N3zmq5ctx_t20pending_connection_tEESt10_Select1stISB_ESt4lessIS5_ESaISB_EE12_M_erase_auxESt23_Rb_tree_const_iteratorISB_E
          3C .eh_frame$_ZNSt8_Rb_treeINSt7__cxx1112basic_stringIcSt11char_traitsIcESaIcEEESt4pairIKS5_N3zmq5ctx_t20pending_connection_tEESt10_Select1stISB_ESt4lessIS5_ESaISB_EE12_M_erase_auxESt23_Rb_tree_const_iteratorISB_ESJ_
          38 .eh_frame$_ZNSt8_Rb_treeINSt7__cxx1112basic_stringIcSt11char_traitsIcESaIcEEESt4pairIKS5_N3zmq5ctx_t20pending_connection_tEESt10_Select1stISB_ESt4lessIS5_ESaISB_EE12_M_rightmostEv
          38 .eh_frame$_ZNSt8_Rb_treeINSt7__cxx1112basic_stringIcSt11char_traitsIcESaIcEEESt4pairIKS5_N3zmq5ctx_t20pending_connection_tEESt10_Select1stISB_ESt4lessIS5_ESaISB_EE13_M_clone_nodeINSH_11_Alloc_nodeEEEPSt13_Rb_tree_nodeISB_EPKSL_RT_
          38 .eh_frame$_ZNSt8_Rb_treeINSt7__cxx1112basic_stringIcSt11char_traitsIcESaIcEEESt4pairIKS5_N3zmq5ctx_t20pending_connection_tEESt10_Select1stISB_ESt4lessIS5_ESaISB_EE13_Rb_tree_implISF_Lb1EE13_M_initializeEv
          38 .eh_frame$_ZNSt8_Rb_treeINSt7__cxx1112basic_stringIcSt11char_traitsIcESaIcEEESt4pairIKS5_N3zmq5ctx_t20pending_connection_tEESt10_Select1stISB_ESt4lessIS5_ESaISB_EE13_Rb_tree_implISF_Lb1EE8_M_resetEv
          38 .eh_frame$_ZNSt8_Rb_treeINSt7__cxx1112basic_stringIcSt11char_traitsIcESaIcEEESt4pairIKS5_N3zmq5ctx_t20pending_connection_tEESt10_Select1stISB_ESt4lessIS5_ESaISB_EE13_Rb_tree_implISF_Lb1EEC1ERKSF_OSaISt13_Rb_tree_nodeISB_EE
          38 .eh_frame$_ZNSt8_Rb_treeINSt7__cxx1112basic_stringIcSt11char_traitsIcESaIcEEESt4pairIKS5_N3zmq5ctx_t20pending_connection_tEESt10_Select1stISB_ESt4lessIS5_ESaISB_EE13_Rb_tree_implISF_Lb1EEC1Ev
          38 .eh_frame$_ZNSt8_Rb_treeINSt7__cxx1112basic_stringIcSt11char_traitsIcESaIcEEESt4pairIKS5_N3zmq5ctx_t20pending_connection_tEESt10_Select1stISB_ESt4lessIS5_ESaISB_EE13_Rb_tree_implISF_Lb1EED1Ev
          38 .eh_frame$_ZNSt8_Rb_treeINSt7__cxx1112basic_stringIcSt11char_traitsIcESaIcEEESt4pairIKS5_N3zmq5ctx_t20pending_connection_tEESt10_Select1stISB_ESt4lessIS5_ESaISB_EE14_M_create_nodeIJRKSB_EEEPSt13_Rb_tree_nodeISB_EDpOT_
          3C .eh_frame$_ZNSt8_Rb_treeINSt7__cxx1112basic_stringIcSt11char_traitsIcESaIcEEESt4pairIKS5_N3zmq5ctx_t20pending_connection_tEESt10_Select1stISB_ESt4lessIS5_ESaISB_EE14_M_create_nodeIJRS7_RKSA_EEEPSt13_Rb_tree_nodeISB_EDpOT_
          3C .eh_frame$_ZNSt8_Rb_treeINSt7__cxx1112basic_stringIcSt11char_traitsIcESaIcEEESt4pairIKS5_N3zmq5ctx_t20pending_connection_tEESt10_Select1stISB_ESt4lessIS5_ESaISB_EE14_M_insert_nodeEPSt18_Rb_tree_node_baseSJ_PSt13_Rb_tree_nodeISB_E
          38 .eh_frame$_ZNSt8_Rb_treeINSt7__cxx1112basic_stringIcSt11char_traitsIcESaIcEEESt4pairIKS5_N3zmq5ctx_t20pending_connection_tEESt10_Select1stISB_ESt4lessIS5_ESaISB_EE14_M_lower_boundEPSt13_Rb_tree_nodeISB_ESK_RS7_
          38 .eh_frame$_ZNSt8_Rb_treeINSt7__cxx1112basic_stringIcSt11char_traitsIcESaIcEEESt4pairIKS5_N3zmq5ctx_t20pending_connection_tEESt10_Select1stISB_ESt4lessIS5_ESaISB_EE14_M_upper_boundEPSt13_Rb_tree_nodeISB_ESK_RS7_
          48 .eh_frame$_ZNSt8_Rb_treeINSt7__cxx1112basic_stringIcSt11char_traitsIcESaIcEEESt4pairIKS5_N3zmq5ctx_t20pending_connection_tEESt10_Select1stISB_ESt4lessIS5_ESaISB_EE15_M_destroy_nodeEPSt13_Rb_tree_nodeISB_E
          48 .eh_frame$_ZNSt8_Rb_treeINSt7__cxx1112basic_stringIcSt11char_traitsIcESaIcEEESt4pairIKS5_N3zmq5ctx_t20pending_connection_tEESt10_Select1stISB_ESt4lessIS5_ESaISB_EE16_M_emplace_equalIJRS7_RKSA_EEESt17_Rb_tree_iteratorISB_EDpOT_
          4C .eh_frame$_ZNSt8_Rb_treeINSt7__cxx1112basic_stringIcSt11char_traitsIcESaIcEEESt4pairIKS5_N3zmq5ctx_t20pending_connection_tEESt10_Select1stISB_ESt4lessIS5_ESaISB_EE17_M_construct_nodeIJRKSB_EEEvPSt13_Rb_tree_nodeISB_EDpOT_
          50 .eh_frame$_ZNSt8_Rb_treeINSt7__cxx1112basic_stringIcSt11char_traitsIcESaIcEEESt4pairIKS5_N3zmq5ctx_t20pending_connection_tEESt10_Select1stISB_ESt4lessIS5_ESaISB_EE17_M_construct_nodeIJRS7_RKSA_EEEvPSt13_Rb_tree_nodeISB_EDpOT_
          38 .eh_frame$_ZNSt8_Rb_treeINSt7__cxx1112basic_stringIcSt11char_traitsIcESaIcEEESt4pairIKS5_N3zmq5ctx_t20pending_connection_tEESt10_Select1stISB_ESt4lessIS5_ESaISB_EE21_M_get_Node_allocatorEv
          38 .eh_frame$_ZNSt8_Rb_treeINSt7__cxx1112basic_stringIcSt11char_traitsIcESaIcEEESt4pairIKS5_N3zmq5ctx_t20pending_connection_tEESt10_Select1stISB_ESt4lessIS5_ESaISB_EE23_M_get_insert_equal_posERS7_
          38 .eh_frame$_ZNSt8_Rb_treeINSt7__cxx1112basic_stringIcSt11char_traitsIcESaIcEEESt4pairIKS5_N3zmq5ctx_t20pending_connection_tEESt10_Select1stISB_ESt4lessIS5_ESaISB_EE3endEv
          38 .eh_frame$_ZNSt8_Rb_treeINSt7__cxx1112basic_stringIcSt11char_traitsIcESaIcEEESt4pairIKS5_N3zmq5ctx_t20pending_connection_tEESt10_Select1stISB_ESt4lessIS5_ESaISB_EE5beginEv
          44 .eh_frame$_ZNSt8_Rb_treeINSt7__cxx1112basic_stringIcSt11char_traitsIcESaIcEEESt4pairIKS5_N3zmq5ctx_t20pending_connection_tEESt10_Select1stISB_ESt4lessIS5_ESaISB_EE5clearEv
          38 .eh_frame$_ZNSt8_Rb_treeINSt7__cxx1112basic_stringIcSt11char_traitsIcESaIcEEESt4pairIKS5_N3zmq5ctx_t20pending_connection_tEESt10_Select1stISB_ESt4lessIS5_ESaISB_EE5eraseB5cxx11ESt23_Rb_tree_const_iteratorISB_E
          38 .eh_frame$_ZNSt8_Rb_treeINSt7__cxx1112basic_stringIcSt11char_traitsIcESaIcEEESt4pairIKS5_N3zmq5ctx_t20pending_connection_tEESt10_Select1stISB_ESt4lessIS5_ESaISB_EE5eraseB5cxx11ESt23_Rb_tree_const_iteratorISB_ESJ_
          38 .eh_frame$_ZNSt8_Rb_treeINSt7__cxx1112basic_stringIcSt11char_traitsIcESaIcEEESt4pairIKS5_N3zmq5ctx_t20pending_connection_tEESt10_Select1stISB_ESt4lessIS5_ESaISB_EE6_M_endEv
          38 .eh_frame$_ZNSt8_Rb_treeINSt7__cxx1112basic_stringIcSt11char_traitsIcESaIcEEESt4pairIKS5_N3zmq5ctx_t20pending_connection_tEESt10_Select1stISB_ESt4lessIS5_ESaISB_EE6_S_keyEPKSt13_Rb_tree_nodeISB_E
          38 .eh_frame$_ZNSt8_Rb_treeINSt7__cxx1112basic_stringIcSt11char_traitsIcESaIcEEESt4pairIKS5_N3zmq5ctx_t20pending_connection_tEESt10_Select1stISB_ESt4lessIS5_ESaISB_EE6_S_keyEPKSt18_Rb_tree_node_base
          38 .eh_frame$_ZNSt8_Rb_treeINSt7__cxx1112basic_stringIcSt11char_traitsIcESaIcEEESt4pairIKS5_N3zmq5ctx_t20pending_connection_tEESt10_Select1stISB_ESt4lessIS5_ESaISB_EE7_M_copyEPKSt13_Rb_tree_nodeISB_EPSJ_
          48 .eh_frame$_ZNSt8_Rb_treeINSt7__cxx1112basic_stringIcSt11char_traitsIcESaIcEEESt4pairIKS5_N3zmq5ctx_t20pending_connection_tEESt10_Select1stISB_ESt4lessIS5_ESaISB_EE7_M_copyINSH_11_Alloc_nodeEEEPSt13_Rb_tree_nodeISB_EPKSL_SM_RT_
          38 .eh_frame$_ZNSt8_Rb_treeINSt7__cxx1112basic_stringIcSt11char_traitsIcESaIcEEESt4pairIKS5_N3zmq5ctx_t20pending_connection_tEESt10_Select1stISB_ESt4lessIS5_ESaISB_EE7_M_rootEv
          38 .eh_frame$_ZNSt8_Rb_treeINSt7__cxx1112basic_stringIcSt11char_traitsIcESaIcEEESt4pairIKS5_N3zmq5ctx_t20pending_connection_tEESt10_Select1stISB_ESt4lessIS5_ESaISB_EE7_S_leftEPKSt18_Rb_tree_node_base
          38 .eh_frame$_ZNSt8_Rb_treeINSt7__cxx1112basic_stringIcSt11char_traitsIcESaIcEEESt4pairIKS5_N3zmq5ctx_t20pending_connection_tEESt10_Select1stISB_ESt4lessIS5_ESaISB_EE7_S_leftEPSt18_Rb_tree_node_base
          38 .eh_frame$_ZNSt8_Rb_treeINSt7__cxx1112basic_stringIcSt11char_traitsIcESaIcEEESt4pairIKS5_N3zmq5ctx_t20pending_connection_tEESt10_Select1stISB_ESt4lessIS5_ESaISB_EE8_M_beginEv
          38 .eh_frame$_ZNSt8_Rb_treeINSt7__cxx1112basic_stringIcSt11char_traitsIcESaIcEEESt4pairIKS5_N3zmq5ctx_t20pending_connection_tEESt10_Select1stISB_ESt4lessIS5_ESaISB_EE8_M_eraseEPSt13_Rb_tree_nodeISB_E
          38 .eh_frame$_ZNSt8_Rb_treeINSt7__cxx1112basic_stringIcSt11char_traitsIcESaIcEEESt4pairIKS5_N3zmq5ctx_t20pending_connection_tEESt10_Select1stISB_ESt4lessIS5_ESaISB_EE8_S_rightEPKSt18_Rb_tree_node_base
          38 .eh_frame$_ZNSt8_Rb_treeINSt7__cxx1112basic_stringIcSt11char_traitsIcESaIcEEESt4pairIKS5_N3zmq5ctx_t20pending_connection_tEESt10_Select1stISB_ESt4lessIS5_ESaISB_EE8_S_rightEPSt18_Rb_tree_node_base
          38 .eh_frame$_ZNSt8_Rb_treeINSt7__cxx1112basic_stringIcSt11char_traitsIcESaIcEEESt4pairIKS5_N3zmq5ctx_t20pending_connection_tEESt10_Select1stISB_ESt4lessIS5_ESaISB_EE8_S_valueEPKSt13_Rb_tree_nodeISB_E
          38 .eh_frame$_ZNSt8_Rb_treeINSt7__cxx1112basic_stringIcSt11char_traitsIcESaIcEEESt4pairIKS5_N3zmq5ctx_t20pending_connection_tEESt10_Select1stISB_ESt4lessIS5_ESaISB_EE8_S_valueEPKSt18_Rb_tree_node_base
          50 .eh_frame$_ZNSt8_Rb_treeINSt7__cxx1112basic_stringIcSt11char_traitsIcESaIcEEESt4pairIKS5_N3zmq5ctx_t20pending_connection_tEESt10_Select1stISB_ESt4lessIS5_ESaISB_EEC1ERKSH_
          38 .eh_frame$_ZNSt8_Rb_treeINSt7__cxx1112basic_stringIcSt11char_traitsIcESaIcEEESt4pairIKS5_N3zmq5ctx_t20pending_connection_tEESt10_Select1stISB_ESt4lessIS5_ESaISB_EEC1Ev
          44 .eh_frame$_ZNSt8_Rb_treeINSt7__cxx1112basic_stringIcSt11char_traitsIcESaIcEEESt4pairIKS5_N3zmq5ctx_t20pending_connection_tEESt10_Select1stISB_ESt4lessIS5_ESaISB_EED1Ev
          70 .eh_frame$_ZNSt8_Rb_treeINSt7__cxx1112basic_stringIcSt11char_traitsIcESaIcEEESt4pairIKS5_PN3zmq6pipe_tEESt10_Select1stISB_ESt4lessIS5_ESaISB_EE11_M_get_nodeEv
          88 .eh_frame$_ZNSt8_Rb_treeINSt7__cxx1112basic_stringIcSt11char_traitsIcESaIcEEESt4pairIKS5_PN3zmq6pipe_tEESt10_Select1stISB_ESt4lessIS5_ESaISB_EE11_M_put_nodeEPSt13_Rb_tree_nodeISB_E
          70 .eh_frame$_ZNSt8_Rb_treeINSt7__cxx1112basic_stringIcSt11char_traitsIcESaIcEEESt4pairIKS5_PN3zmq6pipe_tEESt10_Select1stISB_ESt4lessIS5_ESaISB_EE11equal_rangeERS7_
          70 .eh_frame$_ZNSt8_Rb_treeINSt7__cxx1112basic_stringIcSt11char_traitsIcESaIcEEESt4pairIKS5_PN3zmq6pipe_tEESt10_Select1stISB_ESt4lessIS5_ESaISB_EE12_M_drop_nodeEPSt13_Rb_tree_nodeISB_E
          70 .eh_frame$_ZNSt8_Rb_treeINSt7__cxx1112basic_stringIcSt11char_traitsIcESaIcEEESt4pairIKS5_PN3zmq6pipe_tEESt10_Select1stISB_ESt4lessIS5_ESaISB_EE12_M_erase_auxESt23_Rb_tree_const_iteratorISB_E
          3C .eh_frame$_ZNSt8_Rb_treeINSt7__cxx1112basic_stringIcSt11char_traitsIcESaIcEEESt4pairIKS5_PN3zmq6pipe_tEESt10_Select1stISB_ESt4lessIS5_ESaISB_EE12_M_erase_auxESt23_Rb_tree_const_iteratorISB_ESJ_
          70 .eh_frame$_ZNSt8_Rb_treeINSt7__cxx1112basic_stringIcSt11char_traitsIcESaIcEEESt4pairIKS5_PN3zmq6pipe_tEESt10_Select1stISB_ESt4lessIS5_ESaISB_EE13_Rb_tree_implISF_Lb1EE13_M_initializeEv
          38 .eh_frame$_ZNSt8_Rb_treeINSt7__cxx1112basic_stringIcSt11char_traitsIcESaIcEEESt4pairIKS5_PN3zmq6pipe_tEESt10_Select1stISB_ESt4lessIS5_ESaISB_EE13_Rb_tree_implISF_Lb1EE8_M_resetEv
          70 .eh_frame$_ZNSt8_Rb_treeINSt7__cxx1112basic_stringIcSt11char_traitsIcESaIcEEESt4pairIKS5_PN3zmq6pipe_tEESt10_Select1stISB_ESt4lessIS5_ESaISB_EE13_Rb_tree_implISF_Lb1EEC1Ev
          70 .eh_frame$_ZNSt8_Rb_treeINSt7__cxx1112basic_stringIcSt11char_traitsIcESaIcEEESt4pairIKS5_PN3zmq6pipe_tEESt10_Select1stISB_ESt4lessIS5_ESaISB_EE13_Rb_tree_implISF_Lb1EED1Ev
          78 .eh_frame$_ZNSt8_Rb_treeINSt7__cxx1112basic_stringIcSt11char_traitsIcESaIcEEESt4pairIKS5_PN3zmq6pipe_tEESt10_Select1stISB_ESt4lessIS5_ESaISB_EE14_M_create_nodeIJS5_RSA_EEEPSt13_Rb_tree_nodeISB_EDpOT_
          78 .eh_frame$_ZNSt8_Rb_treeINSt7__cxx1112basic_stringIcSt11char_traitsIcESaIcEEESt4pairIKS5_PN3zmq6pipe_tEESt10_Select1stISB_ESt4lessIS5_ESaISB_EE14_M_insert_nodeEPSt18_Rb_tree_node_baseSJ_PSt13_Rb_tree_nodeISB_E
          70 .eh_frame$_ZNSt8_Rb_treeINSt7__cxx1112basic_stringIcSt11char_traitsIcESaIcEEESt4pairIKS5_PN3zmq6pipe_tEESt10_Select1stISB_ESt4lessIS5_ESaISB_EE14_M_lower_boundEPSt13_Rb_tree_nodeISB_ESK_RS7_
          70 .eh_frame$_ZNSt8_Rb_treeINSt7__cxx1112basic_stringIcSt11char_traitsIcESaIcEEESt4pairIKS5_PN3zmq6pipe_tEESt10_Select1stISB_ESt4lessIS5_ESaISB_EE14_M_upper_boundEPSt13_Rb_tree_nodeISB_ESK_RS7_
          90 .eh_frame$_ZNSt8_Rb_treeINSt7__cxx1112basic_stringIcSt11char_traitsIcESaIcEEESt4pairIKS5_PN3zmq6pipe_tEESt10_Select1stISB_ESt4lessIS5_ESaISB_EE15_M_destroy_nodeEPSt13_Rb_tree_nodeISB_E
          90 .eh_frame$_ZNSt8_Rb_treeINSt7__cxx1112basic_stringIcSt11char_traitsIcESaIcEEESt4pairIKS5_PN3zmq6pipe_tEESt10_Select1stISB_ESt4lessIS5_ESaISB_EE16_M_emplace_equalIJS5_RSA_EEESt17_Rb_tree_iteratorISB_EDpOT_
          A0 .eh_frame$_ZNSt8_Rb_treeINSt7__cxx1112basic_stringIcSt11char_traitsIcESaIcEEESt4pairIKS5_PN3zmq6pipe_tEESt10_Select1stISB_ESt4lessIS5_ESaISB_EE17_M_construct_nodeIJS5_RSA_EEEvPSt13_Rb_tree_nodeISB_EDpOT_
          70 .eh_frame$_ZNSt8_Rb_treeINSt7__cxx1112basic_stringIcSt11char_traitsIcESaIcEEESt4pairIKS5_PN3zmq6pipe_tEESt10_Select1stISB_ESt4lessIS5_ESaISB_EE21_M_get_Node_allocatorEv
          70 .eh_frame$_ZNSt8_Rb_treeINSt7__cxx1112basic_stringIcSt11char_traitsIcESaIcEEESt4pairIKS5_PN3zmq6pipe_tEESt10_Select1stISB_ESt4lessIS5_ESaISB_EE23_M_get_insert_equal_posERS7_
          70 .eh_frame$_ZNSt8_Rb_treeINSt7__cxx1112basic_stringIcSt11char_traitsIcESaIcEEESt4pairIKS5_PN3zmq6pipe_tEESt10_Select1stISB_ESt4lessIS5_ESaISB_EE3endEv
          70 .eh_frame$_ZNSt8_Rb_treeINSt7__cxx1112basic_stringIcSt11char_traitsIcESaIcEEESt4pairIKS5_PN3zmq6pipe_tEESt10_Select1stISB_ESt4lessIS5_ESaISB_EE5beginEv
          44 .eh_frame$_ZNSt8_Rb_treeINSt7__cxx1112basic_stringIcSt11char_traitsIcESaIcEEESt4pairIKS5_PN3zmq6pipe_tEESt10_Select1stISB_ESt4lessIS5_ESaISB_EE5clearEv
          70 .eh_frame$_ZNSt8_Rb_treeINSt7__cxx1112basic_stringIcSt11char_traitsIcESaIcEEESt4pairIKS5_PN3zmq6pipe_tEESt10_Select1stISB_ESt4lessIS5_ESaISB_EE5eraseB5cxx11ESt17_Rb_tree_iteratorISB_E
          38 .eh_frame$_ZNSt8_Rb_treeINSt7__cxx1112basic_stringIcSt11char_traitsIcESaIcEEESt4pairIKS5_PN3zmq6pipe_tEESt10_Select1stISB_ESt4lessIS5_ESaISB_EE5eraseB5cxx11ESt23_Rb_tree_const_iteratorISB_E
          38 .eh_frame$_ZNSt8_Rb_treeINSt7__cxx1112basic_stringIcSt11char_traitsIcESaIcEEESt4pairIKS5_PN3zmq6pipe_tEESt10_Select1stISB_ESt4lessIS5_ESaISB_EE5eraseB5cxx11ESt23_Rb_tree_const_iteratorISB_ESJ_
          70 .eh_frame$_ZNSt8_Rb_treeINSt7__cxx1112basic_stringIcSt11char_traitsIcESaIcEEESt4pairIKS5_PN3zmq6pipe_tEESt10_Select1stISB_ESt4lessIS5_ESaISB_EE6_M_endEv
          70 .eh_frame$_ZNSt8_Rb_treeINSt7__cxx1112basic_stringIcSt11char_traitsIcESaIcEEESt4pairIKS5_PN3zmq6pipe_tEESt10_Select1stISB_ESt4lessIS5_ESaISB_EE6_S_keyEPKSt13_Rb_tree_nodeISB_E
          70 .eh_frame$_ZNSt8_Rb_treeINSt7__cxx1112basic_stringIcSt11char_traitsIcESaIcEEESt4pairIKS5_PN3zmq6pipe_tEESt10_Select1stISB_ESt4lessIS5_ESaISB_EE6_S_keyEPKSt18_Rb_tree_node_base
          70 .eh_frame$_ZNSt8_Rb_treeINSt7__cxx1112basic_stringIcSt11char_traitsIcESaIcEEESt4pairIKS5_PN3zmq6pipe_tEESt10_Select1stISB_ESt4lessIS5_ESaISB_EE7_S_leftEPSt18_Rb_tree_node_base
          70 .eh_frame$_ZNSt8_Rb_treeINSt7__cxx1112basic_stringIcSt11char_traitsIcESaIcEEESt4pairIKS5_PN3zmq6pipe_tEESt10_Select1stISB_ESt4lessIS5_ESaISB_EE8_M_beginEv
          70 .eh_frame$_ZNSt8_Rb_treeINSt7__cxx1112basic_stringIcSt11char_traitsIcESaIcEEESt4pairIKS5_PN3zmq6pipe_tEESt10_Select1stISB_ESt4lessIS5_ESaISB_EE8_M_eraseEPSt13_Rb_tree_nodeISB_E
          70 .eh_frame$_ZNSt8_Rb_treeINSt7__cxx1112basic_stringIcSt11char_traitsIcESaIcEEESt4pairIKS5_PN3zmq6pipe_tEESt10_Select1stISB_ESt4lessIS5_ESaISB_EE8_S_rightEPSt18_Rb_tree_node_base
          70 .eh_frame$_ZNSt8_Rb_treeINSt7__cxx1112basic_stringIcSt11char_traitsIcESaIcEEESt4pairIKS5_PN3zmq6pipe_tEESt10_Select1stISB_ESt4lessIS5_ESaISB_EE8_S_valueEPKSt13_Rb_tree_nodeISB_E
          70 .eh_frame$_ZNSt8_Rb_treeINSt7__cxx1112basic_stringIcSt11char_traitsIcESaIcEEESt4pairIKS5_PN3zmq6pipe_tEESt10_Select1stISB_ESt4lessIS5_ESaISB_EE8_S_valueEPKSt18_Rb_tree_node_base
          70 .eh_frame$_ZNSt8_Rb_treeINSt7__cxx1112basic_stringIcSt11char_traitsIcESaIcEEESt4pairIKS5_PN3zmq6pipe_tEESt10_Select1stISB_ESt4lessIS5_ESaISB_EEC1Ev
          88 .eh_frame$_ZNSt8_Rb_treeINSt7__cxx1112basic_stringIcSt11char_traitsIcESaIcEEESt4pairIKS5_PN3zmq6pipe_tEESt10_Select1stISB_ESt4lessIS5_ESaISB_EED1Ev
          4C .eh_frame$_ZNSt8_Rb_treeINSt7__cxx1112basic_stringIcSt11char_traitsIcESaIcEEESt4pairIKS5_S5_ESt10_Select1stIS8_ESt4lessIS5_ESaIS8_EE10_M_insert_IRKS8_NSE_11_Alloc_nodeEEESt17_Rb_tree_iteratorIS8_EPSt18_Rb_tree_node_baseSM_OT_RT0_
          4C .eh_frame$_ZNSt8_Rb_treeINSt7__cxx1112basic_stringIcSt11char_traitsIcESaIcEEESt4pairIKS5_S5_ESt10_Select1stIS8_ESt4lessIS5_ESaIS8_EE10_M_insert_IS6_IS5_S5_ENSE_11_Alloc_nodeEEESt17_Rb_tree_iteratorIS8_EPSt18_Rb_tree_node_baseSL_OT_RT0_
         188 .eh_frame$_ZNSt8_Rb_treeINSt7__cxx1112basic_stringIcSt11char_traitsIcESaIcEEESt4pairIKS5_S5_ESt10_Select1stIS8_ESt4lessIS5_ESaIS8_EE10_S_maximumEPSt18_Rb_tree_node_base
         188 .eh_frame$_ZNSt8_Rb_treeINSt7__cxx1112basic_stringIcSt11char_traitsIcESaIcEEESt4pairIKS5_S5_ESt10_Select1stIS8_ESt4lessIS5_ESaIS8_EE10_S_minimumEPSt18_Rb_tree_node_base
         1C0 .eh_frame$_ZNSt8_Rb_treeINSt7__cxx1112basic_stringIcSt11char_traitsIcESaIcEEESt4pairIKS5_S5_ESt10_Select1stIS8_ESt4lessIS5_ESaIS8_EE11_Alloc_nodeC1ERSE_
         1C0 .eh_frame$_ZNSt8_Rb_treeINSt7__cxx1112basic_stringIcSt11char_traitsIcESaIcEEESt4pairIKS5_S5_ESt10_Select1stIS8_ESt4lessIS5_ESaIS8_EE11_M_get_nodeEv
         188 .eh_frame$_ZNSt8_Rb_treeINSt7__cxx1112basic_stringIcSt11char_traitsIcESaIcEEESt4pairIKS5_S5_ESt10_Select1stIS8_ESt4lessIS5_ESaIS8_EE11_M_leftmostEv
         2EC .eh_frame$_ZNSt8_Rb_treeINSt7__cxx1112basic_stringIcSt11char_traitsIcESaIcEEESt4pairIKS5_S5_ESt10_Select1stIS8_ESt4lessIS5_ESaIS8_EE11_M_put_nodeEPSt13_Rb_tree_nodeIS8_E
         230 .eh_frame$_ZNSt8_Rb_treeINSt7__cxx1112basic_stringIcSt11char_traitsIcESaIcEEESt4pairIKS5_S5_ESt10_Select1stIS8_ESt4lessIS5_ESaIS8_EE12_M_drop_nodeEPSt13_Rb_tree_nodeIS8_E
          3C .eh_frame$_ZNSt8_Rb_treeINSt7__cxx1112basic_stringIcSt11char_traitsIcESaIcEEESt4pairIKS5_S5_ESt10_Select1stIS8_ESt4lessIS5_ESaIS8_EE12_M_move_dataERSE_St17integral_constantIbLb1EE
         188 .eh_frame$_ZNSt8_Rb_treeINSt7__cxx1112basic_stringIcSt11char_traitsIcESaIcEEESt4pairIKS5_S5_ESt10_Select1stIS8_ESt4lessIS5_ESaIS8_EE12_M_rightmostEv
         188 .eh_frame$_ZNSt8_Rb_treeINSt7__cxx1112basic_stringIcSt11char_traitsIcESaIcEEESt4pairIKS5_S5_ESt10_Select1stIS8_ESt4lessIS5_ESaIS8_EE13_M_clone_nodeINSE_11_Alloc_nodeEEEPSt13_Rb_tree_nodeIS8_EPKSI_RT_
         1F8 .eh_frame$_ZNSt8_Rb_treeINSt7__cxx1112basic_stringIcSt11char_traitsIcESaIcEEESt4pairIKS5_S5_ESt10_Select1stIS8_ESt4lessIS5_ESaIS8_EE13_Rb_tree_implISC_Lb1EE13_M_initializeEv
         188 .eh_frame$_ZNSt8_Rb_treeINSt7__cxx1112basic_stringIcSt11char_traitsIcESaIcEEESt4pairIKS5_S5_ESt10_Select1stIS8_ESt4lessIS5_ESaIS8_EE13_Rb_tree_implISC_Lb1EEC1ERKSC_OSaISt13_Rb_tree_nodeIS8_EE
          38 .eh_frame$_ZNSt8_Rb_treeINSt7__cxx1112basic_stringIcSt11char_traitsIcESaIcEEESt4pairIKS5_S5_ESt10_Select1stIS8_ESt4lessIS5_ESaIS8_EE13_Rb_tree_implISC_Lb1EEC1ERKSC_RKSaISt13_Rb_tree_nodeIS8_EE
          E0 .eh_frame$_ZNSt8_Rb_treeINSt7__cxx1112basic_stringIcSt11char_traitsIcESaIcEEESt4pairIKS5_S5_ESt10_Select1stIS8_ESt4lessIS5_ESaIS8_EE13_Rb_tree_implISC_Lb1EEC1Ev
         230 .eh_frame$_ZNSt8_Rb_treeINSt7__cxx1112basic_stringIcSt11char_traitsIcESaIcEEESt4pairIKS5_S5_ESt10_Select1stIS8_ESt4lessIS5_ESaIS8_EE13_Rb_tree_implISC_Lb1EED1Ev
         188 .eh_frame$_ZNSt8_Rb_treeINSt7__cxx1112basic_stringIcSt11char_traitsIcESaIcEEESt4pairIKS5_S5_ESt10_Select1stIS8_ESt4lessIS5_ESaIS8_EE14_M_create_nodeIJRKS8_EEEPSt13_Rb_tree_nodeIS8_EDpOT_
          3C .eh_frame$_ZNSt8_Rb_treeINSt7__cxx1112basic_stringIcSt11char_traitsIcESaIcEEESt4pairIKS5_S5_ESt10_Select1stIS8_ESt4lessIS5_ESaIS8_EE14_M_create_nodeIJRS7_S5_EEEPSt13_Rb_tree_nodeIS8_EDpOT_
          3C .eh_frame$_ZNSt8_Rb_treeINSt7__cxx1112basic_stringIcSt11char_traitsIcESaIcEEESt4pairIKS5_S5_ESt10_Select1stIS8_ESt4lessIS5_ESaIS8_EE14_M_create_nodeIJS5_RS7_EEEPSt13_Rb_tree_nodeIS8_EDpOT_
          78 .eh_frame$_ZNSt8_Rb_treeINSt7__cxx1112basic_stringIcSt11char_traitsIcESaIcEEESt4pairIKS5_S5_ESt10_Select1stIS8_ESt4lessIS5_ESaIS8_EE14_M_create_nodeIJS5_S5_EEEPSt13_Rb_tree_nodeIS8_EDpOT_
          38 .eh_frame$_ZNSt8_Rb_treeINSt7__cxx1112basic_stringIcSt11char_traitsIcESaIcEEESt4pairIKS5_S5_ESt10_Select1stIS8_ESt4lessIS5_ESaIS8_EE14_M_create_nodeIJS6_IS5_S5_EEEEPSt13_Rb_tree_nodeIS8_EDpOT_
          78 .eh_frame$_ZNSt8_Rb_treeINSt7__cxx1112basic_stringIcSt11char_traitsIcESaIcEEESt4pairIKS5_S5_ESt10_Select1stIS8_ESt4lessIS5_ESaIS8_EE14_M_insert_nodeEPSt18_Rb_tree_node_baseSG_PSt13_Rb_tree_nodeIS8_E
         2D0 .eh_frame$_ZNSt8_Rb_treeINSt7__cxx1112basic_stringIcSt11char_traitsIcESaIcEEESt4pairIKS5_S5_ESt10_Select1stIS8_ESt4lessIS5_ESaIS8_EE15_M_destroy_nodeEPSt13_Rb_tree_nodeIS8_E
          40 .eh_frame$_ZNSt8_Rb_treeINSt7__cxx1112basic_stringIcSt11char_traitsIcESaIcEEESt4pairIKS5_S5_ESt10_Select1stIS8_ESt4lessIS5_ESaIS8_EE16_M_insert_uniqueIS6_IS5_S5_EEES6_ISt17_Rb_tree_iteratorIS8_EbEOT_
          3C .eh_frame$_ZNSt8_Rb_treeINSt7__cxx1112basic_stringIcSt11char_traitsIcESaIcEEESt4pairIKS5_S5_ESt10_Select1stIS8_ESt4lessIS5_ESaIS8_EE16_M_insert_uniqueISt23_Rb_tree_const_iteratorIS8_EEEvT_SI_
         214 .eh_frame$_ZNSt8_Rb_treeINSt7__cxx1112basic_stringIcSt11char_traitsIcESaIcEEESt4pairIKS5_S5_ESt10_Select1stIS8_ESt4lessIS5_ESaIS8_EE17_M_construct_nodeIJRKS8_EEEvPSt13_Rb_tree_nodeIS8_EDpOT_
          50 .eh_frame$_ZNSt8_Rb_treeINSt7__cxx1112basic_stringIcSt11char_traitsIcESaIcEEESt4pairIKS5_S5_ESt10_Select1stIS8_ESt4lessIS5_ESaIS8_EE17_M_construct_nodeIJRS7_S5_EEEvPSt13_Rb_tree_nodeIS8_EDpOT_
          50 .eh_frame$_ZNSt8_Rb_treeINSt7__cxx1112basic_stringIcSt11char_traitsIcESaIcEEESt4pairIKS5_S5_ESt10_Select1stIS8_ESt4lessIS5_ESaIS8_EE17_M_construct_nodeIJS5_RS7_EEEvPSt13_Rb_tree_nodeIS8_EDpOT_
          A0 .eh_frame$_ZNSt8_Rb_treeINSt7__cxx1112basic_stringIcSt11char_traitsIcESaIcEEESt4pairIKS5_S5_ESt10_Select1stIS8_ESt4lessIS5_ESaIS8_EE17_M_construct_nodeIJS5_S5_EEEvPSt13_Rb_tree_nodeIS8_EDpOT_
          4C .eh_frame$_ZNSt8_Rb_treeINSt7__cxx1112basic_stringIcSt11char_traitsIcESaIcEEESt4pairIKS5_S5_ESt10_Select1stIS8_ESt4lessIS5_ESaIS8_EE17_M_construct_nodeIJS6_IS5_S5_EEEEvPSt13_Rb_tree_nodeIS8_EDpOT_
          48 .eh_frame$_ZNSt8_Rb_treeINSt7__cxx1112basic_stringIcSt11char_traitsIcESaIcEEESt4pairIKS5_S5_ESt10_Select1stIS8_ESt4lessIS5_ESaIS8_EE17_M_emplace_uniqueIJRS7_S5_EEES6_ISt17_Rb_tree_iteratorIS8_EbEDpOT_
          48 .eh_frame$_ZNSt8_Rb_treeINSt7__cxx1112basic_stringIcSt11char_traitsIcESaIcEEESt4pairIKS5_S5_ESt10_Select1stIS8_ESt4lessIS5_ESaIS8_EE17_M_emplace_uniqueIJS5_RS7_EEES6_ISt17_Rb_tree_iteratorIS8_EbEDpOT_
          90 .eh_frame$_ZNSt8_Rb_treeINSt7__cxx1112basic_stringIcSt11char_traitsIcESaIcEEESt4pairIKS5_S5_ESt10_Select1stIS8_ESt4lessIS5_ESaIS8_EE17_M_emplace_uniqueIJS5_S5_EEES6_ISt17_Rb_tree_iteratorIS8_EbEDpOT_
          40 .eh_frame$_ZNSt8_Rb_treeINSt7__cxx1112basic_stringIcSt11char_traitsIcESaIcEEESt4pairIKS5_S5_ESt10_Select1stIS8_ESt4lessIS5_ESaIS8_EE17_M_insert_unique_IRKS8_NSE_11_Alloc_nodeEEESt17_Rb_tree_iteratorIS8_ESt23_Rb_tree_const_iteratorIS8_EOT_RT0_
         268 .eh_frame$_ZNSt8_Rb_treeINSt7__cxx1112basic_stringIcSt11char_traitsIcESaIcEEESt4pairIKS5_S5_ESt10_Select1stIS8_ESt4lessIS5_ESaIS8_EE21_M_get_Node_allocatorEv
          A8 .eh_frame$_ZNSt8_Rb_treeINSt7__cxx1112basic_stringIcSt11char_traitsIcESaIcEEESt4pairIKS5_S5_ESt10_Select1stIS8_ESt4lessIS5_ESaIS8_EE24_M_get_insert_unique_posERS7_
          3C .eh_frame$_ZNSt8_Rb_treeINSt7__cxx1112basic_stringIcSt11char_traitsIcESaIcEEESt4pairIKS5_S5_ESt10_Select1stIS8_ESt4lessIS5_ESaIS8_EE29_M_get_insert_hint_unique_posESt23_Rb_tree_const_iteratorIS8_ERS7_
          38 .eh_frame$_ZNSt8_Rb_treeINSt7__cxx1112basic_stringIcSt11char_traitsIcESaIcEEESt4pairIKS5_S5_ESt10_Select1stIS8_ESt4lessIS5_ESaIS8_EE3endEv
          A8 .eh_frame$_ZNSt8_Rb_treeINSt7__cxx1112basic_stringIcSt11char_traitsIcESaIcEEESt4pairIKS5_S5_ESt10_Select1stIS8_ESt4lessIS5_ESaIS8_EE5beginEv
         1C0 .eh_frame$_ZNSt8_Rb_treeINSt7__cxx1112basic_stringIcSt11char_traitsIcESaIcEEESt4pairIKS5_S5_ESt10_Select1stIS8_ESt4lessIS5_ESaIS8_EE6_M_endEv
          E0 .eh_frame$_ZNSt8_Rb_treeINSt7__cxx1112basic_stringIcSt11char_traitsIcESaIcEEESt4pairIKS5_S5_ESt10_Select1stIS8_ESt4lessIS5_ESaIS8_EE6_S_keyEPKSt13_Rb_tree_nodeIS8_E
          E0 .eh_frame$_ZNSt8_Rb_treeINSt7__cxx1112basic_stringIcSt11char_traitsIcESaIcEEESt4pairIKS5_S5_ESt10_Select1stIS8_ESt4lessIS5_ESaIS8_EE6_S_keyEPKSt18_Rb_tree_node_base
         188 .eh_frame$_ZNSt8_Rb_treeINSt7__cxx1112basic_stringIcSt11char_traitsIcESaIcEEESt4pairIKS5_S5_ESt10_Select1stIS8_ESt4lessIS5_ESaIS8_EE7_M_copyEPKSt13_Rb_tree_nodeIS8_EPSG_
         1F8 .eh_frame$_ZNSt8_Rb_treeINSt7__cxx1112basic_stringIcSt11char_traitsIcESaIcEEESt4pairIKS5_S5_ESt10_Select1stIS8_ESt4lessIS5_ESaIS8_EE7_M_copyINSE_11_Alloc_nodeEEEPSt13_Rb_tree_nodeIS8_EPKSI_SJ_RT_
         188 .eh_frame$_ZNSt8_Rb_treeINSt7__cxx1112basic_stringIcSt11char_traitsIcESaIcEEESt4pairIKS5_S5_ESt10_Select1stIS8_ESt4lessIS5_ESaIS8_EE7_M_rootEv
         188 .eh_frame$_ZNSt8_Rb_treeINSt7__cxx1112basic_stringIcSt11char_traitsIcESaIcEEESt4pairIKS5_S5_ESt10_Select1stIS8_ESt4lessIS5_ESaIS8_EE7_S_leftEPKSt18_Rb_tree_node_base
         268 .eh_frame$_ZNSt8_Rb_treeINSt7__cxx1112basic_stringIcSt11char_traitsIcESaIcEEESt4pairIKS5_S5_ESt10_Select1stIS8_ESt4lessIS5_ESaIS8_EE7_S_leftEPSt18_Rb_tree_node_base
         230 .eh_frame$_ZNSt8_Rb_treeINSt7__cxx1112basic_stringIcSt11char_traitsIcESaIcEEESt4pairIKS5_S5_ESt10_Select1stIS8_ESt4lessIS5_ESaIS8_EE8_M_beginEv
         230 .eh_frame$_ZNSt8_Rb_treeINSt7__cxx1112basic_stringIcSt11char_traitsIcESaIcEEESt4pairIKS5_S5_ESt10_Select1stIS8_ESt4lessIS5_ESaIS8_EE8_M_eraseEPSt13_Rb_tree_nodeIS8_E
         188 .eh_frame$_ZNSt8_Rb_treeINSt7__cxx1112basic_stringIcSt11char_traitsIcESaIcEEESt4pairIKS5_S5_ESt10_Select1stIS8_ESt4lessIS5_ESaIS8_EE8_S_rightEPKSt18_Rb_tree_node_base
         268 .eh_frame$_ZNSt8_Rb_treeINSt7__cxx1112basic_stringIcSt11char_traitsIcESaIcEEESt4pairIKS5_S5_ESt10_Select1stIS8_ESt4lessIS5_ESaIS8_EE8_S_rightEPSt18_Rb_tree_node_base
          E0 .eh_frame$_ZNSt8_Rb_treeINSt7__cxx1112basic_stringIcSt11char_traitsIcESaIcEEESt4pairIKS5_S5_ESt10_Select1stIS8_ESt4lessIS5_ESaIS8_EE8_S_valueEPKSt13_Rb_tree_nodeIS8_E
          E0 .eh_frame$_ZNSt8_Rb_treeINSt7__cxx1112basic_stringIcSt11char_traitsIcESaIcEEESt4pairIKS5_S5_ESt10_Select1stIS8_ESt4lessIS5_ESaIS8_EE8_S_valueEPKSt18_Rb_tree_node_base
          3C .eh_frame$_ZNSt8_Rb_treeINSt7__cxx1112basic_stringIcSt11char_traitsIcESaIcEEESt4pairIKS5_S5_ESt10_Select1stIS8_ESt4lessIS5_ESaIS8_EEC1EOSE_
         230 .eh_frame$_ZNSt8_Rb_treeINSt7__cxx1112basic_stringIcSt11char_traitsIcESaIcEEESt4pairIKS5_S5_ESt10_Select1stIS8_ESt4lessIS5_ESaIS8_EEC1ERKSE_
          E0 .eh_frame$_ZNSt8_Rb_treeINSt7__cxx1112basic_stringIcSt11char_traitsIcESaIcEEESt4pairIKS5_S5_ESt10_Select1stIS8_ESt4lessIS5_ESaIS8_EEC1Ev
         264 .eh_frame$_ZNSt8_Rb_treeINSt7__cxx1112basic_stringIcSt11char_traitsIcESaIcEEESt4pairIKS5_S5_ESt10_Select1stIS8_ESt4lessIS5_ESaIS8_EED1Ev
          38 .eh_frame$_ZNSt8_Rb_treeINSt7__cxx1112basic_stringIcSt11char_traitsIcESaIcEEESt4pairIKS5_S6_IPN3zmq5own_tEPNS8_6pipe_tEEESt10_Select1stISE_ESt4lessIS5_ESaISE_EE11_M_get_nodeEv
          44 .eh_frame$_ZNSt8_Rb_treeINSt7__cxx1112basic_stringIcSt11char_traitsIcESaIcEEESt4pairIKS5_S6_IPN3zmq5own_tEPNS8_6pipe_tEEESt10_Select1stISE_ESt4lessIS5_ESaISE_EE11_M_put_nodeEPSt13_Rb_tree_nodeISE_E
          38 .eh_frame$_ZNSt8_Rb_treeINSt7__cxx1112basic_stringIcSt11char_traitsIcESaIcEEESt4pairIKS5_S6_IPN3zmq5own_tEPNS8_6pipe_tEEESt10_Select1stISE_ESt4lessIS5_ESaISE_EE11equal_rangeERS7_
          38 .eh_frame$_ZNSt8_Rb_treeINSt7__cxx1112basic_stringIcSt11char_traitsIcESaIcEEESt4pairIKS5_S6_IPN3zmq5own_tEPNS8_6pipe_tEEESt10_Select1stISE_ESt4lessIS5_ESaISE_EE12_M_drop_nodeEPSt13_Rb_tree_nodeISE_E
          38 .eh_frame$_ZNSt8_Rb_treeINSt7__cxx1112basic_stringIcSt11char_traitsIcESaIcEEESt4pairIKS5_S6_IPN3zmq5own_tEPNS8_6pipe_tEEESt10_Select1stISE_ESt4lessIS5_ESaISE_EE12_M_erase_auxESt23_Rb_tree_const_iteratorISE_E
          3C .eh_frame$_ZNSt8_Rb_treeINSt7__cxx1112basic_stringIcSt11char_traitsIcESaIcEEESt4pairIKS5_S6_IPN3zmq5own_tEPNS8_6pipe_tEEESt10_Select1stISE_ESt4lessIS5_ESaISE_EE12_M_erase_auxESt23_Rb_tree_const_iteratorISE_ESM_
          38 .eh_frame$_ZNSt8_Rb_treeINSt7__cxx1112basic_stringIcSt11char_traitsIcESaIcEEESt4pairIKS5_S6_IPN3zmq5own_tEPNS8_6pipe_tEEESt10_Select1stISE_ESt4lessIS5_ESaISE_EE13_Rb_tree_implISI_Lb1EE13_M_initializeEv
          38 .eh_frame$_ZNSt8_Rb_treeINSt7__cxx1112basic_stringIcSt11char_traitsIcESaIcEEESt4pairIKS5_S6_IPN3zmq5own_tEPNS8_6pipe_tEEESt10_Select1stISE_ESt4lessIS5_ESaISE_EE13_Rb_tree_implISI_Lb1EE8_M_resetEv
          38 .eh_frame$_ZNSt8_Rb_treeINSt7__cxx1112basic_stringIcSt11char_traitsIcESaIcEEESt4pairIKS5_S6_IPN3zmq5own_tEPNS8_6pipe_tEEESt10_Select1stISE_ESt4lessIS5_ESaISE_EE13_Rb_tree_implISI_Lb1EEC1Ev
          38 .eh_frame$_ZNSt8_Rb_treeINSt7__cxx1112basic_stringIcSt11char_traitsIcESaIcEEESt4pairIKS5_S6_IPN3zmq5own_tEPNS8_6pipe_tEEESt10_Select1stISE_ESt4lessIS5_ESaISE_EE13_Rb_tree_implISI_Lb1EED1Ev
          3C .eh_frame$_ZNSt8_Rb_treeINSt7__cxx1112basic_stringIcSt11char_traitsIcESaIcEEESt4pairIKS5_S6_IPN3zmq5own_tEPNS8_6pipe_tEEESt10_Select1stISE_ESt4lessIS5_ESaISE_EE14_M_create_nodeIJRS7_SD_EEEPSt13_Rb_tree_nodeISE_EDpOT_
          3C .eh_frame$_ZNSt8_Rb_treeINSt7__cxx1112basic_stringIcSt11char_traitsIcESaIcEEESt4pairIKS5_S6_IPN3zmq5own_tEPNS8_6pipe_tEEESt10_Select1stISE_ESt4lessIS5_ESaISE_EE14_M_insert_nodeEPSt18_Rb_tree_node_baseSM_PSt13_Rb_tree_nodeISE_E
          38 .eh_frame$_ZNSt8_Rb_treeINSt7__cxx1112basic_stringIcSt11char_traitsIcESaIcEEESt4pairIKS5_S6_IPN3zmq5own_tEPNS8_6pipe_tEEESt10_Select1stISE_ESt4lessIS5_ESaISE_EE14_M_lower_boundEPSt13_Rb_tree_nodeISE_ESN_RS7_
          38 .eh_frame$_ZNSt8_Rb_treeINSt7__cxx1112basic_stringIcSt11char_traitsIcESaIcEEESt4pairIKS5_S6_IPN3zmq5own_tEPNS8_6pipe_tEEESt10_Select1stISE_ESt4lessIS5_ESaISE_EE14_M_upper_boundEPSt13_Rb_tree_nodeISE_ESN_RS7_
          48 .eh_frame$_ZNSt8_Rb_treeINSt7__cxx1112basic_stringIcSt11char_traitsIcESaIcEEESt4pairIKS5_S6_IPN3zmq5own_tEPNS8_6pipe_tEEESt10_Select1stISE_ESt4lessIS5_ESaISE_EE15_M_destroy_nodeEPSt13_Rb_tree_nodeISE_E
          48 .eh_frame$_ZNSt8_Rb_treeINSt7__cxx1112basic_stringIcSt11char_traitsIcESaIcEEESt4pairIKS5_S6_IPN3zmq5own_tEPNS8_6pipe_tEEESt10_Select1stISE_ESt4lessIS5_ESaISE_EE16_M_emplace_equalIJRS7_SD_EEESt17_Rb_tree_iteratorISE_EDpOT_
          50 .eh_frame$_ZNSt8_Rb_treeINSt7__cxx1112basic_stringIcSt11char_traitsIcESaIcEEESt4pairIKS5_S6_IPN3zmq5own_tEPNS8_6pipe_tEEESt10_Select1stISE_ESt4lessIS5_ESaISE_EE17_M_construct_nodeIJRS7_SD_EEEvPSt13_Rb_tree_nodeISE_EDpOT_
          38 .eh_frame$_ZNSt8_Rb_treeINSt7__cxx1112basic_stringIcSt11char_traitsIcESaIcEEESt4pairIKS5_S6_IPN3zmq5own_tEPNS8_6pipe_tEEESt10_Select1stISE_ESt4lessIS5_ESaISE_EE21_M_get_Node_allocatorEv
          38 .eh_frame$_ZNSt8_Rb_treeINSt7__cxx1112basic_stringIcSt11char_traitsIcESaIcEEESt4pairIKS5_S6_IPN3zmq5own_tEPNS8_6pipe_tEEESt10_Select1stISE_ESt4lessIS5_ESaISE_EE23_M_get_insert_equal_posERS7_
          38 .eh_frame$_ZNSt8_Rb_treeINSt7__cxx1112basic_stringIcSt11char_traitsIcESaIcEEESt4pairIKS5_S6_IPN3zmq5own_tEPNS8_6pipe_tEEESt10_Select1stISE_ESt4lessIS5_ESaISE_EE3endEv
          48 .eh_frame$_ZNSt8_Rb_treeINSt7__cxx1112basic_stringIcSt11char_traitsIcESaIcEEESt4pairIKS5_S6_IPN3zmq5own_tEPNS8_6pipe_tEEESt10_Select1stISE_ESt4lessIS5_ESaISE_EE4findERS7_
          38 .eh_frame$_ZNSt8_Rb_treeINSt7__cxx1112basic_stringIcSt11char_traitsIcESaIcEEESt4pairIKS5_S6_IPN3zmq5own_tEPNS8_6pipe_tEEESt10_Select1stISE_ESt4lessIS5_ESaISE_EE5beginEv
          44 .eh_frame$_ZNSt8_Rb_treeINSt7__cxx1112basic_stringIcSt11char_traitsIcESaIcEEESt4pairIKS5_S6_IPN3zmq5own_tEPNS8_6pipe_tEEESt10_Select1stISE_ESt4lessIS5_ESaISE_EE5clearEv
          38 .eh_frame$_ZNSt8_Rb_treeINSt7__cxx1112basic_stringIcSt11char_traitsIcESaIcEEESt4pairIKS5_S6_IPN3zmq5own_tEPNS8_6pipe_tEEESt10_Select1stISE_ESt4lessIS5_ESaISE_EE5eraseB5cxx11ESt23_Rb_tree_const_iteratorISE_E
          38 .eh_frame$_ZNSt8_Rb_treeINSt7__cxx1112basic_stringIcSt11char_traitsIcESaIcEEESt4pairIKS5_S6_IPN3zmq5own_tEPNS8_6pipe_tEEESt10_Select1stISE_ESt4lessIS5_ESaISE_EE5eraseB5cxx11ESt23_Rb_tree_const_iteratorISE_ESM_
          38 .eh_frame$_ZNSt8_Rb_treeINSt7__cxx1112basic_stringIcSt11char_traitsIcESaIcEEESt4pairIKS5_S6_IPN3zmq5own_tEPNS8_6pipe_tEEESt10_Select1stISE_ESt4lessIS5_ESaISE_EE6_M_endEv
          38 .eh_frame$_ZNSt8_Rb_treeINSt7__cxx1112basic_stringIcSt11char_traitsIcESaIcEEESt4pairIKS5_S6_IPN3zmq5own_tEPNS8_6pipe_tEEESt10_Select1stISE_ESt4lessIS5_ESaISE_EE6_S_keyEPKSt13_Rb_tree_nodeISE_E
          38 .eh_frame$_ZNSt8_Rb_treeINSt7__cxx1112basic_stringIcSt11char_traitsIcESaIcEEESt4pairIKS5_S6_IPN3zmq5own_tEPNS8_6pipe_tEEESt10_Select1stISE_ESt4lessIS5_ESaISE_EE6_S_keyEPKSt18_Rb_tree_node_base
          38 .eh_frame$_ZNSt8_Rb_treeINSt7__cxx1112basic_stringIcSt11char_traitsIcESaIcEEESt4pairIKS5_S6_IPN3zmq5own_tEPNS8_6pipe_tEEESt10_Select1stISE_ESt4lessIS5_ESaISE_EE7_S_leftEPKSt18_Rb_tree_node_base
          38 .eh_frame$_ZNSt8_Rb_treeINSt7__cxx1112basic_stringIcSt11char_traitsIcESaIcEEESt4pairIKS5_S6_IPN3zmq5own_tEPNS8_6pipe_tEEESt10_Select1stISE_ESt4lessIS5_ESaISE_EE7_S_leftEPSt18_Rb_tree_node_base
          38 .eh_frame$_ZNSt8_Rb_treeINSt7__cxx1112basic_stringIcSt11char_traitsIcESaIcEEESt4pairIKS5_S6_IPN3zmq5own_tEPNS8_6pipe_tEEESt10_Select1stISE_ESt4lessIS5_ESaISE_EE8_M_beginEv
          38 .eh_frame$_ZNSt8_Rb_treeINSt7__cxx1112basic_stringIcSt11char_traitsIcESaIcEEESt4pairIKS5_S6_IPN3zmq5own_tEPNS8_6pipe_tEEESt10_Select1stISE_ESt4lessIS5_ESaISE_EE8_M_eraseEPSt13_Rb_tree_nodeISE_E
          38 .eh_frame$_ZNSt8_Rb_treeINSt7__cxx1112basic_stringIcSt11char_traitsIcESaIcEEESt4pairIKS5_S6_IPN3zmq5own_tEPNS8_6pipe_tEEESt10_Select1stISE_ESt4lessIS5_ESaISE_EE8_S_rightEPKSt18_Rb_tree_node_base
          38 .eh_frame$_ZNSt8_Rb_treeINSt7__cxx1112basic_stringIcSt11char_traitsIcESaIcEEESt4pairIKS5_S6_IPN3zmq5own_tEPNS8_6pipe_tEEESt10_Select1stISE_ESt4lessIS5_ESaISE_EE8_S_rightEPSt18_Rb_tree_node_base
          38 .eh_frame$_ZNSt8_Rb_treeINSt7__cxx1112basic_stringIcSt11char_traitsIcESaIcEEESt4pairIKS5_S6_IPN3zmq5own_tEPNS8_6pipe_tEEESt10_Select1stISE_ESt4lessIS5_ESaISE_EE8_S_valueEPKSt13_Rb_tree_nodeISE_E
          38 .eh_frame$_ZNSt8_Rb_treeINSt7__cxx1112basic_stringIcSt11char_traitsIcESaIcEEESt4pairIKS5_S6_IPN3zmq5own_tEPNS8_6pipe_tEEESt10_Select1stISE_ESt4lessIS5_ESaISE_EE8_S_valueEPKSt18_Rb_tree_node_base
          38 .eh_frame$_ZNSt8_Rb_treeINSt7__cxx1112basic_stringIcSt11char_traitsIcESaIcEEESt4pairIKS5_S6_IPN3zmq5own_tEPNS8_6pipe_tEEESt10_Select1stISE_ESt4lessIS5_ESaISE_EEC1Ev
          44 .eh_frame$_ZNSt8_Rb_treeINSt7__cxx1112basic_stringIcSt11char_traitsIcESaIcEEESt4pairIKS5_S6_IPN3zmq5own_tEPNS8_6pipe_tEEESt10_Select1stISE_ESt4lessIS5_ESaISE_EED1Ev
          4C .eh_frame$_ZNSt8_Rb_treeIPN3zmq5own_tES2_St9_IdentityIS2_ESt4lessIS2_ESaIS2_EE10_M_insert_IRKS2_NS8_11_Alloc_nodeEEESt17_Rb_tree_iteratorIS2_EPSt18_Rb_tree_node_baseSG_OT_RT0_
          38 .eh_frame$_ZNSt8_Rb_treeIPN3zmq5own_tES2_St9_IdentityIS2_ESt4lessIS2_ESaIS2_EE11_Alloc_nodeC1ERS8_
          38 .eh_frame$_ZNSt8_Rb_treeIPN3zmq5own_tES2_St9_IdentityIS2_ESt4lessIS2_ESaIS2_EE11_M_get_nodeEv
          44 .eh_frame$_ZNSt8_Rb_treeIPN3zmq5own_tES2_St9_IdentityIS2_ESt4lessIS2_ESaIS2_EE11_M_put_nodeEPSt13_Rb_tree_nodeIS2_E
          38 .eh_frame$_ZNSt8_Rb_treeIPN3zmq5own_tES2_St9_IdentityIS2_ESt4lessIS2_ESaIS2_EE11equal_rangeERKS2_
          38 .eh_frame$_ZNSt8_Rb_treeIPN3zmq5own_tES2_St9_IdentityIS2_ESt4lessIS2_ESaIS2_EE12_M_drop_nodeEPSt13_Rb_tree_nodeIS2_E
          38 .eh_frame$_ZNSt8_Rb_treeIPN3zmq5own_tES2_St9_IdentityIS2_ESt4lessIS2_ESaIS2_EE12_M_erase_auxESt23_Rb_tree_const_iteratorIS2_E
          3C .eh_frame$_ZNSt8_Rb_treeIPN3zmq5own_tES2_St9_IdentityIS2_ESt4lessIS2_ESaIS2_EE12_M_erase_auxESt23_Rb_tree_const_iteratorIS2_ESA_
          38 .eh_frame$_ZNSt8_Rb_treeIPN3zmq5own_tES2_St9_IdentityIS2_ESt4lessIS2_ESaIS2_EE13_Rb_tree_implIS6_Lb1EE13_M_initializeEv
          38 .eh_frame$_ZNSt8_Rb_treeIPN3zmq5own_tES2_St9_IdentityIS2_ESt4lessIS2_ESaIS2_EE13_Rb_tree_implIS6_Lb1EE8_M_resetEv
          38 .eh_frame$_ZNSt8_Rb_treeIPN3zmq5own_tES2_St9_IdentityIS2_ESt4lessIS2_ESaIS2_EE13_Rb_tree_implIS6_Lb1EEC1Ev
          38 .eh_frame$_ZNSt8_Rb_treeIPN3zmq5own_tES2_St9_IdentityIS2_ESt4lessIS2_ESaIS2_EE13_Rb_tree_implIS6_Lb1EED1Ev
          38 .eh_frame$_ZNSt8_Rb_treeIPN3zmq5own_tES2_St9_IdentityIS2_ESt4lessIS2_ESaIS2_EE14_M_create_nodeIJRKS2_EEEPSt13_Rb_tree_nodeIS2_EDpOT_
          38 .eh_frame$_ZNSt8_Rb_treeIPN3zmq5own_tES2_St9_IdentityIS2_ESt4lessIS2_ESaIS2_EE14_M_lower_boundEPSt13_Rb_tree_nodeIS2_ESB_RKS2_
          38 .eh_frame$_ZNSt8_Rb_treeIPN3zmq5own_tES2_St9_IdentityIS2_ESt4lessIS2_ESaIS2_EE14_M_upper_boundEPSt13_Rb_tree_nodeIS2_ESB_RKS2_
          48 .eh_frame$_ZNSt8_Rb_treeIPN3zmq5own_tES2_St9_IdentityIS2_ESt4lessIS2_ESaIS2_EE15_M_destroy_nodeEPSt13_Rb_tree_nodeIS2_E
          40 .eh_frame$_ZNSt8_Rb_treeIPN3zmq5own_tES2_St9_IdentityIS2_ESt4lessIS2_ESaIS2_EE16_M_insert_uniqueIRKS2_EESt4pairISt17_Rb_tree_iteratorIS2_EbEOT_
          4C .eh_frame$_ZNSt8_Rb_treeIPN3zmq5own_tES2_St9_IdentityIS2_ESt4lessIS2_ESaIS2_EE17_M_construct_nodeIJRKS2_EEEvPSt13_Rb_tree_nodeIS2_EDpOT_
          38 .eh_frame$_ZNSt8_Rb_treeIPN3zmq5own_tES2_St9_IdentityIS2_ESt4lessIS2_ESaIS2_EE21_M_get_Node_allocatorEv
          38 .eh_frame$_ZNSt8_Rb_treeIPN3zmq5own_tES2_St9_IdentityIS2_ESt4lessIS2_ESaIS2_EE24_M_get_insert_unique_posERKS2_
          38 .eh_frame$_ZNSt8_Rb_treeIPN3zmq5own_tES2_St9_IdentityIS2_ESt4lessIS2_ESaIS2_EE3endEv
          38 .eh_frame$_ZNSt8_Rb_treeIPN3zmq5own_tES2_St9_IdentityIS2_ESt4lessIS2_ESaIS2_EE5beginEv
          44 .eh_frame$_ZNSt8_Rb_treeIPN3zmq5own_tES2_St9_IdentityIS2_ESt4lessIS2_ESaIS2_EE5clearEv
          38 .eh_frame$_ZNSt8_Rb_treeIPN3zmq5own_tES2_St9_IdentityIS2_ESt4lessIS2_ESaIS2_EE5eraseB5cxx11ESt23_Rb_tree_const_iteratorIS2_E
          38 .eh_frame$_ZNSt8_Rb_treeIPN3zmq5own_tES2_St9_IdentityIS2_ESt4lessIS2_ESaIS2_EE5eraseB5cxx11ESt23_Rb_tree_const_iteratorIS2_ESA_
          38 .eh_frame$_ZNSt8_Rb_treeIPN3zmq5own_tES2_St9_IdentityIS2_ESt4lessIS2_ESaIS2_EE5eraseERKS2_
          38 .eh_frame$_ZNSt8_Rb_treeIPN3zmq5own_tES2_St9_IdentityIS2_ESt4lessIS2_ESaIS2_EE6_M_endEv
          38 .eh_frame$_ZNSt8_Rb_treeIPN3zmq5own_tES2_St9_IdentityIS2_ESt4lessIS2_ESaIS2_EE6_S_keyEPKSt13_Rb_tree_nodeIS2_E
          38 .eh_frame$_ZNSt8_Rb_treeIPN3zmq5own_tES2_St9_IdentityIS2_ESt4lessIS2_ESaIS2_EE6_S_keyEPKSt18_Rb_tree_node_base
          38 .eh_frame$_ZNSt8_Rb_treeIPN3zmq5own_tES2_St9_IdentityIS2_ESt4lessIS2_ESaIS2_EE7_S_leftEPSt18_Rb_tree_node_base
          38 .eh_frame$_ZNSt8_Rb_treeIPN3zmq5own_tES2_St9_IdentityIS2_ESt4lessIS2_ESaIS2_EE8_M_beginEv
          38 .eh_frame$_ZNSt8_Rb_treeIPN3zmq5own_tES2_St9_IdentityIS2_ESt4lessIS2_ESaIS2_EE8_M_eraseEPSt13_Rb_tree_nodeIS2_E
          38 .eh_frame$_ZNSt8_Rb_treeIPN3zmq5own_tES2_St9_IdentityIS2_ESt4lessIS2_ESaIS2_EE8_S_rightEPSt18_Rb_tree_node_base
          38 .eh_frame$_ZNSt8_Rb_treeIPN3zmq5own_tES2_St9_IdentityIS2_ESt4lessIS2_ESaIS2_EE8_S_valueEPKSt13_Rb_tree_nodeIS2_E
          38 .eh_frame$_ZNSt8_Rb_treeIPN3zmq5own_tES2_St9_IdentityIS2_ESt4lessIS2_ESaIS2_EE8_S_valueEPKSt18_Rb_tree_node_base
          38 .eh_frame$_ZNSt8_Rb_treeIPN3zmq5own_tES2_St9_IdentityIS2_ESt4lessIS2_ESaIS2_EEC1Ev
          44 .eh_frame$_ZNSt8_Rb_treeIPN3zmq5own_tES2_St9_IdentityIS2_ESt4lessIS2_ESaIS2_EED1Ev
          E4 .eh_frame$_ZNSt8_Rb_treeIPN3zmq6pipe_tES2_St9_IdentityIS2_ESt4lessIS2_ESaIS2_EE10_M_insert_IRKS2_NS8_11_Alloc_nodeEEESt17_Rb_tree_iteratorIS2_EPSt18_Rb_tree_node_baseSG_OT_RT0_
          A8 .eh_frame$_ZNSt8_Rb_treeIPN3zmq6pipe_tES2_St9_IdentityIS2_ESt4lessIS2_ESaIS2_EE11_Alloc_nodeC1ERS8_
          A8 .eh_frame$_ZNSt8_Rb_treeIPN3zmq6pipe_tES2_St9_IdentityIS2_ESt4lessIS2_ESaIS2_EE11_M_get_nodeEv
         110 .eh_frame$_ZNSt8_Rb_treeIPN3zmq6pipe_tES2_St9_IdentityIS2_ESt4lessIS2_ESaIS2_EE11_M_put_nodeEPSt13_Rb_tree_nodeIS2_E
          E0 .eh_frame$_ZNSt8_Rb_treeIPN3zmq6pipe_tES2_St9_IdentityIS2_ESt4lessIS2_ESaIS2_EE11equal_rangeERKS2_
          E0 .eh_frame$_ZNSt8_Rb_treeIPN3zmq6pipe_tES2_St9_IdentityIS2_ESt4lessIS2_ESaIS2_EE12_M_drop_nodeEPSt13_Rb_tree_nodeIS2_E
          E0 .eh_frame$_ZNSt8_Rb_treeIPN3zmq6pipe_tES2_St9_IdentityIS2_ESt4lessIS2_ESaIS2_EE12_M_erase_auxESt23_Rb_tree_const_iteratorIS2_E
          F0 .eh_frame$_ZNSt8_Rb_treeIPN3zmq6pipe_tES2_St9_IdentityIS2_ESt4lessIS2_ESaIS2_EE12_M_erase_auxESt23_Rb_tree_const_iteratorIS2_ESA_
          A8 .eh_frame$_ZNSt8_Rb_treeIPN3zmq6pipe_tES2_St9_IdentityIS2_ESt4lessIS2_ESaIS2_EE13_Rb_tree_implIS6_Lb1EE13_M_initializeEv
          E0 .eh_frame$_ZNSt8_Rb_treeIPN3zmq6pipe_tES2_St9_IdentityIS2_ESt4lessIS2_ESaIS2_EE13_Rb_tree_implIS6_Lb1EE8_M_resetEv
          A8 .eh_frame$_ZNSt8_Rb_treeIPN3zmq6pipe_tES2_St9_IdentityIS2_ESt4lessIS2_ESaIS2_EE13_Rb_tree_implIS6_Lb1EEC1Ev
          E0 .eh_frame$_ZNSt8_Rb_treeIPN3zmq6pipe_tES2_St9_IdentityIS2_ESt4lessIS2_ESaIS2_EE13_Rb_tree_implIS6_Lb1EED1Ev
          A8 .eh_frame$_ZNSt8_Rb_treeIPN3zmq6pipe_tES2_St9_IdentityIS2_ESt4lessIS2_ESaIS2_EE14_M_create_nodeIJRKS2_EEEPSt13_Rb_tree_nodeIS2_EDpOT_
          E0 .eh_frame$_ZNSt8_Rb_treeIPN3zmq6pipe_tES2_St9_IdentityIS2_ESt4lessIS2_ESaIS2_EE14_M_lower_boundEPSt13_Rb_tree_nodeIS2_ESB_RKS2_
          E0 .eh_frame$_ZNSt8_Rb_treeIPN3zmq6pipe_tES2_St9_IdentityIS2_ESt4lessIS2_ESaIS2_EE14_M_upper_boundEPSt13_Rb_tree_nodeIS2_ESB_RKS2_
         120 .eh_frame$_ZNSt8_Rb_treeIPN3zmq6pipe_tES2_St9_IdentityIS2_ESt4lessIS2_ESaIS2_EE15_M_destroy_nodeEPSt13_Rb_tree_nodeIS2_E
          C0 .eh_frame$_ZNSt8_Rb_treeIPN3zmq6pipe_tES2_St9_IdentityIS2_ESt4lessIS2_ESaIS2_EE16_M_insert_uniqueIRKS2_EESt4pairISt17_Rb_tree_iteratorIS2_EbEOT_
          E4 .eh_frame$_ZNSt8_Rb_treeIPN3zmq6pipe_tES2_St9_IdentityIS2_ESt4lessIS2_ESaIS2_EE17_M_construct_nodeIJRKS2_EEEvPSt13_Rb_tree_nodeIS2_EDpOT_
          E0 .eh_frame$_ZNSt8_Rb_treeIPN3zmq6pipe_tES2_St9_IdentityIS2_ESt4lessIS2_ESaIS2_EE21_M_get_Node_allocatorEv
          A8 .eh_frame$_ZNSt8_Rb_treeIPN3zmq6pipe_tES2_St9_IdentityIS2_ESt4lessIS2_ESaIS2_EE24_M_get_insert_unique_posERKS2_
          E0 .eh_frame$_ZNSt8_Rb_treeIPN3zmq6pipe_tES2_St9_IdentityIS2_ESt4lessIS2_ESaIS2_EE3endEv
          48 .eh_frame$_ZNSt8_Rb_treeIPN3zmq6pipe_tES2_St9_IdentityIS2_ESt4lessIS2_ESaIS2_EE4findERKS2_
          E0 .eh_frame$_ZNSt8_Rb_treeIPN3zmq6pipe_tES2_St9_IdentityIS2_ESt4lessIS2_ESaIS2_EE5beginEv
         110 .eh_frame$_ZNSt8_Rb_treeIPN3zmq6pipe_tES2_St9_IdentityIS2_ESt4lessIS2_ESaIS2_EE5clearEv
          E0 .eh_frame$_ZNSt8_Rb_treeIPN3zmq6pipe_tES2_St9_IdentityIS2_ESt4lessIS2_ESaIS2_EE5eraseB5cxx11ESt23_Rb_tree_const_iteratorIS2_E
          E0 .eh_frame$_ZNSt8_Rb_treeIPN3zmq6pipe_tES2_St9_IdentityIS2_ESt4lessIS2_ESaIS2_EE5eraseB5cxx11ESt23_Rb_tree_const_iteratorIS2_ESA_
          E0 .eh_frame$_ZNSt8_Rb_treeIPN3zmq6pipe_tES2_St9_IdentityIS2_ESt4lessIS2_ESaIS2_EE5eraseERKS2_
          E0 .eh_frame$_ZNSt8_Rb_treeIPN3zmq6pipe_tES2_St9_IdentityIS2_ESt4lessIS2_ESaIS2_EE6_M_endEv
          E0 .eh_frame$_ZNSt8_Rb_treeIPN3zmq6pipe_tES2_St9_IdentityIS2_ESt4lessIS2_ESaIS2_EE6_S_keyEPKSt13_Rb_tree_nodeIS2_E
          A8 .eh_frame$_ZNSt8_Rb_treeIPN3zmq6pipe_tES2_St9_IdentityIS2_ESt4lessIS2_ESaIS2_EE6_S_keyEPKSt18_Rb_tree_node_base
          38 .eh_frame$_ZNSt8_Rb_treeIPN3zmq6pipe_tES2_St9_IdentityIS2_ESt4lessIS2_ESaIS2_EE7_S_leftEPKSt18_Rb_tree_node_base
          E0 .eh_frame$_ZNSt8_Rb_treeIPN3zmq6pipe_tES2_St9_IdentityIS2_ESt4lessIS2_ESaIS2_EE7_S_leftEPSt18_Rb_tree_node_base
          E0 .eh_frame$_ZNSt8_Rb_treeIPN3zmq6pipe_tES2_St9_IdentityIS2_ESt4lessIS2_ESaIS2_EE8_M_beginEv
          E0 .eh_frame$_ZNSt8_Rb_treeIPN3zmq6pipe_tES2_St9_IdentityIS2_ESt4lessIS2_ESaIS2_EE8_M_eraseEPSt13_Rb_tree_nodeIS2_E
          38 .eh_frame$_ZNSt8_Rb_treeIPN3zmq6pipe_tES2_St9_IdentityIS2_ESt4lessIS2_ESaIS2_EE8_S_rightEPKSt18_Rb_tree_node_base
          E0 .eh_frame$_ZNSt8_Rb_treeIPN3zmq6pipe_tES2_St9_IdentityIS2_ESt4lessIS2_ESaIS2_EE8_S_rightEPSt18_Rb_tree_node_base
          E0 .eh_frame$_ZNSt8_Rb_treeIPN3zmq6pipe_tES2_St9_IdentityIS2_ESt4lessIS2_ESaIS2_EE8_S_valueEPKSt13_Rb_tree_nodeIS2_E
          A8 .eh_frame$_ZNSt8_Rb_treeIPN3zmq6pipe_tES2_St9_IdentityIS2_ESt4lessIS2_ESaIS2_EE8_S_valueEPKSt18_Rb_tree_node_base
          A8 .eh_frame$_ZNSt8_Rb_treeIPN3zmq6pipe_tES2_St9_IdentityIS2_ESt4lessIS2_ESaIS2_EEC1Ev
         110 .eh_frame$_ZNSt8_Rb_treeIPN3zmq6pipe_tES2_St9_IdentityIS2_ESt4lessIS2_ESaIS2_EED1Ev
          98 .eh_frame$_ZNSt8_Rb_treeIiiSt9_IdentityIiESt4lessIiESaIiEE10_M_insert_IRKiNS5_11_Alloc_nodeEEESt17_Rb_tree_iteratorIiEPSt18_Rb_tree_node_baseSD_OT_RT0_
          70 .eh_frame$_ZNSt8_Rb_treeIiiSt9_IdentityIiESt4lessIiESaIiEE11_Alloc_nodeC1ERS5_
          70 .eh_frame$_ZNSt8_Rb_treeIiiSt9_IdentityIiESt4lessIiESaIiEE11_M_get_nodeEv
         110 .eh_frame$_ZNSt8_Rb_treeIiiSt9_IdentityIiESt4lessIiESaIiEE11_M_put_nodeEPSt13_Rb_tree_nodeIiE
          70 .eh_frame$_ZNSt8_Rb_treeIiiSt9_IdentityIiESt4lessIiESaIiEE11equal_rangeERKi
          E0 .eh_frame$_ZNSt8_Rb_treeIiiSt9_IdentityIiESt4lessIiESaIiEE12_M_drop_nodeEPSt13_Rb_tree_nodeIiE
          70 .eh_frame$_ZNSt8_Rb_treeIiiSt9_IdentityIiESt4lessIiESaIiEE12_M_erase_auxESt23_Rb_tree_const_iteratorIiE
          78 .eh_frame$_ZNSt8_Rb_treeIiiSt9_IdentityIiESt4lessIiESaIiEE12_M_erase_auxESt23_Rb_tree_const_iteratorIiES7_
          E0 .eh_frame$_ZNSt8_Rb_treeIiiSt9_IdentityIiESt4lessIiESaIiEE13_Rb_tree_implIS3_Lb1EE13_M_initializeEv
          70 .eh_frame$_ZNSt8_Rb_treeIiiSt9_IdentityIiESt4lessIiESaIiEE13_Rb_tree_implIS3_Lb1EE8_M_resetEv
          E0 .eh_frame$_ZNSt8_Rb_treeIiiSt9_IdentityIiESt4lessIiESaIiEE13_Rb_tree_implIS3_Lb1EEC1Ev
          E0 .eh_frame$_ZNSt8_Rb_treeIiiSt9_IdentityIiESt4lessIiESaIiEE13_Rb_tree_implIS3_Lb1EED1Ev
          70 .eh_frame$_ZNSt8_Rb_treeIiiSt9_IdentityIiESt4lessIiESaIiEE14_M_create_nodeIJRKiEEEPSt13_Rb_tree_nodeIiEDpOT_
          70 .eh_frame$_ZNSt8_Rb_treeIiiSt9_IdentityIiESt4lessIiESaIiEE14_M_lower_boundEPSt13_Rb_tree_nodeIiES8_RKi
          70 .eh_frame$_ZNSt8_Rb_treeIiiSt9_IdentityIiESt4lessIiESaIiEE14_M_upper_boundEPSt13_Rb_tree_nodeIiES8_RKi
         120 .eh_frame$_ZNSt8_Rb_treeIiiSt9_IdentityIiESt4lessIiESaIiEE15_M_destroy_nodeEPSt13_Rb_tree_nodeIiE
          80 .eh_frame$_ZNSt8_Rb_treeIiiSt9_IdentityIiESt4lessIiESaIiEE16_M_insert_uniqueIRKiEESt4pairISt17_Rb_tree_iteratorIiEbEOT_
          98 .eh_frame$_ZNSt8_Rb_treeIiiSt9_IdentityIiESt4lessIiESaIiEE17_M_construct_nodeIJRKiEEEvPSt13_Rb_tree_nodeIiEDpOT_
          E0 .eh_frame$_ZNSt8_Rb_treeIiiSt9_IdentityIiESt4lessIiESaIiEE21_M_get_Node_allocatorEv
          70 .eh_frame$_ZNSt8_Rb_treeIiiSt9_IdentityIiESt4lessIiESaIiEE24_M_get_insert_unique_posERKi
          70 .eh_frame$_ZNSt8_Rb_treeIiiSt9_IdentityIiESt4lessIiESaIiEE3endEv
          70 .eh_frame$_ZNSt8_Rb_treeIiiSt9_IdentityIiESt4lessIiESaIiEE5beginEv
          88 .eh_frame$_ZNSt8_Rb_treeIiiSt9_IdentityIiESt4lessIiESaIiEE5clearEv
          70 .eh_frame$_ZNSt8_Rb_treeIiiSt9_IdentityIiESt4lessIiESaIiEE5eraseB5cxx11ESt23_Rb_tree_const_iteratorIiE
          70 .eh_frame$_ZNSt8_Rb_treeIiiSt9_IdentityIiESt4lessIiESaIiEE5eraseB5cxx11ESt23_Rb_tree_const_iteratorIiES7_
          70 .eh_frame$_ZNSt8_Rb_treeIiiSt9_IdentityIiESt4lessIiESaIiEE5eraseERKi
          70 .eh_frame$_ZNSt8_Rb_treeIiiSt9_IdentityIiESt4lessIiESaIiEE6_M_endEv
          70 .eh_frame$_ZNSt8_Rb_treeIiiSt9_IdentityIiESt4lessIiESaIiEE6_S_keyEPKSt13_Rb_tree_nodeIiE
          70 .eh_frame$_ZNSt8_Rb_treeIiiSt9_IdentityIiESt4lessIiESaIiEE6_S_keyEPKSt18_Rb_tree_node_base
          38 .eh_frame$_ZNSt8_Rb_treeIiiSt9_IdentityIiESt4lessIiESaIiEE7_S_leftEPKSt18_Rb_tree_node_base
          E0 .eh_frame$_ZNSt8_Rb_treeIiiSt9_IdentityIiESt4lessIiESaIiEE7_S_leftEPSt18_Rb_tree_node_base
          E0 .eh_frame$_ZNSt8_Rb_treeIiiSt9_IdentityIiESt4lessIiESaIiEE8_M_beginEv
          E0 .eh_frame$_ZNSt8_Rb_treeIiiSt9_IdentityIiESt4lessIiESaIiEE8_M_eraseEPSt13_Rb_tree_nodeIiE
          38 .eh_frame$_ZNSt8_Rb_treeIiiSt9_IdentityIiESt4lessIiESaIiEE8_S_rightEPKSt18_Rb_tree_node_base
          E0 .eh_frame$_ZNSt8_Rb_treeIiiSt9_IdentityIiESt4lessIiESaIiEE8_S_rightEPSt18_Rb_tree_node_base
          70 .eh_frame$_ZNSt8_Rb_treeIiiSt9_IdentityIiESt4lessIiESaIiEE8_S_valueEPKSt13_Rb_tree_nodeIiE
          70 .eh_frame$_ZNSt8_Rb_treeIiiSt9_IdentityIiESt4lessIiESaIiEE8_S_valueEPKSt18_Rb_tree_node_base
          E0 .eh_frame$_ZNSt8_Rb_treeIiiSt9_IdentityIiESt4lessIiESaIiEEC1Ev
         110 .eh_frame$_ZNSt8_Rb_treeIiiSt9_IdentityIiESt4lessIiESaIiEED1Ev
          38 .eh_frame$_ZNSt8_Rb_treeIjSt4pairIKjN3zmq8server_t9outpipe_tEESt10_Select1stIS5_ESt4lessIjESaIS5_EE11_M_get_nodeEv
          44 .eh_frame$_ZNSt8_Rb_treeIjSt4pairIKjN3zmq8server_t9outpipe_tEESt10_Select1stIS5_ESt4lessIjESaIS5_EE11_M_put_nodeEPSt13_Rb_tree_nodeIS5_E
          38 .eh_frame$_ZNSt8_Rb_treeIjSt4pairIKjN3zmq8server_t9outpipe_tEESt10_Select1stIS5_ESt4lessIjESaIS5_EE12_M_drop_nodeEPSt13_Rb_tree_nodeIS5_E
          38 .eh_frame$_ZNSt8_Rb_treeIjSt4pairIKjN3zmq8server_t9outpipe_tEESt10_Select1stIS5_ESt4lessIjESaIS5_EE12_M_erase_auxESt23_Rb_tree_const_iteratorIS5_E
          38 .eh_frame$_ZNSt8_Rb_treeIjSt4pairIKjN3zmq8server_t9outpipe_tEESt10_Select1stIS5_ESt4lessIjESaIS5_EE13_Rb_tree_implIS9_Lb1EE13_M_initializeEv
          38 .eh_frame$_ZNSt8_Rb_treeIjSt4pairIKjN3zmq8server_t9outpipe_tEESt10_Select1stIS5_ESt4lessIjESaIS5_EE13_Rb_tree_implIS9_Lb1EEC1Ev
          38 .eh_frame$_ZNSt8_Rb_treeIjSt4pairIKjN3zmq8server_t9outpipe_tEESt10_Select1stIS5_ESt4lessIjESaIS5_EE13_Rb_tree_implIS9_Lb1EED1Ev
          3C .eh_frame$_ZNSt8_Rb_treeIjSt4pairIKjN3zmq8server_t9outpipe_tEESt10_Select1stIS5_ESt4lessIjESaIS5_EE14_M_create_nodeIJRjRS4_EEEPSt13_Rb_tree_nodeIS5_EDpOT_
          3C .eh_frame$_ZNSt8_Rb_treeIjSt4pairIKjN3zmq8server_t9outpipe_tEESt10_Select1stIS5_ESt4lessIjESaIS5_EE14_M_insert_nodeEPSt18_Rb_tree_node_baseSD_PSt13_Rb_tree_nodeIS5_E
          38 .eh_frame$_ZNSt8_Rb_treeIjSt4pairIKjN3zmq8server_t9outpipe_tEESt10_Select1stIS5_ESt4lessIjESaIS5_EE14_M_lower_boundEPSt13_Rb_tree_nodeIS5_ESE_RS1_
          48 .eh_frame$_ZNSt8_Rb_treeIjSt4pairIKjN3zmq8server_t9outpipe_tEESt10_Select1stIS5_ESt4lessIjESaIS5_EE15_M_destroy_nodeEPSt13_Rb_tree_nodeIS5_E
          50 .eh_frame$_ZNSt8_Rb_treeIjSt4pairIKjN3zmq8server_t9outpipe_tEESt10_Select1stIS5_ESt4lessIjESaIS5_EE17_M_construct_nodeIJRjRS4_EEEvPSt13_Rb_tree_nodeIS5_EDpOT_
          48 .eh_frame$_ZNSt8_Rb_treeIjSt4pairIKjN3zmq8server_t9outpipe_tEESt10_Select1stIS5_ESt4lessIjESaIS5_EE17_M_emplace_uniqueIJRjRS4_EEES0_ISt17_Rb_tree_iteratorIS5_EbEDpOT_
          38 .eh_frame$_ZNSt8_Rb_treeIjSt4pairIKjN3zmq8server_t9outpipe_tEESt10_Select1stIS5_ESt4lessIjESaIS5_EE21_M_get_Node_allocatorEv
          38 .eh_frame$_ZNSt8_Rb_treeIjSt4pairIKjN3zmq8server_t9outpipe_tEESt10_Select1stIS5_ESt4lessIjESaIS5_EE24_M_get_insert_unique_posERS1_
          38 .eh_frame$_ZNSt8_Rb_treeIjSt4pairIKjN3zmq8server_t9outpipe_tEESt10_Select1stIS5_ESt4lessIjESaIS5_EE3endEv
          48 .eh_frame$_ZNSt8_Rb_treeIjSt4pairIKjN3zmq8server_t9outpipe_tEESt10_Select1stIS5_ESt4lessIjESaIS5_EE4findERS1_
          38 .eh_frame$_ZNSt8_Rb_treeIjSt4pairIKjN3zmq8server_t9outpipe_tEESt10_Select1stIS5_ESt4lessIjESaIS5_EE5beginEv
          38 .eh_frame$_ZNSt8_Rb_treeIjSt4pairIKjN3zmq8server_t9outpipe_tEESt10_Select1stIS5_ESt4lessIjESaIS5_EE5eraseB5cxx11ESt17_Rb_tree_iteratorIS5_E
          38 .eh_frame$_ZNSt8_Rb_treeIjSt4pairIKjN3zmq8server_t9outpipe_tEESt10_Select1stIS5_ESt4lessIjESaIS5_EE6_M_endEv
          38 .eh_frame$_ZNSt8_Rb_treeIjSt4pairIKjN3zmq8server_t9outpipe_tEESt10_Select1stIS5_ESt4lessIjESaIS5_EE6_S_keyEPKSt13_Rb_tree_nodeIS5_E
          38 .eh_frame$_ZNSt8_Rb_treeIjSt4pairIKjN3zmq8server_t9outpipe_tEESt10_Select1stIS5_ESt4lessIjESaIS5_EE6_S_keyEPKSt18_Rb_tree_node_base
          38 .eh_frame$_ZNSt8_Rb_treeIjSt4pairIKjN3zmq8server_t9outpipe_tEESt10_Select1stIS5_ESt4lessIjESaIS5_EE7_S_leftEPSt18_Rb_tree_node_base
          38 .eh_frame$_ZNSt8_Rb_treeIjSt4pairIKjN3zmq8server_t9outpipe_tEESt10_Select1stIS5_ESt4lessIjESaIS5_EE8_M_beginEv
          38 .eh_frame$_ZNSt8_Rb_treeIjSt4pairIKjN3zmq8server_t9outpipe_tEESt10_Select1stIS5_ESt4lessIjESaIS5_EE8_M_eraseEPSt13_Rb_tree_nodeIS5_E
          38 .eh_frame$_ZNSt8_Rb_treeIjSt4pairIKjN3zmq8server_t9outpipe_tEESt10_Select1stIS5_ESt4lessIjESaIS5_EE8_S_rightEPSt18_Rb_tree_node_base
          38 .eh_frame$_ZNSt8_Rb_treeIjSt4pairIKjN3zmq8server_t9outpipe_tEESt10_Select1stIS5_ESt4lessIjESaIS5_EE8_S_valueEPKSt13_Rb_tree_nodeIS5_E
          38 .eh_frame$_ZNSt8_Rb_treeIjSt4pairIKjN3zmq8server_t9outpipe_tEESt10_Select1stIS5_ESt4lessIjESaIS5_EE8_S_valueEPKSt18_Rb_tree_node_base
          38 .eh_frame$_ZNSt8_Rb_treeIjSt4pairIKjN3zmq8server_t9outpipe_tEESt10_Select1stIS5_ESt4lessIjESaIS5_EEC1Ev
          44 .eh_frame$_ZNSt8_Rb_treeIjSt4pairIKjN3zmq8server_t9outpipe_tEESt10_Select1stIS5_ESt4lessIjESaIS5_EED1Ev
          38 .eh_frame$_ZNSt8_Rb_treeItSt4pairIKtN3zmq8select_t14family_entry_tEESt10_Select1stIS5_ESt4lessItESaIS5_EE11_M_get_nodeEv
          38 .eh_frame$_ZNSt8_Rb_treeItSt4pairIKtN3zmq8select_t14family_entry_tEESt10_Select1stIS5_ESt4lessItESaIS5_EE11_M_leftmostEv
          44 .eh_frame$_ZNSt8_Rb_treeItSt4pairIKtN3zmq8select_t14family_entry_tEESt10_Select1stIS5_ESt4lessItESaIS5_EE11_M_put_nodeEPSt13_Rb_tree_nodeIS5_E
          3C .eh_frame$_ZNSt8_Rb_treeItSt4pairIKtN3zmq8select_t14family_entry_tEESt10_Select1stIS5_ESt4lessItESaIS5_EE11lower_boundERS1_
          38 .eh_frame$_ZNSt8_Rb_treeItSt4pairIKtN3zmq8select_t14family_entry_tEESt10_Select1stIS5_ESt4lessItESaIS5_EE12_M_drop_nodeEPSt13_Rb_tree_nodeIS5_E
          38 .eh_frame$_ZNSt8_Rb_treeItSt4pairIKtN3zmq8select_t14family_entry_tEESt10_Select1stIS5_ESt4lessItESaIS5_EE12_M_erase_auxESt23_Rb_tree_const_iteratorIS5_E
          38 .eh_frame$_ZNSt8_Rb_treeItSt4pairIKtN3zmq8select_t14family_entry_tEESt10_Select1stIS5_ESt4lessItESaIS5_EE12_M_rightmostEv
          38 .eh_frame$_ZNSt8_Rb_treeItSt4pairIKtN3zmq8select_t14family_entry_tEESt10_Select1stIS5_ESt4lessItESaIS5_EE13_Rb_tree_implIS9_Lb1EE13_M_initializeEv
          38 .eh_frame$_ZNSt8_Rb_treeItSt4pairIKtN3zmq8select_t14family_entry_tEESt10_Select1stIS5_ESt4lessItESaIS5_EE13_Rb_tree_implIS9_Lb1EEC1Ev
          38 .eh_frame$_ZNSt8_Rb_treeItSt4pairIKtN3zmq8select_t14family_entry_tEESt10_Select1stIS5_ESt4lessItESaIS5_EE13_Rb_tree_implIS9_Lb1EED1Ev
          40 .eh_frame$_ZNSt8_Rb_treeItSt4pairIKtN3zmq8select_t14family_entry_tEESt10_Select1stIS5_ESt4lessItESaIS5_EE14_M_create_nodeIJRKSt21piecewise_construct_tSt5tupleIJRS1_EESG_IJEEEEEPSt13_Rb_tree_nodeIS5_EDpOT_
          3C .eh_frame$_ZNSt8_Rb_treeItSt4pairIKtN3zmq8select_t14family_entry_tEESt10_Select1stIS5_ESt4lessItESaIS5_EE14_M_insert_nodeEPSt18_Rb_tree_node_baseSD_PSt13_Rb_tree_nodeIS5_E
          38 .eh_frame$_ZNSt8_Rb_treeItSt4pairIKtN3zmq8select_t14family_entry_tEESt10_Select1stIS5_ESt4lessItESaIS5_EE14_M_lower_boundEPSt13_Rb_tree_nodeIS5_ESE_RS1_
          48 .eh_frame$_ZNSt8_Rb_treeItSt4pairIKtN3zmq8select_t14family_entry_tEESt10_Select1stIS5_ESt4lessItESaIS5_EE15_M_destroy_nodeEPSt13_Rb_tree_nodeIS5_E
          50 .eh_frame$_ZNSt8_Rb_treeItSt4pairIKtN3zmq8select_t14family_entry_tEESt10_Select1stIS5_ESt4lessItESaIS5_EE17_M_construct_nodeIJRKSt21piecewise_construct_tSt5tupleIJRS1_EESG_IJEEEEEvPSt13_Rb_tree_nodeIS5_EDpOT_
          38 .eh_frame$_ZNSt8_Rb_treeItSt4pairIKtN3zmq8select_t14family_entry_tEESt10_Select1stIS5_ESt4lessItESaIS5_EE21_M_get_Node_allocatorEv
          4C .eh_frame$_ZNSt8_Rb_treeItSt4pairIKtN3zmq8select_t14family_entry_tEESt10_Select1stIS5_ESt4lessItESaIS5_EE22_M_emplace_hint_uniqueIJRKSt21piecewise_construct_tSt5tupleIJRS1_EESG_IJEEEEESt17_Rb_tree_iteratorIS5_ESt23_Rb_tree_const_iteratorIS5_EDpOT_
          38 .eh_frame$_ZNSt8_Rb_treeItSt4pairIKtN3zmq8select_t14family_entry_tEESt10_Select1stIS5_ESt4lessItESaIS5_EE24_M_get_insert_unique_posERS1_
          3C .eh_frame$_ZNSt8_Rb_treeItSt4pairIKtN3zmq8select_t14family_entry_tEESt10_Select1stIS5_ESt4lessItESaIS5_EE29_M_get_insert_hint_unique_posESt23_Rb_tree_const_iteratorIS5_ERS1_
          38 .eh_frame$_ZNSt8_Rb_treeItSt4pairIKtN3zmq8select_t14family_entry_tEESt10_Select1stIS5_ESt4lessItESaIS5_EE3endEv
          48 .eh_frame$_ZNSt8_Rb_treeItSt4pairIKtN3zmq8select_t14family_entry_tEESt10_Select1stIS5_ESt4lessItESaIS5_EE4findERS1_
          38 .eh_frame$_ZNSt8_Rb_treeItSt4pairIKtN3zmq8select_t14family_entry_tEESt10_Select1stIS5_ESt4lessItESaIS5_EE5beginEv
          38 .eh_frame$_ZNSt8_Rb_treeItSt4pairIKtN3zmq8select_t14family_entry_tEESt10_Select1stIS5_ESt4lessItESaIS5_EE5eraseB5cxx11ESt17_Rb_tree_iteratorIS5_E
          38 .eh_frame$_ZNSt8_Rb_treeItSt4pairIKtN3zmq8select_t14family_entry_tEESt10_Select1stIS5_ESt4lessItESaIS5_EE6_M_endEv
          38 .eh_frame$_ZNSt8_Rb_treeItSt4pairIKtN3zmq8select_t14family_entry_tEESt10_Select1stIS5_ESt4lessItESaIS5_EE6_S_keyEPKSt13_Rb_tree_nodeIS5_E
          38 .eh_frame$_ZNSt8_Rb_treeItSt4pairIKtN3zmq8select_t14family_entry_tEESt10_Select1stIS5_ESt4lessItESaIS5_EE6_S_keyEPKSt18_Rb_tree_node_base
          38 .eh_frame$_ZNSt8_Rb_treeItSt4pairIKtN3zmq8select_t14family_entry_tEESt10_Select1stIS5_ESt4lessItESaIS5_EE7_S_leftEPSt18_Rb_tree_node_base
          38 .eh_frame$_ZNSt8_Rb_treeItSt4pairIKtN3zmq8select_t14family_entry_tEESt10_Select1stIS5_ESt4lessItESaIS5_EE8_M_beginEv
          38 .eh_frame$_ZNSt8_Rb_treeItSt4pairIKtN3zmq8select_t14family_entry_tEESt10_Select1stIS5_ESt4lessItESaIS5_EE8_M_eraseEPSt13_Rb_tree_nodeIS5_E
          38 .eh_frame$_ZNSt8_Rb_treeItSt4pairIKtN3zmq8select_t14family_entry_tEESt10_Select1stIS5_ESt4lessItESaIS5_EE8_S_rightEPSt18_Rb_tree_node_base
          38 .eh_frame$_ZNSt8_Rb_treeItSt4pairIKtN3zmq8select_t14family_entry_tEESt10_Select1stIS5_ESt4lessItESaIS5_EE8_S_valueEPKSt13_Rb_tree_nodeIS5_E
          38 .eh_frame$_ZNSt8_Rb_treeItSt4pairIKtN3zmq8select_t14family_entry_tEESt10_Select1stIS5_ESt4lessItESaIS5_EE8_S_valueEPKSt18_Rb_tree_node_base
          38 .eh_frame$_ZNSt8_Rb_treeItSt4pairIKtN3zmq8select_t14family_entry_tEESt10_Select1stIS5_ESt4lessItESaIS5_EEC1Ev
          44 .eh_frame$_ZNSt8_Rb_treeItSt4pairIKtN3zmq8select_t14family_entry_tEESt10_Select1stIS5_ESt4lessItESaIS5_EED1Ev
          4C .eh_frame$_ZNSt8_Rb_treeIySt4pairIKyN3zmq13poller_base_t12timer_info_tEESt10_Select1stIS5_ESt4lessIyESaIS5_EE10_M_insert_IS5_NSB_11_Alloc_nodeEEESt17_Rb_tree_iteratorIS5_EPSt18_Rb_tree_node_baseSH_OT_RT0_
          38 .eh_frame$_ZNSt8_Rb_treeIySt4pairIKyN3zmq13poller_base_t12timer_info_tEESt10_Select1stIS5_ESt4lessIyESaIS5_EE11_Alloc_nodeC1ERSB_
          38 .eh_frame$_ZNSt8_Rb_treeIySt4pairIKyN3zmq13poller_base_t12timer_info_tEESt10_Select1stIS5_ESt4lessIyESaIS5_EE11_M_get_nodeEv
          44 .eh_frame$_ZNSt8_Rb_treeIySt4pairIKyN3zmq13poller_base_t12timer_info_tEESt10_Select1stIS5_ESt4lessIyESaIS5_EE11_M_put_nodeEPSt13_Rb_tree_nodeIS5_E
          38 .eh_frame$_ZNSt8_Rb_treeIySt4pairIKyN3zmq13poller_base_t12timer_info_tEESt10_Select1stIS5_ESt4lessIyESaIS5_EE12_M_drop_nodeEPSt13_Rb_tree_nodeIS5_E
          38 .eh_frame$_ZNSt8_Rb_treeIySt4pairIKyN3zmq13poller_base_t12timer_info_tEESt10_Select1stIS5_ESt4lessIyESaIS5_EE12_M_erase_auxESt23_Rb_tree_const_iteratorIS5_E
          3C .eh_frame$_ZNSt8_Rb_treeIySt4pairIKyN3zmq13poller_base_t12timer_info_tEESt10_Select1stIS5_ESt4lessIyESaIS5_EE12_M_erase_auxESt23_Rb_tree_const_iteratorIS5_ESD_
          38 .eh_frame$_ZNSt8_Rb_treeIySt4pairIKyN3zmq13poller_base_t12timer_info_tEESt10_Select1stIS5_ESt4lessIyESaIS5_EE13_Rb_tree_implIS9_Lb1EE13_M_initializeEv
          38 .eh_frame$_ZNSt8_Rb_treeIySt4pairIKyN3zmq13poller_base_t12timer_info_tEESt10_Select1stIS5_ESt4lessIyESaIS5_EE13_Rb_tree_implIS9_Lb1EE8_M_resetEv
          38 .eh_frame$_ZNSt8_Rb_treeIySt4pairIKyN3zmq13poller_base_t12timer_info_tEESt10_Select1stIS5_ESt4lessIyESaIS5_EE13_Rb_tree_implIS9_Lb1EEC1Ev
          38 .eh_frame$_ZNSt8_Rb_treeIySt4pairIKyN3zmq13poller_base_t12timer_info_tEESt10_Select1stIS5_ESt4lessIyESaIS5_EE13_Rb_tree_implIS9_Lb1EED1Ev
          38 .eh_frame$_ZNSt8_Rb_treeIySt4pairIKyN3zmq13poller_base_t12timer_info_tEESt10_Select1stIS5_ESt4lessIyESaIS5_EE14_M_create_nodeIJS5_EEEPSt13_Rb_tree_nodeIS5_EDpOT_
          48 .eh_frame$_ZNSt8_Rb_treeIySt4pairIKyN3zmq13poller_base_t12timer_info_tEESt10_Select1stIS5_ESt4lessIyESaIS5_EE15_M_destroy_nodeEPSt13_Rb_tree_nodeIS5_E
          40 .eh_frame$_ZNSt8_Rb_treeIySt4pairIKyN3zmq13poller_base_t12timer_info_tEESt10_Select1stIS5_ESt4lessIyESaIS5_EE15_M_insert_equalIS5_EESt17_Rb_tree_iteratorIS5_EOT_
          4C .eh_frame$_ZNSt8_Rb_treeIySt4pairIKyN3zmq13poller_base_t12timer_info_tEESt10_Select1stIS5_ESt4lessIyESaIS5_EE17_M_construct_nodeIJS5_EEEvPSt13_Rb_tree_nodeIS5_EDpOT_
          38 .eh_frame$_ZNSt8_Rb_treeIySt4pairIKyN3zmq13poller_base_t12timer_info_tEESt10_Select1stIS5_ESt4lessIyESaIS5_EE21_M_get_Node_allocatorEv
          38 .eh_frame$_ZNSt8_Rb_treeIySt4pairIKyN3zmq13poller_base_t12timer_info_tEESt10_Select1stIS5_ESt4lessIyESaIS5_EE23_M_get_insert_equal_posERS1_
          38 .eh_frame$_ZNSt8_Rb_treeIySt4pairIKyN3zmq13poller_base_t12timer_info_tEESt10_Select1stIS5_ESt4lessIyESaIS5_EE3endEv
          38 .eh_frame$_ZNSt8_Rb_treeIySt4pairIKyN3zmq13poller_base_t12timer_info_tEESt10_Select1stIS5_ESt4lessIyESaIS5_EE5beginEv
          44 .eh_frame$_ZNSt8_Rb_treeIySt4pairIKyN3zmq13poller_base_t12timer_info_tEESt10_Select1stIS5_ESt4lessIyESaIS5_EE5clearEv
          38 .eh_frame$_ZNSt8_Rb_treeIySt4pairIKyN3zmq13poller_base_t12timer_info_tEESt10_Select1stIS5_ESt4lessIyESaIS5_EE5eraseB5cxx11ESt17_Rb_tree_iteratorIS5_E
          38 .eh_frame$_ZNSt8_Rb_treeIySt4pairIKyN3zmq13poller_base_t12timer_info_tEESt10_Select1stIS5_ESt4lessIyESaIS5_EE5eraseB5cxx11ESt23_Rb_tree_const_iteratorIS5_E
          38 .eh_frame$_ZNSt8_Rb_treeIySt4pairIKyN3zmq13poller_base_t12timer_info_tEESt10_Select1stIS5_ESt4lessIyESaIS5_EE5eraseB5cxx11ESt23_Rb_tree_const_iteratorIS5_ESD_
          38 .eh_frame$_ZNSt8_Rb_treeIySt4pairIKyN3zmq13poller_base_t12timer_info_tEESt10_Select1stIS5_ESt4lessIyESaIS5_EE6_M_endEv
          38 .eh_frame$_ZNSt8_Rb_treeIySt4pairIKyN3zmq13poller_base_t12timer_info_tEESt10_Select1stIS5_ESt4lessIyESaIS5_EE6_S_keyEPKSt13_Rb_tree_nodeIS5_E
          38 .eh_frame$_ZNSt8_Rb_treeIySt4pairIKyN3zmq13poller_base_t12timer_info_tEESt10_Select1stIS5_ESt4lessIyESaIS5_EE6_S_keyEPKSt18_Rb_tree_node_base
          38 .eh_frame$_ZNSt8_Rb_treeIySt4pairIKyN3zmq13poller_base_t12timer_info_tEESt10_Select1stIS5_ESt4lessIyESaIS5_EE7_S_leftEPSt18_Rb_tree_node_base
          38 .eh_frame$_ZNSt8_Rb_treeIySt4pairIKyN3zmq13poller_base_t12timer_info_tEESt10_Select1stIS5_ESt4lessIyESaIS5_EE8_M_beginEv
          38 .eh_frame$_ZNSt8_Rb_treeIySt4pairIKyN3zmq13poller_base_t12timer_info_tEESt10_Select1stIS5_ESt4lessIyESaIS5_EE8_M_eraseEPSt13_Rb_tree_nodeIS5_E
          38 .eh_frame$_ZNSt8_Rb_treeIySt4pairIKyN3zmq13poller_base_t12timer_info_tEESt10_Select1stIS5_ESt4lessIyESaIS5_EE8_S_rightEPSt18_Rb_tree_node_base
          38 .eh_frame$_ZNSt8_Rb_treeIySt4pairIKyN3zmq13poller_base_t12timer_info_tEESt10_Select1stIS5_ESt4lessIyESaIS5_EE8_S_valueEPKSt13_Rb_tree_nodeIS5_E
          38 .eh_frame$_ZNSt8_Rb_treeIySt4pairIKyN3zmq13poller_base_t12timer_info_tEESt10_Select1stIS5_ESt4lessIyESaIS5_EE8_S_valueEPKSt18_Rb_tree_node_base
          38 .eh_frame$_ZNSt8_Rb_treeIySt4pairIKyN3zmq13poller_base_t12timer_info_tEESt10_Select1stIS5_ESt4lessIyESaIS5_EEC1Ev
          44 .eh_frame$_ZNSt8_Rb_treeIySt4pairIKyN3zmq13poller_base_t12timer_info_tEESt10_Select1stIS5_ESt4lessIyESaIS5_EED1Ev
          4C .eh_frame$_ZNSt8_Rb_treeIySt4pairIKyN3zmq8timers_t7timer_tEESt10_Select1stIS5_ESt4lessIyESaIS5_EE10_M_insert_IS5_NSB_11_Alloc_nodeEEESt17_Rb_tree_iteratorIS5_EPSt18_Rb_tree_node_baseSH_OT_RT0_
          38 .eh_frame$_ZNSt8_Rb_treeIySt4pairIKyN3zmq8timers_t7timer_tEESt10_Select1stIS5_ESt4lessIyESaIS5_EE11_Alloc_nodeC1ERSB_
          38 .eh_frame$_ZNSt8_Rb_treeIySt4pairIKyN3zmq8timers_t7timer_tEESt10_Select1stIS5_ESt4lessIyESaIS5_EE11_M_get_nodeEv
          44 .eh_frame$_ZNSt8_Rb_treeIySt4pairIKyN3zmq8timers_t7timer_tEESt10_Select1stIS5_ESt4lessIyESaIS5_EE11_M_put_nodeEPSt13_Rb_tree_nodeIS5_E
          38 .eh_frame$_ZNSt8_Rb_treeIySt4pairIKyN3zmq8timers_t7timer_tEESt10_Select1stIS5_ESt4lessIyESaIS5_EE12_M_drop_nodeEPSt13_Rb_tree_nodeIS5_E
          38 .eh_frame$_ZNSt8_Rb_treeIySt4pairIKyN3zmq8timers_t7timer_tEESt10_Select1stIS5_ESt4lessIyESaIS5_EE12_M_erase_auxESt23_Rb_tree_const_iteratorIS5_E
          3C .eh_frame$_ZNSt8_Rb_treeIySt4pairIKyN3zmq8timers_t7timer_tEESt10_Select1stIS5_ESt4lessIyESaIS5_EE12_M_erase_auxESt23_Rb_tree_const_iteratorIS5_ESD_
          38 .eh_frame$_ZNSt8_Rb_treeIySt4pairIKyN3zmq8timers_t7timer_tEESt10_Select1stIS5_ESt4lessIyESaIS5_EE13_Rb_tree_implIS9_Lb1EE13_M_initializeEv
          38 .eh_frame$_ZNSt8_Rb_treeIySt4pairIKyN3zmq8timers_t7timer_tEESt10_Select1stIS5_ESt4lessIyESaIS5_EE13_Rb_tree_implIS9_Lb1EE8_M_resetEv
          38 .eh_frame$_ZNSt8_Rb_treeIySt4pairIKyN3zmq8timers_t7timer_tEESt10_Select1stIS5_ESt4lessIyESaIS5_EE13_Rb_tree_implIS9_Lb1EEC1Ev
          38 .eh_frame$_ZNSt8_Rb_treeIySt4pairIKyN3zmq8timers_t7timer_tEESt10_Select1stIS5_ESt4lessIyESaIS5_EE13_Rb_tree_implIS9_Lb1EED1Ev
          38 .eh_frame$_ZNSt8_Rb_treeIySt4pairIKyN3zmq8timers_t7timer_tEESt10_Select1stIS5_ESt4lessIyESaIS5_EE14_M_create_nodeIJS5_EEEPSt13_Rb_tree_nodeIS5_EDpOT_
          48 .eh_frame$_ZNSt8_Rb_treeIySt4pairIKyN3zmq8timers_t7timer_tEESt10_Select1stIS5_ESt4lessIyESaIS5_EE15_M_destroy_nodeEPSt13_Rb_tree_nodeIS5_E
          40 .eh_frame$_ZNSt8_Rb_treeIySt4pairIKyN3zmq8timers_t7timer_tEESt10_Select1stIS5_ESt4lessIyESaIS5_EE15_M_insert_equalIS5_EESt17_Rb_tree_iteratorIS5_EOT_
          4C .eh_frame$_ZNSt8_Rb_treeIySt4pairIKyN3zmq8timers_t7timer_tEESt10_Select1stIS5_ESt4lessIyESaIS5_EE17_M_construct_nodeIJS5_EEEvPSt13_Rb_tree_nodeIS5_EDpOT_
          38 .eh_frame$_ZNSt8_Rb_treeIySt4pairIKyN3zmq8timers_t7timer_tEESt10_Select1stIS5_ESt4lessIyESaIS5_EE21_M_get_Node_allocatorEv
          38 .eh_frame$_ZNSt8_Rb_treeIySt4pairIKyN3zmq8timers_t7timer_tEESt10_Select1stIS5_ESt4lessIyESaIS5_EE23_M_get_insert_equal_posERS1_
          38 .eh_frame$_ZNSt8_Rb_treeIySt4pairIKyN3zmq8timers_t7timer_tEESt10_Select1stIS5_ESt4lessIyESaIS5_EE3endEv
          38 .eh_frame$_ZNSt8_Rb_treeIySt4pairIKyN3zmq8timers_t7timer_tEESt10_Select1stIS5_ESt4lessIyESaIS5_EE5beginEv
          44 .eh_frame$_ZNSt8_Rb_treeIySt4pairIKyN3zmq8timers_t7timer_tEESt10_Select1stIS5_ESt4lessIyESaIS5_EE5clearEv
          38 .eh_frame$_ZNSt8_Rb_treeIySt4pairIKyN3zmq8timers_t7timer_tEESt10_Select1stIS5_ESt4lessIyESaIS5_EE5eraseB5cxx11ESt17_Rb_tree_iteratorIS5_E
          38 .eh_frame$_ZNSt8_Rb_treeIySt4pairIKyN3zmq8timers_t7timer_tEESt10_Select1stIS5_ESt4lessIyESaIS5_EE5eraseB5cxx11ESt23_Rb_tree_const_iteratorIS5_E
          38 .eh_frame$_ZNSt8_Rb_treeIySt4pairIKyN3zmq8timers_t7timer_tEESt10_Select1stIS5_ESt4lessIyESaIS5_EE5eraseB5cxx11ESt23_Rb_tree_const_iteratorIS5_ESD_
          38 .eh_frame$_ZNSt8_Rb_treeIySt4pairIKyN3zmq8timers_t7timer_tEESt10_Select1stIS5_ESt4lessIyESaIS5_EE6_M_endEv
          38 .eh_frame$_ZNSt8_Rb_treeIySt4pairIKyN3zmq8timers_t7timer_tEESt10_Select1stIS5_ESt4lessIyESaIS5_EE6_S_keyEPKSt13_Rb_tree_nodeIS5_E
          38 .eh_frame$_ZNSt8_Rb_treeIySt4pairIKyN3zmq8timers_t7timer_tEESt10_Select1stIS5_ESt4lessIyESaIS5_EE6_S_keyEPKSt18_Rb_tree_node_base
          38 .eh_frame$_ZNSt8_Rb_treeIySt4pairIKyN3zmq8timers_t7timer_tEESt10_Select1stIS5_ESt4lessIyESaIS5_EE7_S_leftEPSt18_Rb_tree_node_base
          38 .eh_frame$_ZNSt8_Rb_treeIySt4pairIKyN3zmq8timers_t7timer_tEESt10_Select1stIS5_ESt4lessIyESaIS5_EE8_M_beginEv
          38 .eh_frame$_ZNSt8_Rb_treeIySt4pairIKyN3zmq8timers_t7timer_tEESt10_Select1stIS5_ESt4lessIyESaIS5_EE8_M_eraseEPSt13_Rb_tree_nodeIS5_E
          38 .eh_frame$_ZNSt8_Rb_treeIySt4pairIKyN3zmq8timers_t7timer_tEESt10_Select1stIS5_ESt4lessIyESaIS5_EE8_S_rightEPSt18_Rb_tree_node_base
          38 .eh_frame$_ZNSt8_Rb_treeIySt4pairIKyN3zmq8timers_t7timer_tEESt10_Select1stIS5_ESt4lessIyESaIS5_EE8_S_valueEPKSt13_Rb_tree_nodeIS5_E
          38 .eh_frame$_ZNSt8_Rb_treeIySt4pairIKyN3zmq8timers_t7timer_tEESt10_Select1stIS5_ESt4lessIyESaIS5_EE8_S_valueEPKSt18_Rb_tree_node_base
          38 .eh_frame$_ZNSt8_Rb_treeIySt4pairIKyN3zmq8timers_t7timer_tEESt10_Select1stIS5_ESt4lessIyESaIS5_EEC1Ev
          44 .eh_frame$_ZNSt8_Rb_treeIySt4pairIKyN3zmq8timers_t7timer_tEESt10_Select1stIS5_ESt4lessIyESaIS5_EED1Ev
          38 .eh_frame$_ZNSt8multimapINSt7__cxx1112basic_stringIcSt11char_traitsIcESaIcEEEN3zmq5ctx_t20pending_connection_tESt4lessIS5_ESaISt4pairIKS5_S8_EEE11equal_rangeERSC_
          38 .eh_frame$_ZNSt8multimapINSt7__cxx1112basic_stringIcSt11char_traitsIcESaIcEEEN3zmq5ctx_t20pending_connection_tESt4lessIS5_ESaISt4pairIKS5_S8_EEE3endEv
          38 .eh_frame$_ZNSt8multimapINSt7__cxx1112basic_stringIcSt11char_traitsIcESaIcEEEN3zmq5ctx_t20pending_connection_tESt4lessIS5_ESaISt4pairIKS5_S8_EEE5beginEv
          38 .eh_frame$_ZNSt8multimapINSt7__cxx1112basic_stringIcSt11char_traitsIcESaIcEEEN3zmq5ctx_t20pending_connection_tESt4lessIS5_ESaISt4pairIKS5_S8_EEE5eraseESt23_Rb_tree_const_iteratorISD_ESH_
          3C .eh_frame$_ZNSt8multimapINSt7__cxx1112basic_stringIcSt11char_traitsIcESaIcEEEN3zmq5ctx_t20pending_connection_tESt4lessIS5_ESaISt4pairIKS5_S8_EEE7emplaceIJRSC_RKS8_EEESt17_Rb_tree_iteratorISD_EDpOT_
          38 .eh_frame$_ZNSt8multimapINSt7__cxx1112basic_stringIcSt11char_traitsIcESaIcEEEN3zmq5ctx_t20pending_connection_tESt4lessIS5_ESaISt4pairIKS5_S8_EEEC1ERKSF_
          44 .eh_frame$_ZNSt8multimapINSt7__cxx1112basic_stringIcSt11char_traitsIcESaIcEEEN3zmq5ctx_t20pending_connection_tESt4lessIS5_ESaISt4pairIKS5_S8_EEEC1Ev
          38 .eh_frame$_ZNSt8multimapINSt7__cxx1112basic_stringIcSt11char_traitsIcESaIcEEEN3zmq5ctx_t20pending_connection_tESt4lessIS5_ESaISt4pairIKS5_S8_EEED1Ev
          70 .eh_frame$_ZNSt8multimapINSt7__cxx1112basic_stringIcSt11char_traitsIcESaIcEEEPN3zmq6pipe_tESt4lessIS5_ESaISt4pairIKS5_S8_EEE11equal_rangeERSC_
          70 .eh_frame$_ZNSt8multimapINSt7__cxx1112basic_stringIcSt11char_traitsIcESaIcEEEPN3zmq6pipe_tESt4lessIS5_ESaISt4pairIKS5_S8_EEE3endEv
          70 .eh_frame$_ZNSt8multimapINSt7__cxx1112basic_stringIcSt11char_traitsIcESaIcEEEPN3zmq6pipe_tESt4lessIS5_ESaISt4pairIKS5_S8_EEE5beginEv
          70 .eh_frame$_ZNSt8multimapINSt7__cxx1112basic_stringIcSt11char_traitsIcESaIcEEEPN3zmq6pipe_tESt4lessIS5_ESaISt4pairIKS5_S8_EEE5eraseB5cxx11ESt17_Rb_tree_iteratorISD_E
          38 .eh_frame$_ZNSt8multimapINSt7__cxx1112basic_stringIcSt11char_traitsIcESaIcEEEPN3zmq6pipe_tESt4lessIS5_ESaISt4pairIKS5_S8_EEE5eraseESt23_Rb_tree_const_iteratorISD_ESH_
          78 .eh_frame$_ZNSt8multimapINSt7__cxx1112basic_stringIcSt11char_traitsIcESaIcEEEPN3zmq6pipe_tESt4lessIS5_ESaISt4pairIKS5_S8_EEE7emplaceIJS5_RS8_EEESt17_Rb_tree_iteratorISD_EDpOT_
          88 .eh_frame$_ZNSt8multimapINSt7__cxx1112basic_stringIcSt11char_traitsIcESaIcEEEPN3zmq6pipe_tESt4lessIS5_ESaISt4pairIKS5_S8_EEEC1Ev
          70 .eh_frame$_ZNSt8multimapINSt7__cxx1112basic_stringIcSt11char_traitsIcESaIcEEEPN3zmq6pipe_tESt4lessIS5_ESaISt4pairIKS5_S8_EEED1Ev
          38 .eh_frame$_ZNSt8multimapINSt7__cxx1112basic_stringIcSt11char_traitsIcESaIcEEESt4pairIPN3zmq5own_tEPNS7_6pipe_tEESt4lessIS5_ESaIS6_IKS5_SC_EEE11equal_rangeERSF_
          38 .eh_frame$_ZNSt8multimapINSt7__cxx1112basic_stringIcSt11char_traitsIcESaIcEEESt4pairIPN3zmq5own_tEPNS7_6pipe_tEESt4lessIS5_ESaIS6_IKS5_SC_EEE3endEv
          38 .eh_frame$_ZNSt8multimapINSt7__cxx1112basic_stringIcSt11char_traitsIcESaIcEEESt4pairIPN3zmq5own_tEPNS7_6pipe_tEESt4lessIS5_ESaIS6_IKS5_SC_EEE4findERSF_
          38 .eh_frame$_ZNSt8multimapINSt7__cxx1112basic_stringIcSt11char_traitsIcESaIcEEESt4pairIPN3zmq5own_tEPNS7_6pipe_tEESt4lessIS5_ESaIS6_IKS5_SC_EEE5eraseESt23_Rb_tree_const_iteratorISG_ESK_
          3C .eh_frame$_ZNSt8multimapINSt7__cxx1112basic_stringIcSt11char_traitsIcESaIcEEESt4pairIPN3zmq5own_tEPNS7_6pipe_tEESt4lessIS5_ESaIS6_IKS5_SC_EEE7emplaceIJRSF_SC_EEESt17_Rb_tree_iteratorISG_EDpOT_
          44 .eh_frame$_ZNSt8multimapINSt7__cxx1112basic_stringIcSt11char_traitsIcESaIcEEESt4pairIPN3zmq5own_tEPNS7_6pipe_tEESt4lessIS5_ESaIS6_IKS5_SC_EEEC1Ev
          38 .eh_frame$_ZNSt8multimapINSt7__cxx1112basic_stringIcSt11char_traitsIcESaIcEEESt4pairIPN3zmq5own_tEPNS7_6pipe_tEESt4lessIS5_ESaIS6_IKS5_SC_EEED1Ev
          38 .eh_frame$_ZNSt8multimapIyN3zmq13poller_base_t12timer_info_tESt4lessIyESaISt4pairIKyS2_EEE3endEv
          38 .eh_frame$_ZNSt8multimapIyN3zmq13poller_base_t12timer_info_tESt4lessIyESaISt4pairIKyS2_EEE5beginEv
          38 .eh_frame$_ZNSt8multimapIyN3zmq13poller_base_t12timer_info_tESt4lessIyESaISt4pairIKyS2_EEE5eraseB5cxx11ESt17_Rb_tree_iteratorIS7_E
          38 .eh_frame$_ZNSt8multimapIyN3zmq13poller_base_t12timer_info_tESt4lessIyESaISt4pairIKyS2_EEE5eraseESt23_Rb_tree_const_iteratorIS7_ESB_
          38 .eh_frame$_ZNSt8multimapIyN3zmq13poller_base_t12timer_info_tESt4lessIyESaISt4pairIKyS2_EEE6insertIS7_vEESt17_Rb_tree_iteratorIS7_EOT_
          44 .eh_frame$_ZNSt8multimapIyN3zmq13poller_base_t12timer_info_tESt4lessIyESaISt4pairIKyS2_EEEC1Ev
          38 .eh_frame$_ZNSt8multimapIyN3zmq13poller_base_t12timer_info_tESt4lessIyESaISt4pairIKyS2_EEED1Ev
          38 .eh_frame$_ZNSt8multimapIyN3zmq8timers_t7timer_tESt4lessIyESaISt4pairIKyS2_EEE3endEv
          38 .eh_frame$_ZNSt8multimapIyN3zmq8timers_t7timer_tESt4lessIyESaISt4pairIKyS2_EEE5beginEv
          38 .eh_frame$_ZNSt8multimapIyN3zmq8timers_t7timer_tESt4lessIyESaISt4pairIKyS2_EEE5eraseB5cxx11ESt17_Rb_tree_iteratorIS7_E
          38 .eh_frame$_ZNSt8multimapIyN3zmq8timers_t7timer_tESt4lessIyESaISt4pairIKyS2_EEE5eraseESt23_Rb_tree_const_iteratorIS7_ESB_
          38 .eh_frame$_ZNSt8multimapIyN3zmq8timers_t7timer_tESt4lessIyESaISt4pairIKyS2_EEE6insertIS7_vEESt17_Rb_tree_iteratorIS7_EOT_
          44 .eh_frame$_ZNSt8multimapIyN3zmq8timers_t7timer_tESt4lessIyESaISt4pairIKyS2_EEEC1Ev
          38 .eh_frame$_ZNSt8multimapIyN3zmq8timers_t7timer_tESt4lessIyESaISt4pairIKyS2_EEED1Ev
         168 .eh_frame$_ZSt10_ConstructIN3zmq18tcp_address_mask_tEJRKS1_EEvPT_DpOT0_
          3C .eh_frame$_ZSt10_ConstructIN3zmq18tcp_address_mask_tEJS1_EEvPT_DpOT0_
          38 .eh_frame$_ZSt10__distanceISt23_Rb_tree_const_iteratorISt4pairIKNSt7__cxx1112basic_stringIcSt11char_traitsIcESaIcEEES1_IPN3zmq5own_tEPNS9_6pipe_tEEEEENSt15iterator_traitsIT_E15difference_typeESI_SI_St18input_iterator_tag
          38 .eh_frame$_ZSt10__fill_n_aIPPN3zmq9i_mailboxEjS2_EN9__gnu_cxx11__enable_ifIXsrSt11__is_scalarIT1_E7__valueET_E6__typeES9_T0_RKS7_
          38 .eh_frame$_ZSt10__fill_n_aIPjjjEN9__gnu_cxx11__enable_ifIXsrSt11__is_scalarIT1_E7__valueET_E6__typeES6_T0_RKS4_
          A8 .eh_frame$_ZSt10__fill_n_aIjhEN9__gnu_cxx11__enable_ifIXsrSt9__is_byteIT0_E7__valueEPS3_E6__typeES5_T_RKS3_
         188 .eh_frame$_ZSt11__addressofIN3zmq18tcp_address_mask_tEEPT_RS2_
          38 .eh_frame$_ZSt11__addressofIN3zmq6blob_tEEPT_RS2_
          38 .eh_frame$_ZSt11__addressofISt5mutexEPT_RS1_
          3C .eh_frame$_ZSt11__remove_ifIN9__gnu_cxx17__normal_iteratorIPN3zmq8select_t10fd_entry_tESt6vectorIS4_SaIS4_EEEENS0_5__ops10_Iter_predIPFbRKS4_EEEET_SH_SH_T0_
          48 .eh_frame$_ZSt11make_sharedISt5mutexJEESt10shared_ptrIT_EDpOT0_
          38 .eh_frame$_ZSt12__get_helperILj0EONSt7__cxx1112basic_stringIcSt11char_traitsIcESaIcEEEJEERT0_RSt11_Tuple_implIXT_EJS7_DpT1_EE
          38 .eh_frame$_ZSt12__get_helperILj0ERKtJEERT0_RSt11_Tuple_implIXT_EJS2_DpT1_EE
          38 .eh_frame$_ZSt12__miter_baseIN9__gnu_cxx17__normal_iteratorIPN3zmq15socket_poller_t6item_tESt6vectorIS4_SaIS4_EEEEENSt11_Miter_baseIT_E13iterator_typeESB_
          38 .eh_frame$_ZSt12__miter_baseIN9__gnu_cxx17__normal_iteratorIPN3zmq8select_t10fd_entry_tESt6vectorIS4_SaIS4_EEEEENSt11_Miter_baseIT_E13iterator_typeESB_
          38 .eh_frame$_ZSt12__miter_baseIN9__gnu_cxx17__normal_iteratorIPPN3zmq10signaler_tESt6vectorIS4_SaIS4_EEEEENSt11_Miter_baseIT_E13iterator_typeESB_
          38 .eh_frame$_ZSt12__miter_baseIN9__gnu_cxx17__normal_iteratorIPPN3zmq6pipe_tESt6vectorIS4_SaIS4_EEEEENSt11_Miter_baseIT_E13iterator_typeESB_
          38 .eh_frame$_ZSt12__miter_baseIPPN3zmq6blob_tEENSt11_Miter_baseIT_E13iterator_typeES5_
          38 .eh_frame$_ZSt12__miter_baseIPPN3zmq9i_mailboxEENSt11_Miter_baseIT_E13iterator_typeES5_
          38 .eh_frame$_ZSt12__miter_baseIPPPN3zmq10metadata_tEENSt11_Miter_baseIT_E13iterator_typeES6_
          38 .eh_frame$_ZSt12__miter_baseIPPPN3zmq6pipe_tEENSt11_Miter_baseIT_E13iterator_typeES6_
          38 .eh_frame$_ZSt12__miter_baseIPPhENSt11_Miter_baseIT_E13iterator_typeES3_
          38 .eh_frame$_ZSt12__miter_baseISt13move_iteratorIPN3zmq15socket_poller_t6item_tEEENSt11_Miter_baseIT_E13iterator_typeES7_
          38 .eh_frame$_ZSt12__miter_baseISt13move_iteratorIPN3zmq8select_t10fd_entry_tEEENSt11_Miter_baseIT_E13iterator_typeES7_
          38 .eh_frame$_ZSt12__miter_baseISt13move_iteratorIPPN3zmq10signaler_tEEENSt11_Miter_baseIT_E13iterator_typeES7_
          38 .eh_frame$_ZSt12__miter_baseISt13move_iteratorIPPN3zmq11io_thread_tEEENSt11_Miter_baseIT_E13iterator_typeES7_
          38 .eh_frame$_ZSt12__miter_baseISt13move_iteratorIPPN3zmq13socket_base_tEEENSt11_Miter_baseIT_E13iterator_typeES7_
         118 .eh_frame$_ZSt12__miter_baseISt13move_iteratorIPPN3zmq6pipe_tEEENSt11_Miter_baseIT_E13iterator_typeES7_
          38 .eh_frame$_ZSt12__miter_baseISt13move_iteratorIPPN3zmq9i_mailboxEEENSt11_Miter_baseIT_E13iterator_typeES7_
          38 .eh_frame$_ZSt12__miter_baseISt13move_iteratorIPhEENSt11_Miter_baseIT_E13iterator_typeES4_
          70 .eh_frame$_ZSt12__miter_baseISt13move_iteratorIPjEENSt11_Miter_baseIT_E13iterator_typeES4_
          38 .eh_frame$_ZSt12__niter_baseIN9__gnu_cxx17__normal_iteratorIPN3zmq15socket_poller_t6item_tESt6vectorIS4_SaIS4_EEEEENSt11_Niter_baseIT_E13iterator_typeESB_
          38 .eh_frame$_ZSt12__niter_baseIN9__gnu_cxx17__normal_iteratorIPN3zmq8select_t10fd_entry_tESt6vectorIS4_SaIS4_EEEEENSt11_Niter_baseIT_E13iterator_typeESB_
          38 .eh_frame$_ZSt12__niter_baseIN9__gnu_cxx17__normal_iteratorIPPN3zmq10signaler_tESt6vectorIS4_SaIS4_EEEEENSt11_Niter_baseIT_E13iterator_typeESB_
          38 .eh_frame$_ZSt12__niter_baseIN9__gnu_cxx17__normal_iteratorIPPN3zmq6pipe_tESt6vectorIS4_SaIS4_EEEEENSt11_Niter_baseIT_E13iterator_typeESB_
          70 .eh_frame$_ZSt12__niter_baseIN9__gnu_cxx17__normal_iteratorIPhSt6vectorIhN3zmq18secure_allocator_tIhEEEEEENSt11_Niter_baseIT_E13iterator_typeESA_
          A8 .eh_frame$_ZSt12__niter_baseIN9__gnu_cxx17__normal_iteratorIPhSt6vectorIhSaIhEEEEENSt11_Niter_baseIT_E13iterator_typeES8_
          38 .eh_frame$_ZSt12__niter_baseIPN3zmq15socket_poller_t6item_tEENSt11_Niter_baseIT_E13iterator_typeES5_
          38 .eh_frame$_ZSt12__niter_baseIPN3zmq8select_t10fd_entry_tEENSt11_Niter_baseIT_E13iterator_typeES5_
          38 .eh_frame$_ZSt12__niter_baseIPPN3zmq10signaler_tEENSt11_Niter_baseIT_E13iterator_typeES5_
          38 .eh_frame$_ZSt12__niter_baseIPPN3zmq11io_thread_tEENSt11_Niter_baseIT_E13iterator_typeES5_
          38 .eh_frame$_ZSt12__niter_baseIPPN3zmq13socket_base_tEENSt11_Niter_baseIT_E13iterator_typeES5_
          38 .eh_frame$_ZSt12__niter_baseIPPN3zmq6blob_tEENSt11_Niter_baseIT_E13iterator_typeES5_
         118 .eh_frame$_ZSt12__niter_baseIPPN3zmq6pipe_tEENSt11_Niter_baseIT_E13iterator_typeES5_
          38 .eh_frame$_ZSt12__niter_baseIPPN3zmq9i_mailboxEENSt11_Niter_baseIT_E13iterator_typeES5_
          38 .eh_frame$_ZSt12__niter_baseIPPPN3zmq10metadata_tEENSt11_Niter_baseIT_E13iterator_typeES6_
          38 .eh_frame$_ZSt12__niter_baseIPPPN3zmq6pipe_tEENSt11_Niter_baseIT_E13iterator_typeES6_
          38 .eh_frame$_ZSt12__niter_baseIPPhENSt11_Niter_baseIT_E13iterator_typeES3_
          E0 .eh_frame$_ZSt12__niter_baseIPhENSt11_Niter_baseIT_E13iterator_typeES2_
          70 .eh_frame$_ZSt12__niter_baseIPjENSt11_Niter_baseIT_E13iterator_typeES2_
          38 .eh_frame$_ZSt13__copy_move_aILb0EPPN3zmq6blob_tES3_ET1_T0_S5_S4_
          38 .eh_frame$_ZSt13__copy_move_aILb0EPPPN3zmq10metadata_tES4_ET1_T0_S6_S5_
          38 .eh_frame$_ZSt13__copy_move_aILb0EPPPN3zmq6pipe_tES4_ET1_T0_S6_S5_
          38 .eh_frame$_ZSt13__copy_move_aILb0EPPhS1_ET1_T0_S3_S2_
          38 .eh_frame$_ZSt13__copy_move_aILb1EPN3zmq15socket_poller_t6item_tES3_ET1_T0_S5_S4_
          38 .eh_frame$_ZSt13__copy_move_aILb1EPN3zmq8select_t10fd_entry_tES3_ET1_T0_S5_S4_
          38 .eh_frame$_ZSt13__copy_move_aILb1EPPN3zmq10signaler_tES3_ET1_T0_S5_S4_
          38 .eh_frame$_ZSt13__copy_move_aILb1EPPN3zmq11io_thread_tES3_ET1_T0_S5_S4_
          38 .eh_frame$_ZSt13__copy_move_aILb1EPPN3zmq13socket_base_tES3_ET1_T0_S5_S4_
         118 .eh_frame$_ZSt13__copy_move_aILb1EPPN3zmq6pipe_tES3_ET1_T0_S5_S4_
          38 .eh_frame$_ZSt13__copy_move_aILb1EPPN3zmq9i_mailboxES3_ET1_T0_S5_S4_
          38 .eh_frame$_ZSt13__copy_move_aILb1EPhS0_ET1_T0_S2_S1_
          70 .eh_frame$_ZSt13__copy_move_aILb1EPjS0_ET1_T0_S2_S1_
          3C .eh_frame$_ZSt13copy_backwardIPPN3zmq6blob_tES3_ET0_T_S5_S4_
          3C .eh_frame$_ZSt13copy_backwardIPPPN3zmq10metadata_tES4_ET0_T_S6_S5_
          3C .eh_frame$_ZSt13copy_backwardIPPPN3zmq6pipe_tES4_ET0_T_S6_S5_
          3C .eh_frame$_ZSt13copy_backwardIPPhS1_ET0_T_S3_S2_
          3C .eh_frame$_ZSt13move_backwardIPPN3zmq9i_mailboxES3_ET0_T_S5_S4_
          40 .eh_frame$_ZSt14__copy_move_a2ILb0EPPN3zmq6blob_tES3_ET1_T0_S5_S4_
          40 .eh_frame$_ZSt14__copy_move_a2ILb0EPPPN3zmq10metadata_tES4_ET1_T0_S6_S5_
          40 .eh_frame$_ZSt14__copy_move_a2ILb0EPPPN3zmq6pipe_tES4_ET1_T0_S6_S5_
          40 .eh_frame$_ZSt14__copy_move_a2ILb0EPPhS1_ET1_T0_S3_S2_
          40 .eh_frame$_ZSt14__copy_move_a2ILb1EN9__gnu_cxx17__normal_iteratorIPN3zmq15socket_poller_t6item_tESt6vectorIS4_SaIS4_EEEES9_ET1_T0_SB_SA_
          40 .eh_frame$_ZSt14__copy_move_a2ILb1EN9__gnu_cxx17__normal_iteratorIPN3zmq8select_t10fd_entry_tESt6vectorIS4_SaIS4_EEEES9_ET1_T0_SB_SA_
          40 .eh_frame$_ZSt14__copy_move_a2ILb1EN9__gnu_cxx17__normal_iteratorIPPN3zmq10signaler_tESt6vectorIS4_SaIS4_EEEES9_ET1_T0_SB_SA_
          40 .eh_frame$_ZSt14__copy_move_a2ILb1EN9__gnu_cxx17__normal_iteratorIPPN3zmq6pipe_tESt6vectorIS4_SaIS4_EEEES9_ET1_T0_SB_SA_
          40 .eh_frame$_ZSt14__copy_move_a2ILb1EPN3zmq15socket_poller_t6item_tES3_ET1_T0_S5_S4_
          40 .eh_frame$_ZSt14__copy_move_a2ILb1EPN3zmq8select_t10fd_entry_tES3_ET1_T0_S5_S4_
          40 .eh_frame$_ZSt14__copy_move_a2ILb1EPPN3zmq10signaler_tES3_ET1_T0_S5_S4_
          40 .eh_frame$_ZSt14__copy_move_a2ILb1EPPN3zmq11io_thread_tES3_ET1_T0_S5_S4_
          40 .eh_frame$_ZSt14__copy_move_a2ILb1EPPN3zmq13socket_base_tES3_ET1_T0_S5_S4_
         140 .eh_frame$_ZSt14__copy_move_a2ILb1EPPN3zmq6pipe_tES3_ET1_T0_S5_S4_
          40 .eh_frame$_ZSt14__copy_move_a2ILb1EPPN3zmq9i_mailboxES3_ET1_T0_S5_S4_
          40 .eh_frame$_ZSt14__copy_move_a2ILb1EPhS0_ET1_T0_S2_S1_
          80 .eh_frame$_ZSt14__copy_move_a2ILb1EPjS0_ET1_T0_S2_S1_
          38 .eh_frame$_ZSt15allocate_sharedISt5mutexSaIS0_EJEESt10shared_ptrIT_ERKT0_DpOT1_
          38 .eh_frame$_ZSt16__deque_buf_sizej
          38 .eh_frame$_ZSt16forward_as_tupleIJNSt7__cxx1112basic_stringIcSt11char_traitsIcESaIcEEEEESt5tupleIJDpOT_EES9_
          38 .eh_frame$_ZSt18__allocate_guardedISaISt23_Sp_counted_ptr_inplaceISt5mutexSaIS1_ELN9__gnu_cxx12_Lock_policyE2EEEESt15__allocated_ptrIT_ERS8_
          38 .eh_frame$_ZSt18make_move_iteratorIPPN3zmq9i_mailboxEESt13move_iteratorIT_ES5_
         150 .eh_frame$_ZSt18uninitialized_copyIN9__gnu_cxx17__normal_iteratorIPKN3zmq18tcp_address_mask_tESt6vectorIS3_SaIS3_EEEEPS3_ET0_T_SC_SB_
          38 .eh_frame$_ZSt18uninitialized_copyISt13move_iteratorIPN3zmq15socket_poller_t6item_tEES4_ET0_T_S7_S6_
          38 .eh_frame$_ZSt18uninitialized_copyISt13move_iteratorIPN3zmq18tcp_address_mask_tEES3_ET0_T_S6_S5_
          38 .eh_frame$_ZSt18uninitialized_copyISt13move_iteratorIPN3zmq8select_t10fd_entry_tEES4_ET0_T_S7_S6_
          38 .eh_frame$_ZSt18uninitialized_copyISt13move_iteratorIPPN3zmq10signaler_tEES4_ET0_T_S7_S6_
          38 .eh_frame$_ZSt18uninitialized_copyISt13move_iteratorIPPN3zmq11io_thread_tEES4_ET0_T_S7_S6_
          38 .eh_frame$_ZSt18uninitialized_copyISt13move_iteratorIPPN3zmq13socket_base_tEES4_ET0_T_S7_S6_
         118 .eh_frame$_ZSt18uninitialized_copyISt13move_iteratorIPPN3zmq6pipe_tEES4_ET0_T_S7_S6_
          38 .eh_frame$_ZSt18uninitialized_copyISt13move_iteratorIPPN3zmq9i_mailboxEES4_ET0_T_S7_S6_
          38 .eh_frame$_ZSt18uninitialized_copyISt13move_iteratorIPhES1_ET0_T_S4_S3_
          70 .eh_frame$_ZSt18uninitialized_copyISt13move_iteratorIPjES1_ET0_T_S4_S3_
          38 .eh_frame$_ZSt19__iterator_categoryIN9__gnu_cxx17__normal_iteratorIPN3zmq8select_t10fd_entry_tESt6vectorIS4_SaIS4_EEEEENSt15iterator_traitsIT_E17iterator_categoryERKSB_
          38 .eh_frame$_ZSt19__iterator_categoryIN9__gnu_cxx17__normal_iteratorIPPN3zmq10signaler_tESt6vectorIS4_SaIS4_EEEEENSt15iterator_traitsIT_E17iterator_categoryERKSB_
          38 .eh_frame$_ZSt19__iterator_categoryIN9__gnu_cxx17__normal_iteratorIPPN3zmq6pipe_tESt6vectorIS4_SaIS4_EEEEENSt15iterator_traitsIT_E17iterator_categoryERKSB_
          38 .eh_frame$_ZSt19__iterator_categoryISt17_Rb_tree_iteratorISt4pairIKyN3zmq8timers_t7timer_tEEEENSt15iterator_traitsIT_E17iterator_categoryERKS9_
          38 .eh_frame$_ZSt19__iterator_categoryISt23_Rb_tree_const_iteratorISt4pairIKNSt7__cxx1112basic_stringIcSt11char_traitsIcESaIcEEES1_IPN3zmq5own_tEPNS9_6pipe_tEEEEENSt15iterator_traitsIT_E17iterator_categoryERKSI_
          38 .eh_frame$_ZSt20uninitialized_fill_nIPPN3zmq9i_mailboxEjS2_ET_S4_T0_RKT1_
          38 .eh_frame$_ZSt20uninitialized_fill_nIPhjhET_S1_T0_RKT1_
          38 .eh_frame$_ZSt22__copy_move_backward_aILb0EPPN3zmq6blob_tES3_ET1_T0_S5_S4_
          38 .eh_frame$_ZSt22__copy_move_backward_aILb0EPPPN3zmq10metadata_tES4_ET1_T0_S6_S5_
          38 .eh_frame$_ZSt22__copy_move_backward_aILb0EPPPN3zmq6pipe_tES4_ET1_T0_S6_S5_
          38 .eh_frame$_ZSt22__copy_move_backward_aILb0EPPhS1_ET1_T0_S3_S2_
          38 .eh_frame$_ZSt22__copy_move_backward_aILb1EPPN3zmq9i_mailboxES3_ET1_T0_S5_S4_
         150 .eh_frame$_ZSt22__uninitialized_copy_aIN9__gnu_cxx17__normal_iteratorIPKN3zmq18tcp_address_mask_tESt6vectorIS3_SaIS3_EEEEPS3_S3_ET0_T_SC_SB_RSaIT1_E
          38 .eh_frame$_ZSt22__uninitialized_copy_aISt13move_iteratorIPN3zmq15socket_poller_t6item_tEES4_S3_ET0_T_S7_S6_RSaIT1_E
          38 .eh_frame$_ZSt22__uninitialized_copy_aISt13move_iteratorIPN3zmq18tcp_address_mask_tEES3_S2_ET0_T_S6_S5_RSaIT1_E
          38 .eh_frame$_ZSt22__uninitialized_copy_aISt13move_iteratorIPN3zmq8select_t10fd_entry_tEES4_S3_ET0_T_S7_S6_RSaIT1_E
          38 .eh_frame$_ZSt22__uninitialized_copy_aISt13move_iteratorIPPN3zmq10signaler_tEES4_S3_ET0_T_S7_S6_RSaIT1_E
          38 .eh_frame$_ZSt22__uninitialized_copy_aISt13move_iteratorIPPN3zmq11io_thread_tEES4_S3_ET0_T_S7_S6_RSaIT1_E
          38 .eh_frame$_ZSt22__uninitialized_copy_aISt13move_iteratorIPPN3zmq13socket_base_tEES4_S3_ET0_T_S7_S6_RSaIT1_E
         118 .eh_frame$_ZSt22__uninitialized_copy_aISt13move_iteratorIPPN3zmq6pipe_tEES4_S3_ET0_T_S7_S6_RSaIT1_E
          38 .eh_frame$_ZSt22__uninitialized_copy_aISt13move_iteratorIPPN3zmq9i_mailboxEES4_S3_ET0_T_S7_S6_RSaIT1_E
          38 .eh_frame$_ZSt22__uninitialized_copy_aISt13move_iteratorIPhES1_hET0_T_S4_S3_RSaIT1_E
          70 .eh_frame$_ZSt22__uninitialized_copy_aISt13move_iteratorIPjES1_jET0_T_S4_S3_RSaIT1_E
          3C .eh_frame$_ZSt22__uninitialized_move_aIPPN3zmq9i_mailboxES3_SaIS2_EET0_T_S6_S5_RT1_
          B4 .eh_frame$_ZSt23__cmpexch_failure_orderSt12memory_order
          40 .eh_frame$_ZSt23__copy_move_backward_a2ILb0EPPN3zmq6blob_tES3_ET1_T0_S5_S4_
          40 .eh_frame$_ZSt23__copy_move_backward_a2ILb0EPPPN3zmq10metadata_tES4_ET1_T0_S6_S5_
          40 .eh_frame$_ZSt23__copy_move_backward_a2ILb0EPPPN3zmq6pipe_tES4_ET1_T0_S6_S5_
          40 .eh_frame$_ZSt23__copy_move_backward_a2ILb0EPPhS1_ET1_T0_S3_S2_
          40 .eh_frame$_ZSt23__copy_move_backward_a2ILb1EPPN3zmq9i_mailboxES3_ET1_T0_S5_S4_
          A8 .eh_frame$_ZSt24__cmpexch_failure_order2St12memory_order
          38 .eh_frame$_ZSt24__uninitialized_fill_n_aIPPN3zmq9i_mailboxEjS2_S2_ET_S4_T0_RKT1_RSaIT2_E
          38 .eh_frame$_ZSt24__uninitialized_fill_n_aIPhjhhET_S1_T0_RKT1_RSaIT2_E
          38 .eh_frame$_ZSt25__uninitialized_default_nIPPN3zmq9i_mailboxEjET_S4_T0_
          A8 .eh_frame$_ZSt25__uninitialized_default_nIPhjET_S1_T0_
          38 .eh_frame$_ZSt25__uninitialized_default_nIPjjET_S1_T0_
          38 .eh_frame$_ZSt27__uninitialized_default_n_aIPPN3zmq9i_mailboxEjS2_ET_S4_T0_RSaIT1_E
          A8 .eh_frame$_ZSt27__uninitialized_default_n_aIPhjhET_S1_T0_RSaIT1_E
          38 .eh_frame$_ZSt27__uninitialized_default_n_aIPjjjET_S1_T0_RSaIT1_E
          38 .eh_frame$_ZSt32__enable_shared_from_this_helperILN9__gnu_cxx12_Lock_policyE2EEvRKSt14__shared_countIXT_EEz
          38 .eh_frame$_ZSt32__make_move_if_noexcept_iteratorIPN3zmq15socket_poller_t6item_tESt13move_iteratorIS3_EET0_T_
          38 .eh_frame$_ZSt32__make_move_if_noexcept_iteratorIPN3zmq18tcp_address_mask_tESt13move_iteratorIS2_EET0_T_
          38 .eh_frame$_ZSt32__make_move_if_noexcept_iteratorIPN3zmq8select_t10fd_entry_tESt13move_iteratorIS3_EET0_T_
          38 .eh_frame$_ZSt32__make_move_if_noexcept_iteratorIPPN3zmq10signaler_tESt13move_iteratorIS3_EET0_T_
          38 .eh_frame$_ZSt32__make_move_if_noexcept_iteratorIPPN3zmq11io_thread_tESt13move_iteratorIS3_EET0_T_
          38 .eh_frame$_ZSt32__make_move_if_noexcept_iteratorIPPN3zmq13socket_base_tESt13move_iteratorIS3_EET0_T_
         118 .eh_frame$_ZSt32__make_move_if_noexcept_iteratorIPPN3zmq6pipe_tESt13move_iteratorIS3_EET0_T_
          38 .eh_frame$_ZSt32__make_move_if_noexcept_iteratorIPPN3zmq9i_mailboxESt13move_iteratorIS3_EET0_T_
          38 .eh_frame$_ZSt32__make_move_if_noexcept_iteratorIPhSt13move_iteratorIS0_EET0_T_
          70 .eh_frame$_ZSt32__make_move_if_noexcept_iteratorIPjSt13move_iteratorIS0_EET0_T_
          3C .eh_frame$_ZSt34__uninitialized_move_if_noexcept_aIPN3zmq15socket_poller_t6item_tES3_SaIS2_EET0_T_S6_S5_RT1_
          3C .eh_frame$_ZSt34__uninitialized_move_if_noexcept_aIPN3zmq18tcp_address_mask_tES2_SaIS1_EET0_T_S5_S4_RT1_
          3C .eh_frame$_ZSt34__uninitialized_move_if_noexcept_aIPN3zmq8select_t10fd_entry_tES3_SaIS2_EET0_T_S6_S5_RT1_
          3C .eh_frame$_ZSt34__uninitialized_move_if_noexcept_aIPPN3zmq10signaler_tES3_SaIS2_EET0_T_S6_S5_RT1_
          3C .eh_frame$_ZSt34__uninitialized_move_if_noexcept_aIPPN3zmq11io_thread_tES3_SaIS2_EET0_T_S6_S5_RT1_
          3C .eh_frame$_ZSt34__uninitialized_move_if_noexcept_aIPPN3zmq13socket_base_tES3_SaIS2_EET0_T_S6_S5_RT1_
         12C .eh_frame$_ZSt34__uninitialized_move_if_noexcept_aIPPN3zmq6pipe_tES3_SaIS2_EET0_T_S6_S5_RT1_
          3C .eh_frame$_ZSt34__uninitialized_move_if_noexcept_aIPPN3zmq9i_mailboxES3_SaIS2_EET0_T_S6_S5_RT1_
          3C .eh_frame$_ZSt34__uninitialized_move_if_noexcept_aIPhS0_SaIhEET0_T_S3_S2_RT1_
          78 .eh_frame$_ZSt34__uninitialized_move_if_noexcept_aIPjS0_SaIjEET0_T_S3_S2_RT1_
          38 .eh_frame$_ZSt3getILj0EJONSt7__cxx1112basic_stringIcSt11char_traitsIcESaIcEEEEERNSt13tuple_elementIXT_ESt5tupleIJDpT0_EEE4typeERSB_
          38 .eh_frame$_ZSt3getILj0EJRKtEERNSt13tuple_elementIXT_ESt5tupleIJDpT0_EEE4typeERS6_
          38 .eh_frame$_ZSt3maxIiERKT_S2_S2_
         2A0 .eh_frame$_ZSt3maxIjERKT_S2_S2_
          38 .eh_frame$_ZSt3maxIlERKT_S2_S2_
          70 .eh_frame$_ZSt3minIhERKT_S2_S2_
          38 .eh_frame$_ZSt3minIiERKT_S2_S2_
         1F8 .eh_frame$_ZSt3minIjERKT_S2_S2_
          3C .eh_frame$_ZSt4copyIPPN3zmq6blob_tES3_ET0_T_S5_S4_
          3C .eh_frame$_ZSt4copyIPPPN3zmq10metadata_tES4_ET0_T_S6_S5_
          3C .eh_frame$_ZSt4copyIPPPN3zmq6pipe_tES4_ET0_T_S6_S5_
          3C .eh_frame$_ZSt4copyIPPhS1_ET0_T_S3_S2_
          3C .eh_frame$_ZSt4copyISt13move_iteratorIPN3zmq15socket_poller_t6item_tEES4_ET0_T_S7_S6_
          3C .eh_frame$_ZSt4copyISt13move_iteratorIPN3zmq8select_t10fd_entry_tEES4_ET0_T_S7_S6_
          3C .eh_frame$_ZSt4copyISt13move_iteratorIPPN3zmq10signaler_tEES4_ET0_T_S7_S6_
          3C .eh_frame$_ZSt4copyISt13move_iteratorIPPN3zmq11io_thread_tEES4_ET0_T_S7_S6_
          3C .eh_frame$_ZSt4copyISt13move_iteratorIPPN3zmq13socket_base_tEES4_ET0_T_S7_S6_
         12C .eh_frame$_ZSt4copyISt13move_iteratorIPPN3zmq6pipe_tEES4_ET0_T_S7_S6_
          3C .eh_frame$_ZSt4copyISt13move_iteratorIPPN3zmq9i_mailboxEES4_ET0_T_S7_S6_
          3C .eh_frame$_ZSt4copyISt13move_iteratorIPhES1_ET0_T_S4_S3_
          78 .eh_frame$_ZSt4copyISt13move_iteratorIPjES1_ET0_T_S4_S3_
          78 .eh_frame$_ZSt4fillIN9__gnu_cxx17__normal_iteratorIPhSt6vectorIhN3zmq18secure_allocator_tIhEEEEEiEvT_S9_RKT0_
          B4 .eh_frame$_ZSt4fillIN9__gnu_cxx17__normal_iteratorIPhSt6vectorIhSaIhEEEEiEvT_S7_RKT0_
          3C .eh_frame$_ZSt4fillIPPN3zmq9i_mailboxES2_EvT_S4_RKT0_
          38 .eh_frame$_ZSt4findIN9__gnu_cxx17__normal_iteratorIPPN3zmq10signaler_tESt6vectorIS4_SaIS4_EEEES4_ET_SA_SA_RKT0_
          38 .eh_frame$_ZSt4findIN9__gnu_cxx17__normal_iteratorIPPN3zmq6pipe_tESt6vectorIS4_SaIS4_EEEES4_ET_SA_SA_RKT0_
          3C .eh_frame$_ZSt4moveIN9__gnu_cxx17__normal_iteratorIPN3zmq15socket_poller_t6item_tESt6vectorIS4_SaIS4_EEEES9_ET0_T_SB_SA_
          3C .eh_frame$_ZSt4moveIN9__gnu_cxx17__normal_iteratorIPN3zmq8select_t10fd_entry_tESt6vectorIS4_SaIS4_EEEES9_ET0_T_SB_SA_
          3C .eh_frame$_ZSt4moveIN9__gnu_cxx17__normal_iteratorIPPN3zmq10signaler_tESt6vectorIS4_SaIS4_EEEES9_ET0_T_SB_SA_
          3C .eh_frame$_ZSt4moveIN9__gnu_cxx17__normal_iteratorIPPN3zmq6pipe_tESt6vectorIS4_SaIS4_EEEES9_ET0_T_SB_SA_
          38 .eh_frame$_ZSt4moveIRKSaISt5mutexEEONSt16remove_referenceIT_E4typeEOS5_
          38 .eh_frame$_ZSt4moveIRN3zmq19endpoint_uri_pair_tEEONSt16remove_referenceIT_E4typeEOS4_
          E0 .eh_frame$_ZSt4moveIRN3zmq6blob_tEEONSt16remove_referenceIT_E4typeEOS4_
          38 .eh_frame$_ZSt4moveIRN3zmq8select_t10fd_entry_tEEONSt16remove_referenceIT_E4typeEOS5_
         118 .eh_frame$_ZSt4moveIRNSt7__cxx1112basic_stringIcSt11char_traitsIcESaIcEEEEONSt16remove_referenceIT_E4typeEOS8_
          38 .eh_frame$_ZSt4moveIRPN3zmq10metadata_tEEONSt16remove_referenceIT_E4typeEOS5_
          38 .eh_frame$_ZSt4moveIRPN3zmq18tcp_address_mask_tEEONSt16remove_referenceIT_E4typeEOS5_
          E0 .eh_frame$_ZSt4moveIRPN3zmq6pipe_tEEONSt16remove_referenceIT_E4typeEOS5_
          38 .eh_frame$_ZSt4moveIRSaIN3zmq18tcp_address_mask_tEEEONSt16remove_referenceIT_E4typeEOS5_
          38 .eh_frame$_ZSt4moveIRSaISt13_Rb_tree_nodeISt4pairIKNSt7__cxx1112basic_stringIcSt11char_traitsIcESaIcEEEN3zmq5ctx_t20pending_connection_tEEEEEONSt16remove_referenceIT_E4typeEOSH_
         188 .eh_frame$_ZSt4moveIRSaISt13_Rb_tree_nodeISt4pairIKNSt7__cxx1112basic_stringIcSt11char_traitsIcESaIcEEES7_EEEEONSt16remove_referenceIT_E4typeEOSE_
          38 .eh_frame$_ZSt4moveIRSt11unique_lockISt5mutexEEONSt16remove_referenceIT_E4typeEOS5_
          38 .eh_frame$_ZSt4moveIRSt6vectorIN3zmq18tcp_address_mask_tESaIS2_EEEONSt16remove_referenceIT_E4typeEOS7_
          38 .eh_frame$_ZSt4moveIRSt8_Rb_treeINSt7__cxx1112basic_stringIcSt11char_traitsIcESaIcEEESt4pairIKS6_S6_ESt10_Select1stIS9_ESt4lessIS6_ESaIS9_EEEONSt16remove_referenceIT_E4typeEOSI_
          38 .eh_frame$_ZSt4moveIRhEONSt16remove_referenceIT_E4typeEOS2_
          38 .eh_frame$_ZSt4moveIRjEONSt16remove_referenceIT_E4typeEOS2_
          38 .eh_frame$_ZSt4swapIPN3zmq18tcp_address_mask_tEEvRT_S4_
          A8 .eh_frame$_ZSt4swapIPN3zmq6pipe_tEEvRT_S4_
          38 .eh_frame$_ZSt6fill_nIPPN3zmq9i_mailboxEjS2_ET_S4_T0_RKT1_
          A8 .eh_frame$_ZSt6fill_nIPhjhET_S1_T0_RKT1_
          38 .eh_frame$_ZSt6fill_nIPjjjET_S1_T0_RKT1_
          38 .eh_frame$_ZSt7find_ifISt17_Rb_tree_iteratorISt4pairIKyN3zmq8timers_t7timer_tEEENS4_11match_by_idEET_S9_S9_T0_
          38 .eh_frame$_ZSt7forwardIMN3zmq14session_base_tEFPNS0_5own_tEPNS0_11io_thread_tEbEEOT_RNSt16remove_referenceIS8_E4typeE
          38 .eh_frame$_ZSt7forwardIMN3zmq14session_base_tEFvPNS0_11io_thread_tEEEOT_RNSt16remove_referenceIS6_E4typeE
          38 .eh_frame$_ZSt7forwardIN3zmq18tcp_address_mask_tEEOT_RNSt16remove_referenceIS2_E4typeE
          70 .eh_frame$_ZSt7forwardIN3zmq6blob_tEEOT_RNSt16remove_referenceIS2_E4typeE
         150 .eh_frame$_ZSt7forwardINSt7__cxx1112basic_stringIcSt11char_traitsIcESaIcEEEEOT_RNSt16remove_referenceIS6_E4typeE
          38 .eh_frame$_ZSt7forwardIONSt7__cxx1112basic_stringIcSt11char_traitsIcESaIcEEEEOT_RNSt16remove_referenceIS7_E4typeE
          38 .eh_frame$_ZSt7forwardIPN3zmq10metadata_tEEOT_RNSt16remove_referenceIS3_E4typeE
          38 .eh_frame$_ZSt7forwardIPN3zmq6pipe_tEEOT_RNSt16remove_referenceIS3_E4typeE
          38 .eh_frame$_ZSt7forwardIRA3_KcEOT_RNSt16remove_referenceIS3_E4typeE
          38 .eh_frame$_ZSt7forwardIRA4_KcEOT_RNSt16remove_referenceIS3_E4typeE
          38 .eh_frame$_ZSt7forwardIRKN3zmq10endpoint_tEEOT_RNSt16remove_referenceIS4_E4typeE
          38 .eh_frame$_ZSt7forwardIRKN3zmq15socket_poller_t6item_tEEOT_RNSt16remove_referenceIS5_E4typeE
         188 .eh_frame$_ZSt7forwardIRKN3zmq18tcp_address_mask_tEEOT_RNSt16remove_referenceIS4_E4typeE
          38 .eh_frame$_ZSt7forwardIRKN3zmq21routing_socket_base_t10out_pipe_tEEOT_RNSt16remove_referenceIS5_E4typeE
          38 .eh_frame$_ZSt7forwardIRKN3zmq5ctx_t20pending_connection_tEEOT_RNSt16remove_referenceIS5_E4typeE
          38 .eh_frame$_ZSt7forwardIRKN3zmq8select_t10fd_entry_tEEOT_RNSt16remove_referenceIS5_E4typeE
         118 .eh_frame$_ZSt7forwardIRKNSt7__cxx1112basic_stringIcSt11char_traitsIcESaIcEEEEOT_RNSt16remove_referenceIS8_E4typeE
          38 .eh_frame$_ZSt7forwardIRKPN3zmq10metadata_tEEOT_RNSt16remove_referenceIS5_E4typeE
          38 .eh_frame$_ZSt7forwardIRKPN3zmq10signaler_tEEOT_RNSt16remove_referenceIS5_E4typeE
          38 .eh_frame$_ZSt7forwardIRKPN3zmq11io_thread_tEEOT_RNSt16remove_referenceIS5_E4typeE
          38 .eh_frame$_ZSt7forwardIRKPN3zmq13socket_base_tEEOT_RNSt16remove_referenceIS5_E4typeE
          38 .eh_frame$_ZSt7forwardIRKPN3zmq5own_tEEOT_RNSt16remove_referenceIS5_E4typeE
         1F8 .eh_frame$_ZSt7forwardIRKPN3zmq6pipe_tEEOT_RNSt16remove_referenceIS5_E4typeE
          70 .eh_frame$_ZSt7forwardIRKSt21piecewise_construct_tEOT_RNSt16remove_referenceIS3_E4typeE
          38 .eh_frame$_ZSt7forwardIRKSt4pairIKNSt7__cxx1112basic_stringIcSt11char_traitsIcESaIcEEEN3zmq5ctx_t20pending_connection_tEEEOT_RNSt16remove_referenceISE_E4typeE
         188 .eh_frame$_ZSt7forwardIRKSt4pairIKNSt7__cxx1112basic_stringIcSt11char_traitsIcESaIcEEES6_EEOT_RNSt16remove_referenceISB_E4typeE
          38 .eh_frame$_ZSt7forwardIRKhEOT_RNSt16remove_referenceIS2_E4typeE
          70 .eh_frame$_ZSt7forwardIRKiEOT_RNSt16remove_referenceIS2_E4typeE
          38 .eh_frame$_ZSt7forwardIRKjEOT_RNSt16remove_referenceIS2_E4typeE
          38 .eh_frame$_ZSt7forwardIRKtEOT_RNSt16remove_referenceIS2_E4typeE
          38 .eh_frame$_ZSt7forwardIRN3zmq13poller_base_t12timer_info_tEEOT_RNSt16remove_referenceIS4_E4typeE
          38 .eh_frame$_ZSt7forwardIRN3zmq8server_t9outpipe_tEEOT_RNSt16remove_referenceIS4_E4typeE
          38 .eh_frame$_ZSt7forwardIRN3zmq8timers_t7timer_tEEOT_RNSt16remove_referenceIS4_E4typeE
          38 .eh_frame$_ZSt7forwardIRNSt7__cxx1112basic_stringIcSt11char_traitsIcESaIcEEEEOT_RNSt16remove_referenceIS7_E4typeE
          38 .eh_frame$_ZSt7forwardIRPN3zmq5own_tEEOT_RNSt16remove_referenceIS4_E4typeE
          70 .eh_frame$_ZSt7forwardIRPN3zmq6pipe_tEEOT_RNSt16remove_referenceIS4_E4typeE
          38 .eh_frame$_ZSt7forwardIRPSt13_Rb_tree_nodeINSt7__cxx1112basic_stringIcSt11char_traitsIcESaIcEEEEEOT_RNSt16remove_referenceISA_E4typeE
          38 .eh_frame$_ZSt7forwardIRPSt13_Rb_tree_nodeIPN3zmq5own_tEEEOT_RNSt16remove_referenceIS7_E4typeE
          A8 .eh_frame$_ZSt7forwardIRPSt13_Rb_tree_nodeIPN3zmq6pipe_tEEEOT_RNSt16remove_referenceIS7_E4typeE
          38 .eh_frame$_ZSt7forwardIRPSt13_Rb_tree_nodeISt4pairIKN3zmq6blob_tENS2_21routing_socket_base_t10out_pipe_tEEEEOT_RNSt16remove_referenceISB_E4typeE
          38 .eh_frame$_ZSt7forwardIRPSt13_Rb_tree_nodeISt4pairIKNSt7__cxx1112basic_stringIcSt11char_traitsIcESaIcEEEMN3zmq14session_base_tEFPNS9_5own_tEPNS9_11io_thread_tEbEEEEOT_RNSt16remove_referenceISL_E4typeE
          38 .eh_frame$_ZSt7forwardIRPSt13_Rb_tree_nodeISt4pairIKNSt7__cxx1112basic_stringIcSt11char_traitsIcESaIcEEEMN3zmq14session_base_tEFvPNS9_11io_thread_tEEEEEOT_RNSt16remove_referenceISJ_E4typeE
          38 .eh_frame$_ZSt7forwardIRPSt13_Rb_tree_nodeISt4pairIKNSt7__cxx1112basic_stringIcSt11char_traitsIcESaIcEEEN3zmq10endpoint_tEEEEOT_RNSt16remove_referenceISF_E4typeE
          38 .eh_frame$_ZSt7forwardIRPSt13_Rb_tree_nodeISt4pairIKNSt7__cxx1112basic_stringIcSt11char_traitsIcESaIcEEEN3zmq5ctx_t20pending_connection_tEEEEOT_RNSt16remove_referenceISG_E4typeE
          70 .eh_frame$_ZSt7forwardIRPSt13_Rb_tree_nodeISt4pairIKNSt7__cxx1112basic_stringIcSt11char_traitsIcESaIcEEEPN3zmq6pipe_tEEEEOT_RNSt16remove_referenceISG_E4typeE
          38 .eh_frame$_ZSt7forwardIRPSt13_Rb_tree_nodeISt4pairIKNSt7__cxx1112basic_stringIcSt11char_traitsIcESaIcEEES1_IPN3zmq5own_tEPNS9_6pipe_tEEEEEOT_RNSt16remove_referenceISJ_E4typeE
          A8 .eh_frame$_ZSt7forwardIRPSt13_Rb_tree_nodeISt4pairIKNSt7__cxx1112basic_stringIcSt11char_traitsIcESaIcEEES7_EEEOT_RNSt16remove_referenceISD_E4typeE
          38 .eh_frame$_ZSt7forwardIRPSt13_Rb_tree_nodeISt4pairIKjN3zmq8server_t9outpipe_tEEEEOT_RNSt16remove_referenceISA_E4typeE
          38 .eh_frame$_ZSt7forwardIRPSt13_Rb_tree_nodeISt4pairIKtN3zmq8select_t14family_entry_tEEEEOT_RNSt16remove_referenceISA_E4typeE
          38 .eh_frame$_ZSt7forwardIRPSt13_Rb_tree_nodeISt4pairIKyN3zmq13poller_base_t12timer_info_tEEEEOT_RNSt16remove_referenceISA_E4typeE
          38 .eh_frame$_ZSt7forwardIRPSt13_Rb_tree_nodeISt4pairIKyN3zmq8timers_t7timer_tEEEEOT_RNSt16remove_referenceISA_E4typeE
          70 .eh_frame$_ZSt7forwardIRPSt13_Rb_tree_nodeIiEEOT_RNSt16remove_referenceIS4_E4typeE
         2D8 .eh_frame$_ZSt7forwardIRPSt18_Rb_tree_node_baseEOT_RNSt16remove_referenceIS3_E4typeE
          38 .eh_frame$_ZSt7forwardIRSt17_Rb_tree_iteratorINSt7__cxx1112basic_stringIcSt11char_traitsIcESaIcEEEEEOT_RNSt16remove_referenceIS9_E4typeE
          38 .eh_frame$_ZSt7forwardIRSt17_Rb_tree_iteratorIPN3zmq5own_tEEEOT_RNSt16remove_referenceIS6_E4typeE
          A8 .eh_frame$_ZSt7forwardIRSt17_Rb_tree_iteratorIPN3zmq6pipe_tEEEOT_RNSt16remove_referenceIS6_E4typeE
          70 .eh_frame$_ZSt7forwardIRSt17_Rb_tree_iteratorIiEEOT_RNSt16remove_referenceIS3_E4typeE
          38 .eh_frame$_ZSt7forwardIRSt4pairIKNSt7__cxx1112basic_stringIcSt11char_traitsIcESaIcEEEMN3zmq14session_base_tEFPNS8_5own_tEPNS8_11io_thread_tEbEEEOT_RNSt16remove_referenceISI_E4typeE
          38 .eh_frame$_ZSt7forwardIRSt4pairIKNSt7__cxx1112basic_stringIcSt11char_traitsIcESaIcEEEMN3zmq14session_base_tEFvPNS8_11io_thread_tEEEEOT_RNSt16remove_referenceISG_E4typeE
         188 .eh_frame$_ZSt7forwardIRbEOT_RNSt16remove_referenceIS1_E4typeE
          70 .eh_frame$_ZSt7forwardIRjEOT_RNSt16remove_referenceIS1_E4typeE
          70 .eh_frame$_ZSt7forwardIRyEOT_RNSt16remove_referenceIS1_E4typeE
          38 .eh_frame$_ZSt7forwardISt17_Rb_tree_iteratorINSt7__cxx1112basic_stringIcSt11char_traitsIcESaIcEEEEEOT_RNSt16remove_referenceIS8_E4typeE
          38 .eh_frame$_ZSt7forwardISt17_Rb_tree_iteratorIPN3zmq5own_tEEEOT_RNSt16remove_referenceIS5_E4typeE
          E0 .eh_frame$_ZSt7forwardISt17_Rb_tree_iteratorIPN3zmq6pipe_tEEEOT_RNSt16remove_referenceIS5_E4typeE
          38 .eh_frame$_ZSt7forwardISt17_Rb_tree_iteratorISt4pairIKN3zmq6blob_tENS2_21routing_socket_base_t10out_pipe_tEEEEOT_RNSt16remove_referenceIS9_E4typeE
          38 .eh_frame$_ZSt7forwardISt17_Rb_tree_iteratorISt4pairIKNSt7__cxx1112basic_stringIcSt11char_traitsIcESaIcEEEN3zmq10endpoint_tEEEEOT_RNSt16remove_referenceISD_E4typeE
          38 .eh_frame$_ZSt7forwardISt17_Rb_tree_iteratorISt4pairIKNSt7__cxx1112basic_stringIcSt11char_traitsIcESaIcEEEN3zmq5ctx_t20pending_connection_tEEEEOT_RNSt16remove_referenceISE_E4typeE
          70 .eh_frame$_ZSt7forwardISt17_Rb_tree_iteratorISt4pairIKNSt7__cxx1112basic_stringIcSt11char_traitsIcESaIcEEEPN3zmq6pipe_tEEEEOT_RNSt16remove_referenceISE_E4typeE
          38 .eh_frame$_ZSt7forwardISt17_Rb_tree_iteratorISt4pairIKNSt7__cxx1112basic_stringIcSt11char_traitsIcESaIcEEES1_IPN3zmq5own_tEPNS9_6pipe_tEEEEEOT_RNSt16remove_referenceISH_E4typeE
          A8 .eh_frame$_ZSt7forwardISt17_Rb_tree_iteratorISt4pairIKNSt7__cxx1112basic_stringIcSt11char_traitsIcESaIcEEES7_EEEOT_RNSt16remove_referenceISB_E4typeE
          38 .eh_frame$_ZSt7forwardISt17_Rb_tree_iteratorISt4pairIKjN3zmq8server_t9outpipe_tEEEEOT_RNSt16remove_referenceIS8_E4typeE
          70 .eh_frame$_ZSt7forwardISt17_Rb_tree_iteratorIiEEOT_RNSt16remove_referenceIS2_E4typeE
          38 .eh_frame$_ZSt7forwardISt23_Rb_tree_const_iteratorISt4pairIKNSt7__cxx1112basic_stringIcSt11char_traitsIcESaIcEEES1_IPN3zmq5own_tEPNS9_6pipe_tEEEEEOT_RNSt16remove_referenceISH_E4typeE
          38 .eh_frame$_ZSt7forwardISt4pairIKyN3zmq13poller_base_t12timer_info_tEEEOT_RNSt16remove_referenceIS6_E4typeE
          38 .eh_frame$_ZSt7forwardISt4pairIKyN3zmq8timers_t7timer_tEEEOT_RNSt16remove_referenceIS6_E4typeE
          38 .eh_frame$_ZSt7forwardISt4pairINSt7__cxx1112basic_stringIcSt11char_traitsIcESaIcEEES6_EEOT_RNSt16remove_referenceIS8_E4typeE
          38 .eh_frame$_ZSt7forwardISt4pairIPN3zmq5own_tEPNS1_6pipe_tEEEOT_RNSt16remove_referenceIS7_E4typeE
          70 .eh_frame$_ZSt7forwardISt5tupleIJEEEOT_RNSt16remove_referenceIS2_E4typeE
          38 .eh_frame$_ZSt7forwardISt5tupleIJONSt7__cxx1112basic_stringIcSt11char_traitsIcESaIcEEEEEEOT_RNSt16remove_referenceIS9_E4typeE
          38 .eh_frame$_ZSt7forwardISt5tupleIJRKtEEEOT_RNSt16remove_referenceIS4_E4typeE
         2A0 .eh_frame$_ZSt7forwardIbEOT_RNSt16remove_referenceIS0_E4typeE
          38 .eh_frame$_ZSt7forwardIhEOT_RNSt16remove_referenceIS0_E4typeE
          38 .eh_frame$_ZSt7forwardIiEOT_RNSt16remove_referenceIS0_E4typeE
          38 .eh_frame$_ZSt7forwardIjEOT_RNSt16remove_referenceIS0_E4typeE
          38 .eh_frame$_ZSt7forwardItEOT_RNSt16remove_referenceIS0_E4typeE
          38 .eh_frame$_ZSt7forwardIyEOT_RNSt16remove_referenceIS0_E4typeE
          38 .eh_frame$_ZSt8_DestroyIN3zmq6blob_tEEvPT_
          38 .eh_frame$_ZSt8_DestroyIPN3zmq15socket_poller_t6item_tEEvT_S4_
          38 .eh_frame$_ZSt8_DestroyIPN3zmq15socket_poller_t6item_tES2_EvT_S4_RSaIT0_E
         1C0 .eh_frame$_ZSt8_DestroyIPN3zmq18tcp_address_mask_tEEvT_S3_
         1C0 .eh_frame$_ZSt8_DestroyIPN3zmq18tcp_address_mask_tES1_EvT_S3_RSaIT0_E
          38 .eh_frame$_ZSt8_DestroyIPN3zmq6blob_tEEvT_S3_
          38 .eh_frame$_ZSt8_DestroyIPN3zmq6blob_tES1_EvT_S3_RSaIT0_E
          38 .eh_frame$_ZSt8_DestroyIPN3zmq8select_t10fd_entry_tEEvT_S4_
          38 .eh_frame$_ZSt8_DestroyIPN3zmq8select_t10fd_entry_tES2_EvT_S4_RSaIT0_E
          38 .eh_frame$_ZSt8_DestroyIPPN3zmq10signaler_tEEvT_S4_
          38 .eh_frame$_ZSt8_DestroyIPPN3zmq10signaler_tES2_EvT_S4_RSaIT0_E
          38 .eh_frame$_ZSt8_DestroyIPPN3zmq11io_thread_tEEvT_S4_
          38 .eh_frame$_ZSt8_DestroyIPPN3zmq11io_thread_tES2_EvT_S4_RSaIT0_E
          38 .eh_frame$_ZSt8_DestroyIPPN3zmq13socket_base_tEEvT_S4_
          38 .eh_frame$_ZSt8_DestroyIPPN3zmq13socket_base_tES2_EvT_S4_RSaIT0_E
         118 .eh_frame$_ZSt8_DestroyIPPN3zmq6pipe_tEEvT_S4_
         118 .eh_frame$_ZSt8_DestroyIPPN3zmq6pipe_tES2_EvT_S4_RSaIT0_E
          38 .eh_frame$_ZSt8_DestroyIPPN3zmq9i_mailboxEEvT_S4_
          38 .eh_frame$_ZSt8_DestroyIPPN3zmq9i_mailboxES2_EvT_S4_RSaIT0_E
          E0 .eh_frame$_ZSt8_DestroyIPhEvT_S1_
          E0 .eh_frame$_ZSt8_DestroyIPhhEvT_S1_RSaIT0_E
          70 .eh_frame$_ZSt8_DestroyIPjEvT_S1_
          70 .eh_frame$_ZSt8_DestroyIPjjEvT_S1_RSaIT0_E
          38 .eh_frame$_ZSt8__fill_aIPPN3zmq9i_mailboxES2_EN9__gnu_cxx11__enable_ifIXsrSt11__is_scalarIT0_E7__valueEvE6__typeET_SB_RKS7_
          A8 .eh_frame$_ZSt8__fill_aIPhiEN9__gnu_cxx11__enable_ifIXsrSt11__is_scalarIT0_E7__valueEvE6__typeET_S8_RKS4_
          A8 .eh_frame$_ZSt8__fill_aIhEN9__gnu_cxx11__enable_ifIXsrSt9__is_byteIT_E7__valueEvE6__typeEPS3_S7_RKS3_
          3C .eh_frame$_ZSt8distanceISt23_Rb_tree_const_iteratorISt4pairIKNSt7__cxx1112basic_stringIcSt11char_traitsIcESaIcEEES1_IPN3zmq5own_tEPNS9_6pipe_tEEEEENSt15iterator_traitsIT_E15difference_typeESI_SI_
          3C .eh_frame$_ZSt9__find_ifIN9__gnu_cxx17__normal_iteratorIPN3zmq8select_t10fd_entry_tESt6vectorIS4_SaIS4_EEEENS0_5__ops10_Iter_predIPFbRKS4_EEEET_SH_SH_T0_
          38 .eh_frame$_ZSt9__find_ifIN9__gnu_cxx17__normal_iteratorIPN3zmq8select_t10fd_entry_tESt6vectorIS4_SaIS4_EEEENS0_5__ops10_Iter_predIPFbRKS4_EEEET_SH_SH_T0_St26random_access_iterator_tag
          3C .eh_frame$_ZSt9__find_ifIN9__gnu_cxx17__normal_iteratorIPPN3zmq10signaler_tESt6vectorIS4_SaIS4_EEEENS0_5__ops16_Iter_equals_valIKS4_EEET_SE_SE_T0_
          38 .eh_frame$_ZSt9__find_ifIN9__gnu_cxx17__normal_iteratorIPPN3zmq10signaler_tESt6vectorIS4_SaIS4_EEEENS0_5__ops16_Iter_equals_valIKS4_EEET_SE_SE_T0_St26random_access_iterator_tag
          3C .eh_frame$_ZSt9__find_ifIN9__gnu_cxx17__normal_iteratorIPPN3zmq6pipe_tESt6vectorIS4_SaIS4_EEEENS0_5__ops16_Iter_equals_valIKS4_EEET_SE_SE_T0_
          38 .eh_frame$_ZSt9__find_ifIN9__gnu_cxx17__normal_iteratorIPPN3zmq6pipe_tESt6vectorIS4_SaIS4_EEEENS0_5__ops16_Iter_equals_valIKS4_EEET_SE_SE_T0_St26random_access_iterator_tag
          3C .eh_frame$_ZSt9__find_ifISt17_Rb_tree_iteratorISt4pairIKyN3zmq8timers_t7timer_tEEEN9__gnu_cxx5__ops10_Iter_predINS4_11match_by_idEEEET_SD_SD_T0_
          38 .eh_frame$_ZSt9__find_ifISt17_Rb_tree_iteratorISt4pairIKyN3zmq8timers_t7timer_tEEEN9__gnu_cxx5__ops10_Iter_predINS4_11match_by_idEEEET_SD_SD_T0_St18input_iterator_tag
          3C .eh_frame$_ZSt9make_pairIRjtESt4pairINSt17__decay_and_stripIT_E6__typeENS2_IT0_E6__typeEEOS3_OS6_
          38 .eh_frame$_ZSt9remove_ifIN9__gnu_cxx17__normal_iteratorIPN3zmq8select_t10fd_entry_tESt6vectorIS4_SaIS4_EEEEPFbRKS4_EET_SE_SE_T0_
         380 .eh_frame$_ZStanSt12memory_orderSt23__memory_order_modifier
          38 .eh_frame$_ZSteqIN3zmq6blob_tERS1_PS1_EbRKSt15_Deque_iteratorIT_T0_T1_ESA_
          3C .eh_frame$_ZSteqIPN3zmq18tcp_address_mask_tEEbRKSt13move_iteratorIT_ES7_
          38 .eh_frame$_ZSteqIPN3zmq6pipe_tERS2_PS2_EbRKSt15_Deque_iteratorIT_T0_T1_ESB_
         268 .eh_frame$_ZSteqIcSt11char_traitsIcESaIcEEbRKNSt7__cxx1112basic_stringIT_T0_T1_EEPKS5_
         1F8 .eh_frame$_ZStltIcSt11char_traitsIcESaIcEEbRKNSt7__cxx1112basic_stringIT_T0_T1_EESA_
          38 .eh_frame$_ZStneIPN3zmq18tcp_address_mask_tEEbRKSt13move_iteratorIT_ES7_
          A8 .eh_frame$_ZStneIcSt11char_traitsIcESaIcEEbRKNSt7__cxx1112basic_stringIT_T0_T1_EEPKS5_
          38 .eh_frame$_ZStorSt13_Ios_OpenmodeS_
          2C .eh_frame$_ZThn8_N3zmq12udp_engine_t17zap_msg_availableEv
          2C .eh_frame$_ZThn968_N3zmq14tcp_listener_tD0Ev
          2C .eh_frame$_ZThn968_N3zmq14tcp_listener_tD1Ev
         268 .eh_frame$_ZdlPvS_
         5B0 .eh_frame$_ZnwjPv
          B4 .eh_frame$snprintf
        30FC .gcc_except_table
        5EE0 .rdata
          68 .rdata$_ZTCN3zmq14curve_client_tE0_NS_22curve_mechanism_base_tE
          68 .rdata$_ZTCN3zmq14curve_server_tE0_NS_12zap_client_tE
          70 .rdata$_ZTCN3zmq14curve_server_tE0_NS_29zap_client_common_handshake_tE
          68 .rdata$_ZTCN3zmq14curve_server_tE64_NS_22curve_mechanism_base_tE
          68 .rdata$_ZTCN3zmq14plain_server_tE0_NS_12zap_client_tE
          70 .rdata$_ZTCN3zmq14plain_server_tE0_NS_29zap_client_common_handshake_tE
          68 .rdata$_ZTCN3zmq16null_mechanism_tE0_NS_12zap_client_tE
          68 .rdata$_ZTCN3zmq29zap_client_common_handshake_tE0_NS_12zap_client_tE
           8 .rdata$_ZTIN10__cxxabiv115__forced_unwindE
          CC .rdata$_ZTIN3zmq11io_object_tE
          20 .rdata$_ZTIN3zmq11io_thread_tE
          48 .rdata$_ZTIN3zmq11mechanism_tE
           C .rdata$_ZTIN3zmq11ws_engine_tE
          A0 .rdata$_ZTIN3zmq12array_item_tILi0EEE
           8 .rdata$_ZTIN3zmq12array_item_tILi1EEE
           8 .rdata$_ZTIN3zmq12array_item_tILi2EEE
           8 .rdata$_ZTIN3zmq12array_item_tILi3EEE
           C .rdata$_ZTIN3zmq12raw_engine_tE
          20 .rdata$_ZTIN3zmq12udp_engine_tE
           C .rdata$_ZTIN3zmq12v1_decoder_tE
           C .rdata$_ZTIN3zmq12v1_encoder_tE
           C .rdata$_ZTIN3zmq12v2_decoder_tE
           C .rdata$_ZTIN3zmq12v2_encoder_tE
           C .rdata$_ZTIN3zmq12ws_decoder_tE
           C .rdata$_ZTIN3zmq12ws_encoder_tE
           8 .rdata$_ZTIN3zmq12ypipe_base_tINS_5msg_tEEE
          10 .rdata$_ZTIN3zmq12ypipe_base_tINS_9command_tEEE
          60 .rdata$_ZTIN3zmq12zap_client_tE
          A8 .rdata$_ZTIN3zmq13i_pipe_eventsE
         120 .rdata$_ZTIN3zmq13i_poll_eventsE
           8 .rdata$_ZTIN3zmq13ip_resolver_tE
          10 .rdata$_ZTIN3zmq13poller_base_tE
           C .rdata$_ZTIN3zmq13raw_decoder_tE
           C .rdata$_ZTIN3zmq13raw_encoder_tE
           C .rdata$_ZTIN3zmq13req_session_tE
         3C0 .rdata$_ZTIN3zmq13socket_base_tE
           8 .rdata$_ZTIN3zmq13udp_address_tE
           C .rdata$_ZTIN3zmq13ws_listener_tE
           C .rdata$_ZTIN3zmq13zmtp_engine_tE
           C .rdata$_ZTIN3zmq14curve_client_tE
          20 .rdata$_ZTIN3zmq14curve_server_tE
           C .rdata$_ZTIN3zmq14decoder_base_tINS_12v1_decoder_tENS_18c_single_allocatorEEE
           C .rdata$_ZTIN3zmq14decoder_base_tINS_12v2_decoder_tENS_31shared_message_memory_allocatorEEE
           C .rdata$_ZTIN3zmq14decoder_base_tINS_12ws_decoder_tENS_31shared_message_memory_allocatorEEE
           C .rdata$_ZTIN3zmq14dish_session_tE
           C .rdata$_ZTIN3zmq14encoder_base_tINS_12v1_encoder_tEEE
           C .rdata$_ZTIN3zmq14encoder_base_tINS_12v2_encoder_tEEE
           C .rdata$_ZTIN3zmq14encoder_base_tINS_12ws_encoder_tEEE
           C .rdata$_ZTIN3zmq14encoder_base_tINS_13raw_encoder_tEEE
           C .rdata$_ZTIN3zmq14mailbox_safe_tE
           C .rdata$_ZTIN3zmq14plain_client_tE
           C .rdata$_ZTIN3zmq14plain_server_tE
          A0 .rdata$_ZTIN3zmq14session_base_tE
           C .rdata$_ZTIN3zmq14tcp_listener_tE
           C .rdata$_ZTIN3zmq14ws_connecter_tE
           C .rdata$_ZTIN3zmq15radio_session_tE
           C .rdata$_ZTIN3zmq15tcp_connecter_tE
          60 .rdata$_ZTIN3zmq16mechanism_base_tE
           C .rdata$_ZTIN3zmq16null_mechanism_tE
           C .rdata$_ZTIN3zmq16ypipe_conflate_tINS_5msg_tEEE
           C .rdata$_ZTIN3zmq17socks_connecter_tE
          80 .rdata$_ZTIN3zmq20stream_engine_base_tE
          18 .rdata$_ZTIN3zmq20worker_poller_base_tE
          30 .rdata$_ZTIN3zmq21routing_socket_base_tE
          48 .rdata$_ZTIN3zmq22curve_mechanism_base_tE
          60 .rdata$_ZTIN3zmq22stream_listener_base_tE
          80 .rdata$_ZTIN3zmq23stream_connecter_base_tE
          24 .rdata$_ZTIN3zmq29zap_client_common_handshake_tE
         15C .rdata$_ZTIN3zmq5own_tE
           C .rdata$_ZTIN3zmq5pub_tE
           C .rdata$_ZTIN3zmq5rep_tE
           C .rdata$_ZTIN3zmq5req_tE
           C .rdata$_ZTIN3zmq5sub_tE
           C .rdata$_ZTIN3zmq6dish_tE
           C .rdata$_ZTIN3zmq6pair_tE
          30 .rdata$_ZTIN3zmq6pipe_tE
           C .rdata$_ZTIN3zmq6pull_tE
           C .rdata$_ZTIN3zmq6push_tE
          18 .rdata$_ZTIN3zmq6xpub_tE
          18 .rdata$_ZTIN3zmq6xsub_tE
           C .rdata$_ZTIN3zmq7dgram_tE
           C .rdata$_ZTIN3zmq7radio_tE
           C .rdata$_ZTIN3zmq7ypipe_tINS_5msg_tELi256EEE
          18 .rdata$_ZTIN3zmq7ypipe_tINS_9command_tELi16EEE
           C .rdata$_ZTIN3zmq8client_tE
          18 .rdata$_ZTIN3zmq8dealer_tE
           C .rdata$_ZTIN3zmq8gather_tE
          28 .rdata$_ZTIN3zmq8i_engineE
         108 .rdata$_ZTIN3zmq8object_tE
          20 .rdata$_ZTIN3zmq8reaper_tE
          18 .rdata$_ZTIN3zmq8router_tE
           C .rdata$_ZTIN3zmq8select_tE
           C .rdata$_ZTIN3zmq8server_tE
           C .rdata$_ZTIN3zmq8stream_tE
          20 .rdata$_ZTIN3zmq9i_decoderE
          20 .rdata$_ZTIN3zmq9i_encoderE
          10 .rdata$_ZTIN3zmq9i_mailboxE
           C .rdata$_ZTIN3zmq9mailbox_tE
           C .rdata$_ZTIN3zmq9scatter_tE
           8 .rdata$_ZTISt11_Mutex_baseILN9__gnu_cxx12_Lock_policyE2EE
           C .rdata$_ZTISt16_Sp_counted_baseILN9__gnu_cxx12_Lock_policyE2EE
           8 .rdata$_ZTISt19_Sp_make_shared_tag
           C .rdata$_ZTISt23_Sp_counted_ptr_inplaceISt5mutexSaIS0_ELN9__gnu_cxx12_Lock_policyE2EE
          18 .rdata$_ZTISt9bad_alloc
          10 .rdata$_ZTISt9exception
          20 .rdata$_ZTSN10__cxxabiv115__forced_unwindE
         154 .rdata$_ZTSN3zmq11io_object_tE
          14 .rdata$_ZTSN3zmq11io_thread_tE
          B4 .rdata$_ZTSN3zmq11mechanism_tE
          14 .rdata$_ZTSN3zmq11ws_engine_tE
         230 .rdata$_ZTSN3zmq12array_item_tILi0EEE
          1C .rdata$_ZTSN3zmq12array_item_tILi1EEE
          1C .rdata$_ZTSN3zmq12array_item_tILi2EEE
          1C .rdata$_ZTSN3zmq12array_item_tILi3EEE
          18 .rdata$_ZTSN3zmq12raw_engine_tE
          18 .rdata$_ZTSN3zmq12udp_engine_tE
          18 .rdata$_ZTSN3zmq12v1_decoder_tE
          18 .rdata$_ZTSN3zmq12v1_encoder_tE
          18 .rdata$_ZTSN3zmq12v2_decoder_tE
          18 .rdata$_ZTSN3zmq12v2_encoder_tE
          18 .rdata$_ZTSN3zmq12ws_decoder_tE
          18 .rdata$_ZTSN3zmq12ws_encoder_tE
          40 .rdata$_ZTSN3zmq12ypipe_base_tINS_5msg_tEEE
          80 .rdata$_ZTSN3zmq12ypipe_base_tINS_9command_tEEE
          60 .rdata$_ZTSN3zmq12zap_client_tE
         1F8 .rdata$_ZTSN3zmq13i_pipe_eventsE
         360 .rdata$_ZTSN3zmq13i_poll_eventsE
          18 .rdata$_ZTSN3zmq13ip_resolver_tE
          30 .rdata$_ZTSN3zmq13poller_base_tE
          18 .rdata$_ZTSN3zmq13raw_decoder_tE
          18 .rdata$_ZTSN3zmq13raw_encoder_tE
          18 .rdata$_ZTSN3zmq13req_session_tE
         1E0 .rdata$_ZTSN3zmq13socket_base_tE
          18 .rdata$_ZTSN3zmq13udp_address_tE
          18 .rdata$_ZTSN3zmq13ws_listener_tE
          18 .rdata$_ZTSN3zmq13zmtp_engine_tE
          18 .rdata$_ZTSN3zmq14curve_client_tE
          18 .rdata$_ZTSN3zmq14curve_server_tE
          60 .rdata$_ZTSN3zmq14decoder_base_tINS_12v1_decoder_tENS_18c_single_allocatorEEE
          60 .rdata$_ZTSN3zmq14decoder_base_tINS_12v2_decoder_tENS_31shared_message_memory_allocatorEEE
          60 .rdata$_ZTSN3zmq14decoder_base_tINS_12ws_decoder_tENS_31shared_message_memory_allocatorEEE
          18 .rdata$_ZTSN3zmq14dish_session_tE
          40 .rdata$_ZTSN3zmq14encoder_base_tINS_12v1_encoder_tEEE
          40 .rdata$_ZTSN3zmq14encoder_base_tINS_12v2_encoder_tEEE
          40 .rdata$_ZTSN3zmq14encoder_base_tINS_12ws_encoder_tEEE
          40 .rdata$_ZTSN3zmq14encoder_base_tINS_13raw_encoder_tEEE
          18 .rdata$_ZTSN3zmq14mailbox_safe_tE
          18 .rdata$_ZTSN3zmq14plain_client_tE
          18 .rdata$_ZTSN3zmq14plain_server_tE
          60 .rdata$_ZTSN3zmq14session_base_tE
          18 .rdata$_ZTSN3zmq14tcp_listener_tE
          18 .rdata$_ZTSN3zmq14ws_connecter_tE
          18 .rdata$_ZTSN3zmq15radio_session_tE
          18 .rdata$_ZTSN3zmq15tcp_connecter_tE
          E0 .rdata$_ZTSN3zmq16mechanism_base_tE
          1C .rdata$_ZTSN3zmq16null_mechanism_tE
          40 .rdata$_ZTSN3zmq16ypipe_conflate_tINS_5msg_tEEE
          1C .rdata$_ZTSN3zmq17socks_connecter_tE
          80 .rdata$_ZTSN3zmq20stream_engine_base_tE
          40 .rdata$_ZTSN3zmq20worker_poller_base_tE
          80 .rdata$_ZTSN3zmq21routing_socket_base_tE
          60 .rdata$_ZTSN3zmq22curve_mechanism_base_tE
          60 .rdata$_ZTSN3zmq22stream_listener_base_tE
          80 .rdata$_ZTSN3zmq23stream_connecter_base_tE
          C0 .rdata$_ZTSN3zmq29zap_client_common_handshake_tE
         1D0 .rdata$_ZTSN3zmq5own_tE
          10 .rdata$_ZTSN3zmq5pub_tE
          10 .rdata$_ZTSN3zmq5rep_tE
          10 .rdata$_ZTSN3zmq5req_tE
          10 .rdata$_ZTSN3zmq5sub_tE
          10 .rdata$_ZTSN3zmq6dish_tE
          10 .rdata$_ZTSN3zmq6pair_tE
          10 .rdata$_ZTSN3zmq6pipe_tE
          10 .rdata$_ZTSN3zmq6pull_tE
          10 .rdata$_ZTSN3zmq6push_tE
          20 .rdata$_ZTSN3zmq6xpub_tE
          20 .rdata$_ZTSN3zmq6xsub_tE
          10 .rdata$_ZTSN3zmq7dgram_tE
          10 .rdata$_ZTSN3zmq7radio_tE
          40 .rdata$_ZTSN3zmq7ypipe_tINS_5msg_tELi256EEE
          80 .rdata$_ZTSN3zmq7ypipe_tINS_9command_tELi16EEE
          10 .rdata$_ZTSN3zmq8client_tE
          20 .rdata$_ZTSN3zmq8dealer_tE
          10 .rdata$_ZTSN3zmq8gather_tE
          50 .rdata$_ZTSN3zmq8i_engineE
         210 .rdata$_ZTSN3zmq8object_tE
          10 .rdata$_ZTSN3zmq8reaper_tE
          20 .rdata$_ZTSN3zmq8router_tE
          10 .rdata$_ZTSN3zmq8select_tE
          10 .rdata$_ZTSN3zmq8server_tE
          10 .rdata$_ZTSN3zmq8stream_tE
          50 .rdata$_ZTSN3zmq9i_decoderE
          50 .rdata$_ZTSN3zmq9i_encoderE
          28 .rdata$_ZTSN3zmq9i_mailboxE
          14 .rdata$_ZTSN3zmq9mailbox_tE
          14 .rdata$_ZTSN3zmq9scatter_tE
          40 .rdata$_ZTSSt11_Mutex_baseILN9__gnu_cxx12_Lock_policyE2EE
          40 .rdata$_ZTSSt16_Sp_counted_baseILN9__gnu_cxx12_Lock_policyE2EE
          18 .rdata$_ZTSSt19_Sp_make_shared_tag
          60 .rdata$_ZTSSt23_Sp_counted_ptr_inplaceISt5mutexSaIS0_ELN9__gnu_cxx12_Lock_policyE2EE
          20 .rdata$_ZTSSt9bad_alloc
          20 .rdata$_ZTSSt9exception
           8 .rdata$_ZTTN3zmq12zap_client_tE
          10 .rdata$_ZTTN3zmq14curve_client_tE
          24 .rdata$_ZTTN3zmq14curve_server_tE
          18 .rdata$_ZTTN3zmq14plain_server_tE
          10 .rdata$_ZTTN3zmq16null_mechanism_tE
           8 .rdata$_ZTTN3zmq22curve_mechanism_base_tE
          10 .rdata$_ZTTN3zmq29zap_client_common_handshake_tE
          1C .rdata$_ZTVN3zmq11io_object_tE
          88 .rdata$_ZTVN3zmq11io_thread_tE
          2C .rdata$_ZTVN3zmq11mechanism_tE
          80 .rdata$_ZTVN3zmq11ws_engine_tE
          10 .rdata$_ZTVN3zmq12array_item_tILi0EEE
          10 .rdata$_ZTVN3zmq12array_item_tILi1EEE
          10 .rdata$_ZTVN3zmq12array_item_tILi2EEE
          10 .rdata$_ZTVN3zmq12array_item_tILi3EEE
          80 .rdata$_ZTVN3zmq12raw_engine_tE
          5C .rdata$_ZTVN3zmq12udp_engine_tE
          20 .rdata$_ZTVN3zmq12v1_decoder_tE
          18 .rdata$_ZTVN3zmq12v1_encoder_tE
          20 .rdata$_ZTVN3zmq12v2_decoder_tE
          18 .rdata$_ZTVN3zmq12v2_encoder_tE
          20 .rdata$_ZTVN3zmq12ws_decoder_tE
          18 .rdata$_ZTVN3zmq12ws_encoder_tE
          28 .rdata$_ZTVN3zmq12ypipe_base_tINS_5msg_tEEE
          50 .rdata$_ZTVN3zmq12ypipe_base_tINS_9command_tEEE
          68 .rdata$_ZTVN3zmq12zap_client_tE
          40 .rdata$_ZTVN3zmq13i_pipe_eventsE
          70 .rdata$_ZTVN3zmq13i_poll_eventsE
          14 .rdata$_ZTVN3zmq13ip_resolver_tE
          10 .rdata$_ZTVN3zmq13poller_base_tE
          20 .rdata$_ZTVN3zmq13raw_decoder_tE
          18 .rdata$_ZTVN3zmq13raw_encoder_tE
          C0 .rdata$_ZTVN3zmq13req_session_tE
         100 .rdata$_ZTVN3zmq13socket_base_tE
          14 .rdata$_ZTVN3zmq13udp_address_tE
          90 .rdata$_ZTVN3zmq13ws_listener_tE
          80 .rdata$_ZTVN3zmq13zmtp_engine_tE
          74 .rdata$_ZTVN3zmq14curve_client_tE
          9C .rdata$_ZTVN3zmq14curve_server_tE
          20 .rdata$_ZTVN3zmq14decoder_base_tINS_12v1_decoder_tENS_18c_single_allocatorEEE
          20 .rdata$_ZTVN3zmq14decoder_base_tINS_12v2_decoder_tENS_31shared_message_memory_allocatorEEE
          20 .rdata$_ZTVN3zmq14decoder_base_tINS_12ws_decoder_tENS_31shared_message_memory_allocatorEEE
          C0 .rdata$_ZTVN3zmq14dish_session_tE
          18 .rdata$_ZTVN3zmq14encoder_base_tINS_12v1_encoder_tEEE
          18 .rdata$_ZTVN3zmq14encoder_base_tINS_12v2_encoder_tEEE
          18 .rdata$_ZTVN3zmq14encoder_base_tINS_12ws_encoder_tEEE
          18 .rdata$_ZTVN3zmq14encoder_base_tINS_13raw_encoder_tEEE
          18 .rdata$_ZTVN3zmq14mailbox_safe_tE
          2C .rdata$_ZTVN3zmq14plain_client_tE
          78 .rdata$_ZTVN3zmq14plain_server_tE
          C0 .rdata$_ZTVN3zmq14session_base_tE
          90 .rdata$_ZTVN3zmq14tcp_listener_tE
          94 .rdata$_ZTVN3zmq14ws_connecter_tE
          C0 .rdata$_ZTVN3zmq15radio_session_tE
          94 .rdata$_ZTVN3zmq15tcp_connecter_tE
         134 .rdata$_ZTVN3zmq16mechanism_base_tE
          78 .rdata$_ZTVN3zmq16null_mechanism_tE
          28 .rdata$_ZTVN3zmq16ypipe_conflate_tINS_5msg_tEEE
          94 .rdata$_ZTVN3zmq17socks_connecter_tE
          80 .rdata$_ZTVN3zmq20stream_engine_base_tE
          28 .rdata$_ZTVN3zmq20worker_poller_base_tE
         100 .rdata$_ZTVN3zmq21routing_socket_base_tE
          68 .rdata$_ZTVN3zmq22curve_mechanism_base_tE
          8C .rdata$_ZTVN3zmq22stream_listener_base_tE
          90 .rdata$_ZTVN3zmq23stream_connecter_base_tE
          70 .rdata$_ZTVN3zmq29zap_client_common_handshake_tE
          64 .rdata$_ZTVN3zmq5own_tE
         100 .rdata$_ZTVN3zmq5pub_tE
         100 .rdata$_ZTVN3zmq5rep_tE
         100 .rdata$_ZTVN3zmq5req_tE
         100 .rdata$_ZTVN3zmq5sub_tE
         100 .rdata$_ZTVN3zmq6dish_tE
         100 .rdata$_ZTVN3zmq6pair_tE
          90 .rdata$_ZTVN3zmq6pipe_tE
         100 .rdata$_ZTVN3zmq6pull_tE
         100 .rdata$_ZTVN3zmq6push_tE
         100 .rdata$_ZTVN3zmq6xpub_tE
         100 .rdata$_ZTVN3zmq6xsub_tE
         100 .rdata$_ZTVN3zmq7dgram_tE
         100 .rdata$_ZTVN3zmq7radio_tE
          28 .rdata$_ZTVN3zmq7ypipe_tINS_5msg_tELi256EEE
          50 .rdata$_ZTVN3zmq7ypipe_tINS_9command_tELi16EEE
         100 .rdata$_ZTVN3zmq8client_tE
         100 .rdata$_ZTVN3zmq8dealer_tE
         100 .rdata$_ZTVN3zmq8gather_tE
          50 .rdata$_ZTVN3zmq8i_engineE
          60 .rdata$_ZTVN3zmq8object_tE
          88 .rdata$_ZTVN3zmq8reaper_tE
         100 .rdata$_ZTVN3zmq8router_tE
          14 .rdata$_ZTVN3zmq8select_tE
         100 .rdata$_ZTVN3zmq8server_tE
         100 .rdata$_ZTVN3zmq8stream_tE
          80 .rdata$_ZTVN3zmq9i_decoderE
          60 .rdata$_ZTVN3zmq9i_encoderE
          30 .rdata$_ZTVN3zmq9i_mailboxE
          18 .rdata$_ZTVN3zmq9mailbox_tE
         100 .rdata$_ZTVN3zmq9scatter_tE
          1C .rdata$_ZTVSt16_Sp_counted_baseILN9__gnu_cxx12_Lock_policyE2EE
          1C .rdata$_ZTVSt23_Sp_counted_ptr_inplaceISt5mutexSaIS0_ELN9__gnu_cxx12_Lock_policyE2EE
        1AC0 .rdata$zzz
         368 .rsrc
       54F78 .text
          14 .text$IN6_IS_ADDR_MULTICAST
          24 .text$_Z13do_setsockoptIiEiPKvjPT_
          2C .text$_Z13do_setsockoptIxEiPKvjPT_
          2C .text$_Z13do_setsockoptIyEiPKvjPT_
         500 .text$_Z15zmq_poller_pollP14zmq_pollitem_til
          34 .text$_ZN3zmq10endpoint_tC1EOS0_
          34 .text$_ZN3zmq10endpoint_tC1ERKS0_
          1C .text$_ZN3zmq10endpoint_tC1Ev
          54 .text$_ZN3zmq10endpoint_tD1Ev
          44 .text$_ZN3zmq10get_uint32EPKh
         828 .text$_ZN3zmq10get_uint64EPKh
          38 .text$_ZN3zmq10metadata_tD1Ev
          F0 .text$_ZN3zmq10put_uint32EPhj
         4D0 .text$_ZN3zmq10put_uint64EPhy
          90 .text$_ZN3zmq11mechanism_t17zap_msg_availableEv
          14 .text$_ZN3zmq11mechanism_t18get_zap_propertiesB5cxx11Ev
          14 .text$_ZN3zmq11mechanism_t19get_zmtp_propertiesB5cxx11Ev
          A0 .text$_ZN3zmq11mechanism_t6decodeEPNS_5msg_tE
          A0 .text$_ZN3zmq11mechanism_t6encodeEPNS_5msg_tE
          14 .text$_ZN3zmq12array_item_tILi0EE15get_array_indexEv
          18 .text$_ZN3zmq12array_item_tILi0EE15set_array_indexEi
          20 .text$_ZN3zmq12array_item_tILi0EEC2Ev
          20 .text$_ZN3zmq12array_item_tILi0EED0Ev
          2C .text$_ZN3zmq12array_item_tILi0EED1Ev
          2C .text$_ZN3zmq12array_item_tILi0EED2Ev
          14 .text$_ZN3zmq12array_item_tILi1EE15get_array_indexEv
          18 .text$_ZN3zmq12array_item_tILi1EE15set_array_indexEi
          20 .text$_ZN3zmq12array_item_tILi1EEC2Ev
          20 .text$_ZN3zmq12array_item_tILi1EED0Ev
          2C .text$_ZN3zmq12array_item_tILi1EED1Ev
          2C .text$_ZN3zmq12array_item_tILi1EED2Ev
          28 .text$_ZN3zmq12array_item_tILi2EE15get_array_indexEv
          30 .text$_ZN3zmq12array_item_tILi2EE15set_array_indexEi
          20 .text$_ZN3zmq12array_item_tILi2EEC2Ev
          20 .text$_ZN3zmq12array_item_tILi2EED0Ev
          2C .text$_ZN3zmq12array_item_tILi2EED1Ev
          2C .text$_ZN3zmq12array_item_tILi2EED2Ev
          14 .text$_ZN3zmq12array_item_tILi3EE15get_array_indexEv
          18 .text$_ZN3zmq12array_item_tILi3EE15set_array_indexEi
          20 .text$_ZN3zmq12array_item_tILi3EEC2Ev
          20 .text$_ZN3zmq12array_item_tILi3EED0Ev
          2C .text$_ZN3zmq12array_item_tILi3EED1Ev
          2C .text$_ZN3zmq12array_item_tILi3EED2Ev
          34 .text$_ZN3zmq12atomic_ptr_tINS_5msg_tEE3casEPS1_S3_
          24 .text$_ZN3zmq12atomic_ptr_tINS_5msg_tEE3setEPS1_
          2C .text$_ZN3zmq12atomic_ptr_tINS_5msg_tEEC1Ev
          28 .text$_ZN3zmq12atomic_ptr_tINS_8yqueue_tINS_5msg_tELi256EE7chunk_tEE4xchgEPS4_
          2C .text$_ZN3zmq12atomic_ptr_tINS_8yqueue_tINS_5msg_tELi256EE7chunk_tEEC1Ev
          50 .text$_ZN3zmq12atomic_ptr_tINS_8yqueue_tINS_9command_tELi16EE7chunk_tEE4xchgEPS4_
          58 .text$_ZN3zmq12atomic_ptr_tINS_8yqueue_tINS_9command_tELi16EE7chunk_tEEC1Ev
          68 .text$_ZN3zmq12atomic_ptr_tINS_9command_tEE3casEPS1_S3_
          48 .text$_ZN3zmq12atomic_ptr_tINS_9command_tEE3setEPS1_
          58 .text$_ZN3zmq12atomic_ptr_tINS_9command_tEEC1Ev
          30 .text$_ZN3zmq12thread_ctx_tD2Ev
           C .text$_ZN3zmq12udp_engine_t17zap_msg_availableEv
          14 .text$_ZN3zmq12v1_decoder_t3msgEv
          14 .text$_ZN3zmq12v2_decoder_t3msgEv
          8C .text$_ZN3zmq12ws_address_tC1ERKS0_
          A0 .text$_ZN3zmq12ws_address_tD1Ev
          50 .text$_ZN3zmq12ws_address_tD2Ev
          14 .text$_ZN3zmq12ws_decoder_t3msgEv
          18 .text$_ZN3zmq12ypipe_base_tINS_5msg_tEEC2Ev
          2C .text$_ZN3zmq12ypipe_base_tINS_5msg_tEED2Ev
          30 .text$_ZN3zmq12ypipe_base_tINS_9command_tEEC2Ev
          58 .text$_ZN3zmq12ypipe_base_tINS_9command_tEED2Ev
         15C .text$_ZN3zmq12zap_client_tD2Ev
          2C .text$_ZN3zmq13do_getsockoptIiEEiPvPjT_
          2C .text$_ZN3zmq13do_getsockoptIjEEiPvPjT_
         1A4 .text$_ZN3zmq13fast_vector_tIjLj17EEC1Ej
          78 .text$_ZN3zmq13fast_vector_tIjLj17EED1Ev
          54 .text$_ZN3zmq13fast_vector_tIjLj17EEixEj
          30 .text$_ZN3zmq13i_pipe_eventsC2Ev
          58 .text$_ZN3zmq13i_pipe_eventsD2Ev
          60 .text$_ZN3zmq13i_poll_eventsC2Ev
          B0 .text$_ZN3zmq13i_poll_eventsD2Ev
          10 .text$_ZN3zmq13raw_decoder_t13resize_bufferEj
          14 .text$_ZN3zmq13raw_decoder_t3msgEv
          90 .text$_ZN3zmq13scoped_lock_tC1ERNS_7mutex_tE
          60 .text$_ZN3zmq13scoped_lock_tD1Ev
          18 .text$_ZN3zmq13socket_base_t9inprocs_tC1Ev
          18 .text$_ZN3zmq13socket_base_t9inprocs_tD1Ev
          30 .text$_ZN3zmq13wss_address_tD1Ev
         100 .text$_ZN3zmq14atomic_value_t5storeEi
          F0 .text$_ZN3zmq14atomic_value_tC1ERKS0_
          24 .text$_ZN3zmq14atomic_value_tC1Ei
          7C .text$_ZN3zmq14decoder_base_tINS_12v1_decoder_tENS_18c_single_allocatorEE10get_bufferEPPhPj
          24 .text$_ZN3zmq14decoder_base_tINS_12v1_decoder_tENS_18c_single_allocatorEE13resize_bufferEj
         23C .text$_ZN3zmq14decoder_base_tINS_12v1_decoder_tENS_18c_single_allocatorEE6decodeEPKhjRj
          30 .text$_ZN3zmq14decoder_base_tINS_12v1_decoder_tENS_18c_single_allocatorEE9next_stepEPvjMS1_FiPKhE
          90 .text$_ZN3zmq14decoder_base_tINS_12v1_decoder_tENS_18c_single_allocatorEEC2Ej
          50 .text$_ZN3zmq14decoder_base_tINS_12v1_decoder_tENS_18c_single_allocatorEED2Ev
          7C .text$_ZN3zmq14decoder_base_tINS_12v2_decoder_tENS_31shared_message_memory_allocatorEE10get_bufferEPPhPj
          14 .text$_ZN3zmq14decoder_base_tINS_12v2_decoder_tENS_31shared_message_memory_allocatorEE13get_allocatorEv
          24 .text$_ZN3zmq14decoder_base_tINS_12v2_decoder_tENS_31shared_message_memory_allocatorEE13resize_bufferEj
         23C .text$_ZN3zmq14decoder_base_tINS_12v2_decoder_tENS_31shared_message_memory_allocatorEE6decodeEPKhjRj
          30 .text$_ZN3zmq14decoder_base_tINS_12v2_decoder_tENS_31shared_message_memory_allocatorEE9next_stepEPvjMS1_FiPKhE
          A4 .text$_ZN3zmq14decoder_base_tINS_12v2_decoder_tENS_31shared_message_memory_allocatorEEC2Ej
          50 .text$_ZN3zmq14decoder_base_tINS_12v2_decoder_tENS_31shared_message_memory_allocatorEED2Ev
          7C .text$_ZN3zmq14decoder_base_tINS_12ws_decoder_tENS_31shared_message_memory_allocatorEE10get_bufferEPPhPj
          14 .text$_ZN3zmq14decoder_base_tINS_12ws_decoder_tENS_31shared_message_memory_allocatorEE13get_allocatorEv
          24 .text$_ZN3zmq14decoder_base_tINS_12ws_decoder_tENS_31shared_message_memory_allocatorEE13resize_bufferEj
         23C .text$_ZN3zmq14decoder_base_tINS_12ws_decoder_tENS_31shared_message_memory_allocatorEE6decodeEPKhjRj
          30 .text$_ZN3zmq14decoder_base_tINS_12ws_decoder_tENS_31shared_message_memory_allocatorEE9next_stepEPvjMS1_FiPKhE
          A4 .text$_ZN3zmq14decoder_base_tINS_12ws_decoder_tENS_31shared_message_memory_allocatorEEC2Ej
          50 .text$_ZN3zmq14decoder_base_tINS_12ws_decoder_tENS_31shared_message_memory_allocatorEED2Ev
          14 .text$_ZN3zmq14encoder_base_tINS_12v1_encoder_tEE11in_progressEv
         298 .text$_ZN3zmq14encoder_base_tINS_12v1_encoder_tEE6encodeEPPhj
          C0 .text$_ZN3zmq14encoder_base_tINS_12v1_encoder_tEE8load_msgEPNS_5msg_tE
          40 .text$_ZN3zmq14encoder_base_tINS_12v1_encoder_tEE9next_stepEPvjMS1_FvvEb
          EC .text$_ZN3zmq14encoder_base_tINS_12v1_encoder_tEEC2Ej
          20 .text$_ZN3zmq14encoder_base_tINS_12v1_encoder_tEED0Ev
          44 .text$_ZN3zmq14encoder_base_tINS_12v1_encoder_tEED1Ev
          44 .text$_ZN3zmq14encoder_base_tINS_12v1_encoder_tEED2Ev
          14 .text$_ZN3zmq14encoder_base_tINS_12v2_encoder_tEE11in_progressEv
         298 .text$_ZN3zmq14encoder_base_tINS_12v2_encoder_tEE6encodeEPPhj
          C0 .text$_ZN3zmq14encoder_base_tINS_12v2_encoder_tEE8load_msgEPNS_5msg_tE
          40 .text$_ZN3zmq14encoder_base_tINS_12v2_encoder_tEE9next_stepEPvjMS1_FvvEb
          EC .text$_ZN3zmq14encoder_base_tINS_12v2_encoder_tEEC2Ej
          20 .text$_ZN3zmq14encoder_base_tINS_12v2_encoder_tEED0Ev
          44 .text$_ZN3zmq14encoder_base_tINS_12v2_encoder_tEED1Ev
          44 .text$_ZN3zmq14encoder_base_tINS_12v2_encoder_tEED2Ev
          14 .text$_ZN3zmq14encoder_base_tINS_12ws_encoder_tEE11in_progressEv
         298 .text$_ZN3zmq14encoder_base_tINS_12ws_encoder_tEE6encodeEPPhj
          C0 .text$_ZN3zmq14encoder_base_tINS_12ws_encoder_tEE8load_msgEPNS_5msg_tE
          40 .text$_ZN3zmq14encoder_base_tINS_12ws_encoder_tEE9next_stepEPvjMS1_FvvEb
          EC .text$_ZN3zmq14encoder_base_tINS_12ws_encoder_tEEC2Ej
          20 .text$_ZN3zmq14encoder_base_tINS_12ws_encoder_tEED0Ev
          44 .text$_ZN3zmq14encoder_base_tINS_12ws_encoder_tEED1Ev
          44 .text$_ZN3zmq14encoder_base_tINS_12ws_encoder_tEED2Ev
          14 .text$_ZN3zmq14encoder_base_tINS_13raw_encoder_tEE11in_progressEv
         298 .text$_ZN3zmq14encoder_base_tINS_13raw_encoder_tEE6encodeEPPhj
          C0 .text$_ZN3zmq14encoder_base_tINS_13raw_encoder_tEE8load_msgEPNS_5msg_tE
          40 .text$_ZN3zmq14encoder_base_tINS_13raw_encoder_tEE9next_stepEPvjMS1_FvvEb
          EC .text$_ZN3zmq14encoder_base_tINS_13raw_encoder_tEEC2Ej
          20 .text$_ZN3zmq14encoder_base_tINS_13raw_encoder_tEED0Ev
          44 .text$_ZN3zmq14encoder_base_tINS_13raw_encoder_tEED1Ev
          44 .text$_ZN3zmq14encoder_base_tINS_13raw_encoder_tEED2Ev
          20 .text$_ZN3zmq14tcp_listener_tD0Ev
          44 .text$_ZN3zmq14tcp_listener_tD1Ev
         6EC .text$_ZN3zmq15generic_mtrie_tINS_6pipe_tEE10add_helperEPKhjPS1_
         784 .text$_ZN3zmq15generic_mtrie_tINS_6pipe_tEE27rm_helper_multiple_subnodesIPNS_6xpub_tEEEvPPhjjPFvPKhjT_ESA_bPS1_
         784 .text$_ZN3zmq15generic_mtrie_tINS_6pipe_tEE27rm_helper_multiple_subnodesIPvEEvPPhjjPFvPKhjT_ES9_bPS1_
          30 .text$_ZN3zmq15generic_mtrie_tINS_6pipe_tEE2rmEPKhjPS1_
          68 .text$_ZN3zmq15generic_mtrie_tINS_6pipe_tEE2rmIPNS_6xpub_tEEEvPS1_PFvPKhjT_ES9_b
          68 .text$_ZN3zmq15generic_mtrie_tINS_6pipe_tEE2rmIPvEEvPS1_PFvPKhjT_ES8_b
          30 .text$_ZN3zmq15generic_mtrie_tINS_6pipe_tEE3addEPKhjPS1_
         16C .text$_ZN3zmq15generic_mtrie_tINS_6pipe_tEE5matchIPNS_6xpub_tEEEvPKhjPFvPS1_T_ES9_
         780 .text$_ZN3zmq15generic_mtrie_tINS_6pipe_tEE9rm_helperEPKhjPS1_
         2B4 .text$_ZN3zmq15generic_mtrie_tINS_6pipe_tEE9rm_helperIPNS_6xpub_tEEEvPS1_PPhjjPFvPKhjT_ESB_b
         2B4 .text$_ZN3zmq15generic_mtrie_tINS_6pipe_tEE9rm_helperIPvEEvPS1_PPhjjPFvPKhjT_ESA_b
          30 .text$_ZN3zmq15generic_mtrie_tINS_6pipe_tEEC1Ev
          30 .text$_ZN3zmq15generic_mtrie_tINS_6pipe_tEEC2Ev
         134 .text$_ZN3zmq15generic_mtrie_tINS_6pipe_tEED1Ev
         134 .text$_ZN3zmq15generic_mtrie_tINS_6pipe_tEED2Ev
         1C0 .text$_ZN3zmq15get_socket_nameINS_12ws_address_tEEENSt7__cxx1112basic_stringIcSt11char_traitsIcESaIcEEEjNS_12socket_end_tE
         258 .text$_ZN3zmq15get_socket_nameINS_13tcp_address_tEEENSt7__cxx1112basic_stringIcSt11char_traitsIcESaIcEEEjNS_12socket_end_tE
         1C0 .text$_ZN3zmq15get_socket_nameINS_13wss_address_tEEENSt7__cxx1112basic_stringIcSt11char_traitsIcESaIcEEEjNS_12socket_end_tE
          1C .text$_ZN3zmq15socks_request_tD1Ev
         150 .text$_ZN3zmq16atomic_counter_t3addEj
          6C .text$_ZN3zmq16atomic_counter_t3setEj
         118 .text$_ZN3zmq16atomic_counter_t3subEj
          FC .text$_ZN3zmq16atomic_counter_tC1Ej
         1D4 .text$_ZN3zmq16close_and_returnEPNS_5msg_tEi
         138 .text$_ZN3zmq16mechanism_base_tD2Ev
          1C .text$_ZN3zmq16socks_response_tD1Ev
          34 .text$_ZN3zmq16ypipe_conflate_tINS_5msg_tEE10check_readEv
          44 .text$_ZN3zmq16ypipe_conflate_tINS_5msg_tEE4readEPS1_
          18 .text$_ZN3zmq16ypipe_conflate_tINS_5msg_tEE5flushEv
          24 .text$_ZN3zmq16ypipe_conflate_tINS_5msg_tEE5probeEPFbRKS1_E
          2C .text$_ZN3zmq16ypipe_conflate_tINS_5msg_tEE5writeERKS1_b
          14 .text$_ZN3zmq16ypipe_conflate_tINS_5msg_tEE7unwriteEPS1_
          54 .text$_ZN3zmq16ypipe_conflate_tINS_5msg_tEEC1Ev
          20 .text$_ZN3zmq16ypipe_conflate_tINS_5msg_tEED0Ev
          40 .text$_ZN3zmq16ypipe_conflate_tINS_5msg_tEED1Ev
           C .text$_ZN3zmq18c_single_allocator10deallocateEv
          18 .text$_ZN3zmq18c_single_allocator6resizeEj
          14 .text$_ZN3zmq18c_single_allocator8allocateEv
          84 .text$_ZN3zmq18c_single_allocatorC1Ej
          1C .text$_ZN3zmq18c_single_allocatorD1Ev
          60 .text$_ZN3zmq18optimized_fd_set_t3getEv
          6C .text$_ZN3zmq18optimized_fd_set_tC1Ej
          48 .text$_ZN3zmq18optimized_fd_set_tD1Ev
          30 .text$_ZN3zmq18secure_allocator_tIhEC1Ev
          30 .text$_ZN3zmq18secure_allocator_tIhED1Ev
         228 .text$_ZN3zmq19endpoint_uri_pair_tC1ERKNSt7__cxx1112basic_stringIcSt11char_traitsIcESaIcEEES8_NS_15endpoint_type_tE
         190 .text$_ZN3zmq19endpoint_uri_pair_tC1ERKS0_
          90 .text$_ZN3zmq19endpoint_uri_pair_tC1Ev
         1B0 .text$_ZN3zmq19endpoint_uri_pair_tD1Ev
          48 .text$_ZN3zmq19endpoint_uri_pair_taSEOS0_
          48 .text$_ZN3zmq19valid_pollset_bytesERK6fd_set
          80 .text$_ZN3zmq20condition_variable_t4waitEPNS_7mutex_tEi
          18 .text$_ZN3zmq20condition_variable_t9broadcastEv
          18 .text$_ZN3zmq20condition_variable_tC1Ev
          18 .text$_ZN3zmq20condition_variable_tD1Ev
         1F8 .text$_ZN3zmq20curve_client_tools_t13produce_helloEPvPKhyS3_S3_
          60 .text$_ZN3zmq20curve_client_tools_t15process_welcomeEPKhjPh
         28C .text$_ZN3zmq20curve_client_tools_t15process_welcomeEPKhjS2_S2_PhS3_S3_
         59C .text$_ZN3zmq20curve_client_tools_t16produce_initiateEPvjyPKhS3_S3_S3_S3_S3_S3_S3_j
          A8 .text$_ZN3zmq20curve_client_tools_t16produce_initiateEPvjyPKhj
          38 .text$_ZN3zmq20curve_client_tools_t20is_handshake_commandILj7EEEbPKhjRAT__Kc
          38 .text$_ZN3zmq20curve_client_tools_t20is_handshake_commandILj9EEEbPKhjRAT__Kc
          24 .text$_ZN3zmq20curve_client_tools_t26is_handshake_command_errorEPKhj
          24 .text$_ZN3zmq20curve_client_tools_t26is_handshake_command_readyEPKhj
          24 .text$_ZN3zmq20curve_client_tools_t28is_handshake_command_welcomeEPKhj
          DC .text$_ZN3zmq20curve_client_tools_tC1ERA32_KhS3_S3_
          A0 .text$_ZN3zmq20stream_engine_base_t10set_pollinEv
          A0 .text$_ZN3zmq20stream_engine_base_t11set_polloutEv
           C .text$_ZN3zmq20stream_engine_base_t13plug_internalEv
          28 .text$_ZN3zmq20stream_engine_base_t13reset_polloutEv
          3C .text$_ZN3zmq20stream_engine_base_t20produce_ping_messageEPNS_5msg_tE
          3C .text$_ZN3zmq20stream_engine_base_t20produce_pong_messageEPNS_5msg_tE
          3C .text$_ZN3zmq20stream_engine_base_t23process_command_messageEPNS_5msg_tE
          3C .text$_ZN3zmq20stream_engine_base_t25process_heartbeat_messageEPNS_5msg_tE
          28 .text$_ZN3zmq20stream_engine_base_t6socketEv
          3C .text$_ZN3zmq20stream_engine_base_t7sessionEv
          10 .text$_ZN3zmq20stream_engine_base_t9handshakeEv
          40 .text$_ZN3zmq20worker_poller_base_tD2Ev
          9C .text$_ZN3zmq21routing_socket_base_t16any_of_out_pipesIPFbRKNS_6pipe_tEEEEbT_
          B8 .text$_ZN3zmq22curve_mechanism_base_tD2Ev
          2C .text$_ZN3zmq22scoped_optional_lock_tC1EPNS_7mutex_tE
          24 .text$_ZN3zmq22scoped_optional_lock_tD1Ev
          C0 .text$_ZN3zmq23resizable_fast_vector_tIjLj17EE6resizeEj
          34 .text$_ZN3zmq23resizable_fast_vector_tIjLj17EE7get_bufEv
          18 .text$_ZN3zmq23resizable_fast_vector_tIjLj17EEC1Ev
          2C .text$_ZN3zmq23resizable_fast_vector_tIjLj17EED1Ev
          24 .text$_ZN3zmq23resizable_fast_vector_tIjLj17EEixEj
          24 .text$_ZN3zmq26socks_basic_auth_request_tD1Ev
          20 .text$_ZN3zmq28resizable_optimized_fd_set_t3getEv
          24 .text$_ZN3zmq28resizable_optimized_fd_set_t6resizeEj
          18 .text$_ZN3zmq28resizable_optimized_fd_set_tC1Ev
          18 .text$_ZN3zmq28resizable_optimized_fd_set_tD1Ev
         138 .text$_ZN3zmq29get_effective_conflate_optionERKNS_9options_tE
          E0 .text$_ZN3zmq29zap_client_common_handshake_tD2Ev
          54 .text$_ZN3zmq31shared_message_memory_allocator15advance_contentEv
          3C .text$_ZN3zmq31shared_message_memory_allocator15provide_contentEv
          30 .text$_ZN3zmq31shared_message_memory_allocator6bufferEv
          30 .text$_ZN3zmq31shared_message_memory_allocator6resizeEj
          48 .text$_ZN3zmq5ctx_t20pending_connection_tC1ERKS1_
          18 .text$_ZN3zmq5ctx_t20pending_connection_tD1Ev
          B8 .text$_ZN3zmq6blob_t13set_deep_copyERKS0_
         204 .text$_ZN3zmq6blob_t3setEPKhj
          30 .text$_ZN3zmq6blob_t4dataEv
          E0 .text$_ZN3zmq6blob_t5clearEv
          E0 .text$_ZN3zmq6blob_tC1EOS0_
         140 .text$_ZN3zmq6blob_tC1EPKhj
          50 .text$_ZN3zmq6blob_tC1EPhjNS_15reference_tag_tE
          88 .text$_ZN3zmq6blob_tC1Ej
          A0 .text$_ZN3zmq6blob_tC1Ev
          D8 .text$_ZN3zmq6blob_tD1Ev
          18 .text$_ZN3zmq7array_tINS_13socket_base_tELi0EE4sizeEv
          18 .text$_ZN3zmq7array_tINS_13socket_base_tELi0EE5emptyEv
          3C .text$_ZN3zmq7array_tINS_13socket_base_tELi0EE5eraseEPS1_
          80 .text$_ZN3zmq7array_tINS_13socket_base_tELi0EE5eraseEj
          58 .text$_ZN3zmq7array_tINS_13socket_base_tELi0EE9push_backEPS1_
          18 .text$_ZN3zmq7array_tINS_13socket_base_tELi0EEC1Ev
          18 .text$_ZN3zmq7array_tINS_13socket_base_tELi0EED1Ev
          20 .text$_ZN3zmq7array_tINS_13socket_base_tELi0EEixEj
          18 .text$_ZN3zmq7array_tINS_6pipe_tELi1EE4sizeEv
          E8 .text$_ZN3zmq7array_tINS_6pipe_tELi1EE4swapEjj
          18 .text$_ZN3zmq7array_tINS_6pipe_tELi1EE5emptyEv
          3C .text$_ZN3zmq7array_tINS_6pipe_tELi1EE5eraseEPS1_
          80 .text$_ZN3zmq7array_tINS_6pipe_tELi1EE5eraseEj
          28 .text$_ZN3zmq7array_tINS_6pipe_tELi1EE5indexEPS1_
          58 .text$_ZN3zmq7array_tINS_6pipe_tELi1EE9push_backEPS1_
          18 .text$_ZN3zmq7array_tINS_6pipe_tELi1EEC1Ev
          18 .text$_ZN3zmq7array_tINS_6pipe_tELi1EED1Ev
          20 .text$_ZN3zmq7array_tINS_6pipe_tELi1EEixEj
          18 .text$_ZN3zmq7array_tINS_6pipe_tELi2EE4sizeEv
         1D0 .text$_ZN3zmq7array_tINS_6pipe_tELi2EE4swapEjj
          30 .text$_ZN3zmq7array_tINS_6pipe_tELi2EE5emptyEv
          78 .text$_ZN3zmq7array_tINS_6pipe_tELi2EE5eraseEPS1_
         100 .text$_ZN3zmq7array_tINS_6pipe_tELi2EE5eraseEj
          50 .text$_ZN3zmq7array_tINS_6pipe_tELi2EE5indexEPS1_
          B0 .text$_ZN3zmq7array_tINS_6pipe_tELi2EE9push_backEPS1_
          30 .text$_ZN3zmq7array_tINS_6pipe_tELi2EEC1Ev
          30 .text$_ZN3zmq7array_tINS_6pipe_tELi2EED1Ev
          40 .text$_ZN3zmq7array_tINS_6pipe_tELi2EEixEj
          18 .text$_ZN3zmq7array_tINS_6pipe_tELi3EE4sizeEv
          3C .text$_ZN3zmq7array_tINS_6pipe_tELi3EE5eraseEPS1_
          80 .text$_ZN3zmq7array_tINS_6pipe_tELi3EE5eraseEj
          58 .text$_ZN3zmq7array_tINS_6pipe_tELi3EE9push_backEPS1_
          18 .text$_ZN3zmq7array_tINS_6pipe_tELi3EEC1Ev
          18 .text$_ZN3zmq7array_tINS_6pipe_tELi3EED1Ev
          20 .text$_ZN3zmq7array_tINS_6pipe_tELi3EEixEj
          A8 .text$_ZN3zmq7mutex_t4lockEv
          A8 .text$_ZN3zmq7mutex_t6unlockEv
          20 .text$_ZN3zmq7mutex_t8try_lockEv
          8C .text$_ZN3zmq7mutex_tC1Ev
          8C .text$_ZN3zmq7mutex_tD1Ev
          B8 .text$_ZN3zmq7ypipe_tINS_5msg_tELi256EE10check_readEv
          B4 .text$_ZN3zmq7ypipe_tINS_5msg_tELi256EE4readEPS1_
          94 .text$_ZN3zmq7ypipe_tINS_5msg_tELi256EE5flushEv
          90 .text$_ZN3zmq7ypipe_tINS_5msg_tELi256EE5probeEPFbRKS1_E
          B4 .text$_ZN3zmq7ypipe_tINS_5msg_tELi256EE5writeERKS1_b
          BC .text$_ZN3zmq7ypipe_tINS_5msg_tELi256EE7unwriteEPS1_
          C4 .text$_ZN3zmq7ypipe_tINS_5msg_tELi256EEC1Ev
          20 .text$_ZN3zmq7ypipe_tINS_5msg_tELi256EED0Ev
          40 .text$_ZN3zmq7ypipe_tINS_5msg_tELi256EED1Ev
         170 .text$_ZN3zmq7ypipe_tINS_9command_tELi16EE10check_readEv
         168 .text$_ZN3zmq7ypipe_tINS_9command_tELi16EE4readEPS1_
         128 .text$_ZN3zmq7ypipe_tINS_9command_tELi16EE5flushEv
         120 .text$_ZN3zmq7ypipe_tINS_9command_tELi16EE5probeEPFbRKS1_E
         168 .text$_ZN3zmq7ypipe_tINS_9command_tELi16EE5writeERKS1_b
         178 .text$_ZN3zmq7ypipe_tINS_9command_tELi16EE7unwriteEPS1_
         188 .text$_ZN3zmq7ypipe_tINS_9command_tELi16EEC1Ev
          40 .text$_ZN3zmq7ypipe_tINS_9command_tELi16EED0Ev
          80 .text$_ZN3zmq7ypipe_tINS_9command_tELi16EED1Ev
          30 .text$_ZN3zmq8i_engineC2Ev
          58 .text$_ZN3zmq8i_engineD2Ev
          18 .text$_ZN3zmq8select_t14family_entry_tD1Ev
          D0 .text$_ZN3zmq8thread_tC1Ev
          38 .text$_ZN3zmq8thread_tD1Ev
          18 .text$_ZN3zmq8timers_t11match_by_idC1Ei
          18 .text$_ZN3zmq8yqueue_tINS_5msg_tELi256EE14allocate_chunkEv
          84 .text$_ZN3zmq8yqueue_tINS_5msg_tELi256EE3popEv
          1C .text$_ZN3zmq8yqueue_tINS_5msg_tELi256EE4backEv
         138 .text$_ZN3zmq8yqueue_tINS_5msg_tELi256EE4pushEv
          1C .text$_ZN3zmq8yqueue_tINS_5msg_tELi256EE5frontEv
          A0 .text$_ZN3zmq8yqueue_tINS_5msg_tELi256EE6unpushEv
          B4 .text$_ZN3zmq8yqueue_tINS_5msg_tELi256EEC1Ev
          74 .text$_ZN3zmq8yqueue_tINS_5msg_tELi256EED1Ev
          30 .text$_ZN3zmq8yqueue_tINS_9command_tELi16EE14allocate_chunkEv
         100 .text$_ZN3zmq8yqueue_tINS_9command_tELi16EE3popEv
          38 .text$_ZN3zmq8yqueue_tINS_9command_tELi16EE4backEv
         270 .text$_ZN3zmq8yqueue_tINS_9command_tELi16EE4pushEv
          38 .text$_ZN3zmq8yqueue_tINS_9command_tELi16EE5frontEv
         140 .text$_ZN3zmq8yqueue_tINS_9command_tELi16EE6unpushEv
         168 .text$_ZN3zmq8yqueue_tINS_9command_tELi16EEC1Ev
          E8 .text$_ZN3zmq8yqueue_tINS_9command_tELi16EED1Ev
          40 .text$_ZN3zmq9dbuffer_tINS_5msg_tEE10check_readEv
         170 .text$_ZN3zmq9dbuffer_tINS_5msg_tEE4readEPS1_
          64 .text$_ZN3zmq9dbuffer_tINS_5msg_tEE5probeEPFbRKS1_E
         19C .text$_ZN3zmq9dbuffer_tINS_5msg_tEE5writeERKS1_
          84 .text$_ZN3zmq9dbuffer_tINS_5msg_tEEC1Ev
          3C .text$_ZN3zmq9dbuffer_tINS_5msg_tEED1Ev
          60 .text$_ZN3zmq9i_decoderC2Ev
          B0 .text$_ZN3zmq9i_decoderD2Ev
          60 .text$_ZN3zmq9i_encoderC2Ev
          B0 .text$_ZN3zmq9i_encoderD2Ev
          30 .text$_ZN3zmq9i_mailboxC2Ev
          58 .text$_ZN3zmq9i_mailboxD2Ev
         728 .text$_ZN3zmq9options_tC1EOS0_
        3168 .text$_ZN3zmq9options_tC1ERKS0_
         690 .text$_ZN3zmq9options_tD1Ev
          40 .text$_ZN6node_t10set_prefixEPKh
          28 .text$_ZN6node_t11first_bytesEv
          4C .text$_ZN6node_t11set_edge_atEjhS_
          90 .text$_ZN6node_t11set_node_atEjS_
          18 .text$_ZN6node_t12set_refcountEj
          8C .text$_ZN6node_t13first_byte_atEj
          38 .text$_ZN6node_t13node_pointersEv
          1C .text$_ZN6node_t13prefix_lengthEv
          20 .text$_ZN6node_t13set_edgecountEj
          40 .text$_ZN6node_t15set_first_bytesEPKh
          94 .text$_ZN6node_t17set_first_byte_atEjh
          44 .text$_ZN6node_t17set_node_pointersEPKh
          1C .text$_ZN6node_t17set_prefix_lengthEj
          18 .text$_ZN6node_t6prefixEv
          A4 .text$_ZN6node_t7node_atEj
          18 .text$_ZN6node_t8refcountEv
          20 .text$_ZN6node_t9edgecountEv
          1C .text$_ZN9__gnu_cxx13new_allocatorIN3zmq15socket_poller_t6item_tEE10deallocateEPS3_j
          10 .text$_ZN9__gnu_cxx13new_allocatorIN3zmq15socket_poller_t6item_tEE7destroyIS3_EEvPT_
          34 .text$_ZN9__gnu_cxx13new_allocatorIN3zmq15socket_poller_t6item_tEE8allocateEjPKv
          50 .text$_ZN9__gnu_cxx13new_allocatorIN3zmq15socket_poller_t6item_tEE9constructIS3_JRKS3_EEEvPT_DpOT0_
           C .text$_ZN9__gnu_cxx13new_allocatorIN3zmq15socket_poller_t6item_tEEC2Ev
           C .text$_ZN9__gnu_cxx13new_allocatorIN3zmq15socket_poller_t6item_tEED2Ev
          E0 .text$_ZN9__gnu_cxx13new_allocatorIN3zmq18tcp_address_mask_tEE10deallocateEPS2_j
          10 .text$_ZN9__gnu_cxx13new_allocatorIN3zmq18tcp_address_mask_tEE7destroyIS2_EEvPT_
         16C .text$_ZN9__gnu_cxx13new_allocatorIN3zmq18tcp_address_mask_tEE8allocateEjPKv
          68 .text$_ZN9__gnu_cxx13new_allocatorIN3zmq18tcp_address_mask_tEE9constructIS2_JRKS2_EEEvPT_DpOT0_
          60 .text$_ZN9__gnu_cxx13new_allocatorIN3zmq18tcp_address_mask_tEEC2ERKS3_
           C .text$_ZN9__gnu_cxx13new_allocatorIN3zmq18tcp_address_mask_tEEC2Ev
          54 .text$_ZN9__gnu_cxx13new_allocatorIN3zmq18tcp_address_mask_tEED2Ev
          1C .text$_ZN9__gnu_cxx13new_allocatorIN3zmq6blob_tEE10deallocateEPS2_j
          18 .text$_ZN9__gnu_cxx13new_allocatorIN3zmq6blob_tEE7destroyIS2_EEvPT_
          3C .text$_ZN9__gnu_cxx13new_allocatorIN3zmq6blob_tEE8allocateEjPKv
          44 .text$_ZN9__gnu_cxx13new_allocatorIN3zmq6blob_tEE9constructIS2_JS2_EEEvPT_DpOT0_
           C .text$_ZN9__gnu_cxx13new_allocatorIN3zmq6blob_tEEC2Ev
           C .text$_ZN9__gnu_cxx13new_allocatorIN3zmq6blob_tEED2Ev
          1C .text$_ZN9__gnu_cxx13new_allocatorIN3zmq8select_t10fd_entry_tEE10deallocateEPS3_j
          10 .text$_ZN9__gnu_cxx13new_allocatorIN3zmq8select_t10fd_entry_tEE7destroyIS3_EEvPT_
          34 .text$_ZN9__gnu_cxx13new_allocatorIN3zmq8select_t10fd_entry_tEE8allocateEjPKv
          44 .text$_ZN9__gnu_cxx13new_allocatorIN3zmq8select_t10fd_entry_tEE9constructIS3_JRKS3_EEEvPT_DpOT0_
           C .text$_ZN9__gnu_cxx13new_allocatorIN3zmq8select_t10fd_entry_tEEC2Ev
           C .text$_ZN9__gnu_cxx13new_allocatorIN3zmq8select_t10fd_entry_tEED2Ev
          1C .text$_ZN9__gnu_cxx13new_allocatorIPN3zmq10metadata_tEE10deallocateEPS3_j
          10 .text$_ZN9__gnu_cxx13new_allocatorIPN3zmq10metadata_tEE7destroyIS3_EEvPT_
          34 .text$_ZN9__gnu_cxx13new_allocatorIPN3zmq10metadata_tEE8allocateEjPKv
          3C .text$_ZN9__gnu_cxx13new_allocatorIPN3zmq10metadata_tEE9constructIS3_JRKS3_EEEvPT_DpOT0_
          3C .text$_ZN9__gnu_cxx13new_allocatorIPN3zmq10metadata_tEE9constructIS3_JS3_EEEvPT_DpOT0_
           C .text$_ZN9__gnu_cxx13new_allocatorIPN3zmq10metadata_tEEC2Ev
           C .text$_ZN9__gnu_cxx13new_allocatorIPN3zmq10metadata_tEED2Ev
          1C .text$_ZN9__gnu_cxx13new_allocatorIPN3zmq10signaler_tEE10deallocateEPS3_j
          10 .text$_ZN9__gnu_cxx13new_allocatorIPN3zmq10signaler_tEE7destroyIS3_EEvPT_
          34 .text$_ZN9__gnu_cxx13new_allocatorIPN3zmq10signaler_tEE8allocateEjPKv
          3C .text$_ZN9__gnu_cxx13new_allocatorIPN3zmq10signaler_tEE9constructIS3_JRKS3_EEEvPT_DpOT0_
           C .text$_ZN9__gnu_cxx13new_allocatorIPN3zmq10signaler_tEEC2Ev
           C .text$_ZN9__gnu_cxx13new_allocatorIPN3zmq10signaler_tEED2Ev
          1C .text$_ZN9__gnu_cxx13new_allocatorIPN3zmq11io_thread_tEE10deallocateEPS3_j
          10 .text$_ZN9__gnu_cxx13new_allocatorIPN3zmq11io_thread_tEE7destroyIS3_EEvPT_
          34 .text$_ZN9__gnu_cxx13new_allocatorIPN3zmq11io_thread_tEE8allocateEjPKv
          3C .text$_ZN9__gnu_cxx13new_allocatorIPN3zmq11io_thread_tEE9constructIS3_JRKS3_EEEvPT_DpOT0_
           C .text$_ZN9__gnu_cxx13new_allocatorIPN3zmq11io_thread_tEEC2Ev
           C .text$_ZN9__gnu_cxx13new_allocatorIPN3zmq11io_thread_tEED2Ev
          1C .text$_ZN9__gnu_cxx13new_allocatorIPN3zmq13socket_base_tEE10deallocateEPS3_j
          10 .text$_ZN9__gnu_cxx13new_allocatorIPN3zmq13socket_base_tEE7destroyIS3_EEvPT_
          34 .text$_ZN9__gnu_cxx13new_allocatorIPN3zmq13socket_base_tEE8allocateEjPKv
          3C .text$_ZN9__gnu_cxx13new_allocatorIPN3zmq13socket_base_tEE9constructIS3_JRKS3_EEEvPT_DpOT0_
           C .text$_ZN9__gnu_cxx13new_allocatorIPN3zmq13socket_base_tEEC2Ev
           C .text$_ZN9__gnu_cxx13new_allocatorIPN3zmq13socket_base_tEED2Ev
          1C .text$_ZN9__gnu_cxx13new_allocatorIPN3zmq6blob_tEE10deallocateEPS3_j
          34 .text$_ZN9__gnu_cxx13new_allocatorIPN3zmq6blob_tEE8allocateEjPKv
           C .text$_ZN9__gnu_cxx13new_allocatorIPN3zmq6blob_tEEC2Ev
           C .text$_ZN9__gnu_cxx13new_allocatorIPN3zmq6blob_tEED2Ev
          A8 .text$_ZN9__gnu_cxx13new_allocatorIPN3zmq6pipe_tEE10deallocateEPS3_j
          60 .text$_ZN9__gnu_cxx13new_allocatorIPN3zmq6pipe_tEE7destroyIS3_EEvPT_
         138 .text$_ZN9__gnu_cxx13new_allocatorIPN3zmq6pipe_tEE8allocateEjPKv
         168 .text$_ZN9__gnu_cxx13new_allocatorIPN3zmq6pipe_tEE9constructIS3_JRKS3_EEEvPT_DpOT0_
          3C .text$_ZN9__gnu_cxx13new_allocatorIPN3zmq6pipe_tEE9constructIS3_JS3_EEEvPT_DpOT0_
          48 .text$_ZN9__gnu_cxx13new_allocatorIPN3zmq6pipe_tEEC2Ev
          48 .text$_ZN9__gnu_cxx13new_allocatorIPN3zmq6pipe_tEED2Ev
          1C .text$_ZN9__gnu_cxx13new_allocatorIPN3zmq9i_mailboxEE10deallocateEPS3_j
          34 .text$_ZN9__gnu_cxx13new_allocatorIPN3zmq9i_mailboxEE8allocateEjPKv
           C .text$_ZN9__gnu_cxx13new_allocatorIPN3zmq9i_mailboxEEC2Ev
           C .text$_ZN9__gnu_cxx13new_allocatorIPN3zmq9i_mailboxEED2Ev
          1C .text$_ZN9__gnu_cxx13new_allocatorIPPN3zmq10metadata_tEE10deallocateEPS4_j
          34 .text$_ZN9__gnu_cxx13new_allocatorIPPN3zmq10metadata_tEE8allocateEjPKv
           C .text$_ZN9__gnu_cxx13new_allocatorIPPN3zmq10metadata_tEEC2Ev
           C .text$_ZN9__gnu_cxx13new_allocatorIPPN3zmq10metadata_tEED2Ev
          1C .text$_ZN9__gnu_cxx13new_allocatorIPPN3zmq6pipe_tEE10deallocateEPS4_j
          34 .text$_ZN9__gnu_cxx13new_allocatorIPPN3zmq6pipe_tEE8allocateEjPKv
           C .text$_ZN9__gnu_cxx13new_allocatorIPPN3zmq6pipe_tEEC2Ev
           C .text$_ZN9__gnu_cxx13new_allocatorIPPN3zmq6pipe_tEED2Ev
          1C .text$_ZN9__gnu_cxx13new_allocatorIPhE10deallocateEPS1_j
          34 .text$_ZN9__gnu_cxx13new_allocatorIPhE8allocateEjPKv
           C .text$_ZN9__gnu_cxx13new_allocatorIPhEC2Ev
           C .text$_ZN9__gnu_cxx13new_allocatorIPhED2Ev
          1C .text$_ZN9__gnu_cxx13new_allocatorISt13_Rb_tree_nodeINSt7__cxx1112basic_stringIcSt11char_traitsIcESaIcEEEEE10deallocateEPS8_j
          18 .text$_ZN9__gnu_cxx13new_allocatorISt13_Rb_tree_nodeINSt7__cxx1112basic_stringIcSt11char_traitsIcESaIcEEEEE7destroyIS7_EEvPT_
          3C .text$_ZN9__gnu_cxx13new_allocatorISt13_Rb_tree_nodeINSt7__cxx1112basic_stringIcSt11char_traitsIcESaIcEEEEE8allocateEjPKv
          64 .text$_ZN9__gnu_cxx13new_allocatorISt13_Rb_tree_nodeINSt7__cxx1112basic_stringIcSt11char_traitsIcESaIcEEEEE9constructIS7_JRKS7_EEEvPT_DpOT0_
           C .text$_ZN9__gnu_cxx13new_allocatorISt13_Rb_tree_nodeINSt7__cxx1112basic_stringIcSt11char_traitsIcESaIcEEEEEC2Ev
           C .text$_ZN9__gnu_cxx13new_allocatorISt13_Rb_tree_nodeINSt7__cxx1112basic_stringIcSt11char_traitsIcESaIcEEEEED2Ev
          1C .text$_ZN9__gnu_cxx13new_allocatorISt13_Rb_tree_nodeIPN3zmq5own_tEEE10deallocateEPS5_j
          10 .text$_ZN9__gnu_cxx13new_allocatorISt13_Rb_tree_nodeIPN3zmq5own_tEEE7destroyIS4_EEvPT_
          3C .text$_ZN9__gnu_cxx13new_allocatorISt13_Rb_tree_nodeIPN3zmq5own_tEEE8allocateEjPKv
          3C .text$_ZN9__gnu_cxx13new_allocatorISt13_Rb_tree_nodeIPN3zmq5own_tEEE9constructIS4_JRKS4_EEEvPT_DpOT0_
           C .text$_ZN9__gnu_cxx13new_allocatorISt13_Rb_tree_nodeIPN3zmq5own_tEEEC2Ev
           C .text$_ZN9__gnu_cxx13new_allocatorISt13_Rb_tree_nodeIPN3zmq5own_tEEED2Ev
          70 .text$_ZN9__gnu_cxx13new_allocatorISt13_Rb_tree_nodeIPN3zmq6pipe_tEEE10deallocateEPS5_j
          40 .text$_ZN9__gnu_cxx13new_allocatorISt13_Rb_tree_nodeIPN3zmq6pipe_tEEE7destroyIS4_EEvPT_
          B4 .text$_ZN9__gnu_cxx13new_allocatorISt13_Rb_tree_nodeIPN3zmq6pipe_tEEE8allocateEjPKv
          B4 .text$_ZN9__gnu_cxx13new_allocatorISt13_Rb_tree_nodeIPN3zmq6pipe_tEEE9constructIS4_JRKS4_EEEvPT_DpOT0_
          24 .text$_ZN9__gnu_cxx13new_allocatorISt13_Rb_tree_nodeIPN3zmq6pipe_tEEEC2Ev
          30 .text$_ZN9__gnu_cxx13new_allocatorISt13_Rb_tree_nodeIPN3zmq6pipe_tEEED2Ev
          1C .text$_ZN9__gnu_cxx13new_allocatorISt13_Rb_tree_nodeISt4pairIKN3zmq6blob_tENS3_21routing_socket_base_t10out_pipe_tEEEE10deallocateEPS9_j
          18 .text$_ZN9__gnu_cxx13new_allocatorISt13_Rb_tree_nodeISt4pairIKN3zmq6blob_tENS3_21routing_socket_base_t10out_pipe_tEEEE7destroyIS8_EEvPT_
          3C .text$_ZN9__gnu_cxx13new_allocatorISt13_Rb_tree_nodeISt4pairIKN3zmq6blob_tENS3_21routing_socket_base_t10out_pipe_tEEEE8allocateEjPKv
          58 .text$_ZN9__gnu_cxx13new_allocatorISt13_Rb_tree_nodeISt4pairIKN3zmq6blob_tENS3_21routing_socket_base_t10out_pipe_tEEEE9constructIS8_JS4_RKS7_EEEvPT_DpOT0_
           C .text$_ZN9__gnu_cxx13new_allocatorISt13_Rb_tree_nodeISt4pairIKN3zmq6blob_tENS3_21routing_socket_base_t10out_pipe_tEEEEC2Ev
           C .text$_ZN9__gnu_cxx13new_allocatorISt13_Rb_tree_nodeISt4pairIKN3zmq6blob_tENS3_21routing_socket_base_t10out_pipe_tEEEED2Ev
          1C .text$_ZN9__gnu_cxx13new_allocatorISt13_Rb_tree_nodeISt4pairIKNSt7__cxx1112basic_stringIcSt11char_traitsIcESaIcEEEMN3zmq14session_base_tEFPNSA_5own_tEPNSA_11io_thread_tEbEEEE10deallocateEPSJ_j
          18 .text$_ZN9__gnu_cxx13new_allocatorISt13_Rb_tree_nodeISt4pairIKNSt7__cxx1112basic_stringIcSt11char_traitsIcESaIcEEEMN3zmq14session_base_tEFPNSA_5own_tEPNSA_11io_thread_tEbEEEE7destroyISI_EEvPT_
          3C .text$_ZN9__gnu_cxx13new_allocatorISt13_Rb_tree_nodeISt4pairIKNSt7__cxx1112basic_stringIcSt11char_traitsIcESaIcEEEMN3zmq14session_base_tEFPNSA_5own_tEPNSA_11io_thread_tEbEEEE8allocateEjPKv
          64 .text$_ZN9__gnu_cxx13new_allocatorISt13_Rb_tree_nodeISt4pairIKNSt7__cxx1112basic_stringIcSt11char_traitsIcESaIcEEEMN3zmq14session_base_tEFPNSA_5own_tEPNSA_11io_thread_tEbEEEE9constructISI_JRSI_EEEvPT_DpOT0_
           C .text$_ZN9__gnu_cxx13new_allocatorISt13_Rb_tree_nodeISt4pairIKNSt7__cxx1112basic_stringIcSt11char_traitsIcESaIcEEEMN3zmq14session_base_tEFPNSA_5own_tEPNSA_11io_thread_tEbEEEEC2Ev
           C .text$_ZN9__gnu_cxx13new_allocatorISt13_Rb_tree_nodeISt4pairIKNSt7__cxx1112basic_stringIcSt11char_traitsIcESaIcEEEMN3zmq14session_base_tEFPNSA_5own_tEPNSA_11io_thread_tEbEEEED2Ev
          1C .text$_ZN9__gnu_cxx13new_allocatorISt13_Rb_tree_nodeISt4pairIKNSt7__cxx1112basic_stringIcSt11char_traitsIcESaIcEEEMN3zmq14session_base_tEFvPNSA_11io_thread_tEEEEE10deallocateEPSH_j
          18 .text$_ZN9__gnu_cxx13new_allocatorISt13_Rb_tree_nodeISt4pairIKNSt7__cxx1112basic_stringIcSt11char_traitsIcESaIcEEEMN3zmq14session_base_tEFvPNSA_11io_thread_tEEEEE7destroyISG_EEvPT_
          3C .text$_ZN9__gnu_cxx13new_allocatorISt13_Rb_tree_nodeISt4pairIKNSt7__cxx1112basic_stringIcSt11char_traitsIcESaIcEEEMN3zmq14session_base_tEFvPNSA_11io_thread_tEEEEE8allocateEjPKv
          64 .text$_ZN9__gnu_cxx13new_allocatorISt13_Rb_tree_nodeISt4pairIKNSt7__cxx1112basic_stringIcSt11char_traitsIcESaIcEEEMN3zmq14session_base_tEFvPNSA_11io_thread_tEEEEE9constructISG_JRSG_EEEvPT_DpOT0_
           C .text$_ZN9__gnu_cxx13new_allocatorISt13_Rb_tree_nodeISt4pairIKNSt7__cxx1112basic_stringIcSt11char_traitsIcESaIcEEEMN3zmq14session_base_tEFvPNSA_11io_thread_tEEEEEC2Ev
           C .text$_ZN9__gnu_cxx13new_allocatorISt13_Rb_tree_nodeISt4pairIKNSt7__cxx1112basic_stringIcSt11char_traitsIcESaIcEEEMN3zmq14session_base_tEFvPNSA_11io_thread_tEEEEED2Ev
          1C .text$_ZN9__gnu_cxx13new_allocatorISt13_Rb_tree_nodeISt4pairIKNSt7__cxx1112basic_stringIcSt11char_traitsIcESaIcEEEN3zmq10endpoint_tEEEE10deallocateEPSD_j
          18 .text$_ZN9__gnu_cxx13new_allocatorISt13_Rb_tree_nodeISt4pairIKNSt7__cxx1112basic_stringIcSt11char_traitsIcESaIcEEEN3zmq10endpoint_tEEEE7destroyISC_EEvPT_
          38 .text$_ZN9__gnu_cxx13new_allocatorISt13_Rb_tree_nodeISt4pairIKNSt7__cxx1112basic_stringIcSt11char_traitsIcESaIcEEEN3zmq10endpoint_tEEEE8allocateEjPKv
          A8 .text$_ZN9__gnu_cxx13new_allocatorISt13_Rb_tree_nodeISt4pairIKNSt7__cxx1112basic_stringIcSt11char_traitsIcESaIcEEEN3zmq10endpoint_tEEEE9constructISC_JRKSt21piecewise_construct_tSt5tupleIJOS8_EESJ_IJEEEEEvPT_DpOT0_
          7C .text$_ZN9__gnu_cxx13new_allocatorISt13_Rb_tree_nodeISt4pairIKNSt7__cxx1112basic_stringIcSt11char_traitsIcESaIcEEEN3zmq10endpoint_tEEEE9constructISC_JS8_RKSB_EEEvPT_DpOT0_
           C .text$_ZN9__gnu_cxx13new_allocatorISt13_Rb_tree_nodeISt4pairIKNSt7__cxx1112basic_stringIcSt11char_traitsIcESaIcEEEN3zmq10endpoint_tEEEEC2Ev
           C .text$_ZN9__gnu_cxx13new_allocatorISt13_Rb_tree_nodeISt4pairIKNSt7__cxx1112basic_stringIcSt11char_traitsIcESaIcEEEN3zmq10endpoint_tEEEED2Ev
          1C .text$_ZN9__gnu_cxx13new_allocatorISt13_Rb_tree_nodeISt4pairIKNSt7__cxx1112basic_stringIcSt11char_traitsIcESaIcEEEN3zmq5ctx_t20pending_connection_tEEEE10deallocateEPSE_j
          18 .text$_ZN9__gnu_cxx13new_allocatorISt13_Rb_tree_nodeISt4pairIKNSt7__cxx1112basic_stringIcSt11char_traitsIcESaIcEEEN3zmq5ctx_t20pending_connection_tEEEE7destroyISD_EEvPT_
          40 .text$_ZN9__gnu_cxx13new_allocatorISt13_Rb_tree_nodeISt4pairIKNSt7__cxx1112basic_stringIcSt11char_traitsIcESaIcEEEN3zmq5ctx_t20pending_connection_tEEEE8allocateEjPKv
          64 .text$_ZN9__gnu_cxx13new_allocatorISt13_Rb_tree_nodeISt4pairIKNSt7__cxx1112basic_stringIcSt11char_traitsIcESaIcEEEN3zmq5ctx_t20pending_connection_tEEEE9constructISD_JRKSD_EEEvPT_DpOT0_
          7C .text$_ZN9__gnu_cxx13new_allocatorISt13_Rb_tree_nodeISt4pairIKNSt7__cxx1112basic_stringIcSt11char_traitsIcESaIcEEEN3zmq5ctx_t20pending_connection_tEEEE9constructISD_JRS9_RKSC_EEEvPT_DpOT0_
          10 .text$_ZN9__gnu_cxx13new_allocatorISt13_Rb_tree_nodeISt4pairIKNSt7__cxx1112basic_stringIcSt11char_traitsIcESaIcEEEN3zmq5ctx_t20pending_connection_tEEEEC2ERKSF_
           C .text$_ZN9__gnu_cxx13new_allocatorISt13_Rb_tree_nodeISt4pairIKNSt7__cxx1112basic_stringIcSt11char_traitsIcESaIcEEEN3zmq5ctx_t20pending_connection_tEEEEC2Ev
           C .text$_ZN9__gnu_cxx13new_allocatorISt13_Rb_tree_nodeISt4pairIKNSt7__cxx1112basic_stringIcSt11char_traitsIcESaIcEEEN3zmq5ctx_t20pending_connection_tEEEED2Ev
          38 .text$_ZN9__gnu_cxx13new_allocatorISt13_Rb_tree_nodeISt4pairIKNSt7__cxx1112basic_stringIcSt11char_traitsIcESaIcEEEPN3zmq6pipe_tEEEE10deallocateEPSE_j
          30 .text$_ZN9__gnu_cxx13new_allocatorISt13_Rb_tree_nodeISt4pairIKNSt7__cxx1112basic_stringIcSt11char_traitsIcESaIcEEEPN3zmq6pipe_tEEEE7destroyISD_EEvPT_
          68 .text$_ZN9__gnu_cxx13new_allocatorISt13_Rb_tree_nodeISt4pairIKNSt7__cxx1112basic_stringIcSt11char_traitsIcESaIcEEEPN3zmq6pipe_tEEEE8allocateEjPKv
          B0 .text$_ZN9__gnu_cxx13new_allocatorISt13_Rb_tree_nodeISt4pairIKNSt7__cxx1112basic_stringIcSt11char_traitsIcESaIcEEEPN3zmq6pipe_tEEEE9constructISD_JS8_RSC_EEEvPT_DpOT0_
          18 .text$_ZN9__gnu_cxx13new_allocatorISt13_Rb_tree_nodeISt4pairIKNSt7__cxx1112basic_stringIcSt11char_traitsIcESaIcEEEPN3zmq6pipe_tEEEEC2Ev
          18 .text$_ZN9__gnu_cxx13new_allocatorISt13_Rb_tree_nodeISt4pairIKNSt7__cxx1112basic_stringIcSt11char_traitsIcESaIcEEEPN3zmq6pipe_tEEEED2Ev
          1C .text$_ZN9__gnu_cxx13new_allocatorISt13_Rb_tree_nodeISt4pairIKNSt7__cxx1112basic_stringIcSt11char_traitsIcESaIcEEES2_IPN3zmq5own_tEPNSA_6pipe_tEEEEE10deallocateEPSH_j
          18 .text$_ZN9__gnu_cxx13new_allocatorISt13_Rb_tree_nodeISt4pairIKNSt7__cxx1112basic_stringIcSt11char_traitsIcESaIcEEES2_IPN3zmq5own_tEPNSA_6pipe_tEEEEE7destroyISG_EEvPT_
          3C .text$_ZN9__gnu_cxx13new_allocatorISt13_Rb_tree_nodeISt4pairIKNSt7__cxx1112basic_stringIcSt11char_traitsIcESaIcEEES2_IPN3zmq5own_tEPNSA_6pipe_tEEEEE8allocateEjPKv
          7C .text$_ZN9__gnu_cxx13new_allocatorISt13_Rb_tree_nodeISt4pairIKNSt7__cxx1112basic_stringIcSt11char_traitsIcESaIcEEES2_IPN3zmq5own_tEPNSA_6pipe_tEEEEE9constructISG_JRS9_SF_EEEvPT_DpOT0_
           C .text$_ZN9__gnu_cxx13new_allocatorISt13_Rb_tree_nodeISt4pairIKNSt7__cxx1112basic_stringIcSt11char_traitsIcESaIcEEES2_IPN3zmq5own_tEPNSA_6pipe_tEEEEEC2Ev
           C .text$_ZN9__gnu_cxx13new_allocatorISt13_Rb_tree_nodeISt4pairIKNSt7__cxx1112basic_stringIcSt11char_traitsIcESaIcEEES2_IPN3zmq5own_tEPNSA_6pipe_tEEEEED2Ev
         134 .text$_ZN9__gnu_cxx13new_allocatorISt13_Rb_tree_nodeISt4pairIKNSt7__cxx1112basic_stringIcSt11char_traitsIcESaIcEEES8_EEE10deallocateEPSB_j
          F0 .text$_ZN9__gnu_cxx13new_allocatorISt13_Rb_tree_nodeISt4pairIKNSt7__cxx1112basic_stringIcSt11char_traitsIcESaIcEEES8_EEE7destroyISA_EEvPT_
         1A0 .text$_ZN9__gnu_cxx13new_allocatorISt13_Rb_tree_nodeISt4pairIKNSt7__cxx1112basic_stringIcSt11char_traitsIcESaIcEEES8_EEE8allocateEjPKv
         2BC .text$_ZN9__gnu_cxx13new_allocatorISt13_Rb_tree_nodeISt4pairIKNSt7__cxx1112basic_stringIcSt11char_traitsIcESaIcEEES8_EEE9constructISA_JRKSA_EEEvPT_DpOT0_
          7C .text$_ZN9__gnu_cxx13new_allocatorISt13_Rb_tree_nodeISt4pairIKNSt7__cxx1112basic_stringIcSt11char_traitsIcESaIcEEES8_EEE9constructISA_JRS9_S8_EEEvPT_DpOT0_
          44 .text$_ZN9__gnu_cxx13new_allocatorISt13_Rb_tree_nodeISt4pairIKNSt7__cxx1112basic_stringIcSt11char_traitsIcESaIcEEES8_EEE9constructISA_JS2_IS8_S8_EEEEvPT_DpOT0_
          7C .text$_ZN9__gnu_cxx13new_allocatorISt13_Rb_tree_nodeISt4pairIKNSt7__cxx1112basic_stringIcSt11char_traitsIcESaIcEEES8_EEE9constructISA_JS8_RS9_EEEvPT_DpOT0_
          B0 .text$_ZN9__gnu_cxx13new_allocatorISt13_Rb_tree_nodeISt4pairIKNSt7__cxx1112basic_stringIcSt11char_traitsIcESaIcEEES8_EEE9constructISA_JS8_S8_EEEvPT_DpOT0_
          70 .text$_ZN9__gnu_cxx13new_allocatorISt13_Rb_tree_nodeISt4pairIKNSt7__cxx1112basic_stringIcSt11char_traitsIcESaIcEEES8_EEEC2ERKSC_
          30 .text$_ZN9__gnu_cxx13new_allocatorISt13_Rb_tree_nodeISt4pairIKNSt7__cxx1112basic_stringIcSt11char_traitsIcESaIcEEES8_EEEC2Ev
          78 .text$_ZN9__gnu_cxx13new_allocatorISt13_Rb_tree_nodeISt4pairIKNSt7__cxx1112basic_stringIcSt11char_traitsIcESaIcEEES8_EEED2Ev
          1C .text$_ZN9__gnu_cxx13new_allocatorISt13_Rb_tree_nodeISt4pairIKjN3zmq8server_t9outpipe_tEEEE10deallocateEPS8_j
          10 .text$_ZN9__gnu_cxx13new_allocatorISt13_Rb_tree_nodeISt4pairIKjN3zmq8server_t9outpipe_tEEEE7destroyIS7_EEvPT_
          40 .text$_ZN9__gnu_cxx13new_allocatorISt13_Rb_tree_nodeISt4pairIKjN3zmq8server_t9outpipe_tEEEE8allocateEjPKv
          58 .text$_ZN9__gnu_cxx13new_allocatorISt13_Rb_tree_nodeISt4pairIKjN3zmq8server_t9outpipe_tEEEE9constructIS7_JRjRS6_EEEvPT_DpOT0_
           C .text$_ZN9__gnu_cxx13new_allocatorISt13_Rb_tree_nodeISt4pairIKjN3zmq8server_t9outpipe_tEEEEC2Ev
           C .text$_ZN9__gnu_cxx13new_allocatorISt13_Rb_tree_nodeISt4pairIKjN3zmq8server_t9outpipe_tEEEED2Ev
          1C .text$_ZN9__gnu_cxx13new_allocatorISt13_Rb_tree_nodeISt4pairIKtN3zmq8select_t14family_entry_tEEEE10deallocateEPS8_j
          18 .text$_ZN9__gnu_cxx13new_allocatorISt13_Rb_tree_nodeISt4pairIKtN3zmq8select_t14family_entry_tEEEE7destroyIS7_EEvPT_
          38 .text$_ZN9__gnu_cxx13new_allocatorISt13_Rb_tree_nodeISt4pairIKtN3zmq8select_t14family_entry_tEEEE8allocateEjPKv
          A8 .text$_ZN9__gnu_cxx13new_allocatorISt13_Rb_tree_nodeISt4pairIKtN3zmq8select_t14family_entry_tEEEE9constructIS7_JRKSt21piecewise_construct_tSt5tupleIJRS3_EESE_IJEEEEEvPT_DpOT0_
           C .text$_ZN9__gnu_cxx13new_allocatorISt13_Rb_tree_nodeISt4pairIKtN3zmq8select_t14family_entry_tEEEEC2Ev
           C .text$_ZN9__gnu_cxx13new_allocatorISt13_Rb_tree_nodeISt4pairIKtN3zmq8select_t14family_entry_tEEEED2Ev
          1C .text$_ZN9__gnu_cxx13new_allocatorISt13_Rb_tree_nodeISt4pairIKyN3zmq13poller_base_t12timer_info_tEEEE10deallocateEPS8_j
          10 .text$_ZN9__gnu_cxx13new_allocatorISt13_Rb_tree_nodeISt4pairIKyN3zmq13poller_base_t12timer_info_tEEEE7destroyIS7_EEvPT_
          34 .text$_ZN9__gnu_cxx13new_allocatorISt13_Rb_tree_nodeISt4pairIKyN3zmq13poller_base_t12timer_info_tEEEE8allocateEjPKv
          50 .text$_ZN9__gnu_cxx13new_allocatorISt13_Rb_tree_nodeISt4pairIKyN3zmq13poller_base_t12timer_info_tEEEE9constructIS7_JS7_EEEvPT_DpOT0_
           C .text$_ZN9__gnu_cxx13new_allocatorISt13_Rb_tree_nodeISt4pairIKyN3zmq13poller_base_t12timer_info_tEEEEC2Ev
           C .text$_ZN9__gnu_cxx13new_allocatorISt13_Rb_tree_nodeISt4pairIKyN3zmq13poller_base_t12timer_info_tEEEED2Ev
          1C .text$_ZN9__gnu_cxx13new_allocatorISt13_Rb_tree_nodeISt4pairIKyN3zmq8timers_t7timer_tEEEE10deallocateEPS8_j
          10 .text$_ZN9__gnu_cxx13new_allocatorISt13_Rb_tree_nodeISt4pairIKyN3zmq8timers_t7timer_tEEEE7destroyIS7_EEvPT_
          3C .text$_ZN9__gnu_cxx13new_allocatorISt13_Rb_tree_nodeISt4pairIKyN3zmq8timers_t7timer_tEEEE8allocateEjPKv
          5C .text$_ZN9__gnu_cxx13new_allocatorISt13_Rb_tree_nodeISt4pairIKyN3zmq8timers_t7timer_tEEEE9constructIS7_JS7_EEEvPT_DpOT0_
           C .text$_ZN9__gnu_cxx13new_allocatorISt13_Rb_tree_nodeISt4pairIKyN3zmq8timers_t7timer_tEEEEC2Ev
           C .text$_ZN9__gnu_cxx13new_allocatorISt13_Rb_tree_nodeISt4pairIKyN3zmq8timers_t7timer_tEEEED2Ev
          70 .text$_ZN9__gnu_cxx13new_allocatorISt13_Rb_tree_nodeIiEE10deallocateEPS2_j
          40 .text$_ZN9__gnu_cxx13new_allocatorISt13_Rb_tree_nodeIiEE7destroyIiEEvPT_
          78 .text$_ZN9__gnu_cxx13new_allocatorISt13_Rb_tree_nodeIiEE8allocateEjPKv
          78 .text$_ZN9__gnu_cxx13new_allocatorISt13_Rb_tree_nodeIiEE9constructIiJRKiEEEvPT_DpOT0_
          30 .text$_ZN9__gnu_cxx13new_allocatorISt13_Rb_tree_nodeIiEEC2Ev
          30 .text$_ZN9__gnu_cxx13new_allocatorISt13_Rb_tree_nodeIiEED2Ev
          1C .text$_ZN9__gnu_cxx13new_allocatorISt23_Sp_counted_ptr_inplaceISt5mutexSaIS2_ELNS_12_Lock_policyE2EEE10deallocateEPS5_j
          34 .text$_ZN9__gnu_cxx13new_allocatorISt23_Sp_counted_ptr_inplaceISt5mutexSaIS2_ELNS_12_Lock_policyE2EEE8allocateEjPKv
           C .text$_ZN9__gnu_cxx13new_allocatorISt23_Sp_counted_ptr_inplaceISt5mutexSaIS2_ELNS_12_Lock_policyE2EEEC2Ev
           C .text$_ZN9__gnu_cxx13new_allocatorISt23_Sp_counted_ptr_inplaceISt5mutexSaIS2_ELNS_12_Lock_policyE2EEED2Ev
          18 .text$_ZN9__gnu_cxx13new_allocatorISt5mutexE7destroyIS1_EEvPT_
          34 .text$_ZN9__gnu_cxx13new_allocatorISt5mutexE9constructIS1_JEEEvPT_DpOT0_
          10 .text$_ZN9__gnu_cxx13new_allocatorISt5mutexEC2ERKS2_
           C .text$_ZN9__gnu_cxx13new_allocatorISt5mutexEC2Ev
           C .text$_ZN9__gnu_cxx13new_allocatorISt5mutexED2Ev
          8C .text$_ZN9__gnu_cxx13new_allocatorIhE10deallocateEPhj
          20 .text$_ZN9__gnu_cxx13new_allocatorIhE7destroyIhEEvPT_
         104 .text$_ZN9__gnu_cxx13new_allocatorIhE8allocateEjPKv
          3C .text$_ZN9__gnu_cxx13new_allocatorIhE9constructIhJRKhEEEvPT_DpOT0_
          3C .text$_ZN9__gnu_cxx13new_allocatorIhE9constructIhJhEEEvPT_DpOT0_
          30 .text$_ZN9__gnu_cxx13new_allocatorIhEC2ERKS1_
          3C .text$_ZN9__gnu_cxx13new_allocatorIhEC2Ev
          3C .text$_ZN9__gnu_cxx13new_allocatorIhED2Ev
          38 .text$_ZN9__gnu_cxx13new_allocatorIjE10deallocateEPjj
          10 .text$_ZN9__gnu_cxx13new_allocatorIjE7destroyIjEEvPT_
          68 .text$_ZN9__gnu_cxx13new_allocatorIjE8allocateEjPKv
          3C .text$_ZN9__gnu_cxx13new_allocatorIjE9constructIjJRKjEEEvPT_DpOT0_
          3C .text$_ZN9__gnu_cxx13new_allocatorIjE9constructIjJjEEEvPT_DpOT0_
          18 .text$_ZN9__gnu_cxx13new_allocatorIjEC2Ev
          18 .text$_ZN9__gnu_cxx13new_allocatorIjED2Ev
          C0 .text$_ZN9__gnu_cxx14__alloc_traitsISaIN3zmq18tcp_address_mask_tEEE17_S_select_on_copyERKS3_
          20 .text$_ZN9__gnu_cxx14__alloc_traitsISaISt13_Rb_tree_nodeISt4pairIKNSt7__cxx1112basic_stringIcSt11char_traitsIcESaIcEEEN3zmq5ctx_t20pending_connection_tEEEEE17_S_select_on_copyERKSF_
          E0 .text$_ZN9__gnu_cxx14__alloc_traitsISaISt13_Rb_tree_nodeISt4pairIKNSt7__cxx1112basic_stringIcSt11char_traitsIcESaIcEEES8_EEEE17_S_select_on_copyERKSC_
          18 .text$_ZN9__gnu_cxx16__aligned_bufferISt5mutexE6_M_ptrEv
          10 .text$_ZN9__gnu_cxx16__aligned_bufferISt5mutexE7_M_addrEv
          18 .text$_ZN9__gnu_cxx16__aligned_bufferISt5mutexEC1Ev
          18 .text$_ZN9__gnu_cxx16__aligned_membufINSt7__cxx1112basic_stringIcSt11char_traitsIcESaIcEEEE6_M_ptrEv
          10 .text$_ZN9__gnu_cxx16__aligned_membufINSt7__cxx1112basic_stringIcSt11char_traitsIcESaIcEEEE7_M_addrEv
           C .text$_ZN9__gnu_cxx16__aligned_membufINSt7__cxx1112basic_stringIcSt11char_traitsIcESaIcEEEEC1Ev
          18 .text$_ZN9__gnu_cxx16__aligned_membufIPN3zmq5own_tEE6_M_ptrEv
          10 .text$_ZN9__gnu_cxx16__aligned_membufIPN3zmq5own_tEE7_M_addrEv
           C .text$_ZN9__gnu_cxx16__aligned_membufIPN3zmq5own_tEEC1Ev
          60 .text$_ZN9__gnu_cxx16__aligned_membufIPN3zmq6pipe_tEE6_M_ptrEv
          40 .text$_ZN9__gnu_cxx16__aligned_membufIPN3zmq6pipe_tEE7_M_addrEv
          24 .text$_ZN9__gnu_cxx16__aligned_membufIPN3zmq6pipe_tEEC1Ev
          30 .text$_ZN9__gnu_cxx16__aligned_membufISt4pairIKN3zmq6blob_tENS2_21routing_socket_base_t10out_pipe_tEEE6_M_ptrEv
          20 .text$_ZN9__gnu_cxx16__aligned_membufISt4pairIKN3zmq6blob_tENS2_21routing_socket_base_t10out_pipe_tEEE7_M_addrEv
           C .text$_ZN9__gnu_cxx16__aligned_membufISt4pairIKN3zmq6blob_tENS2_21routing_socket_base_t10out_pipe_tEEEC1Ev
          18 .text$_ZN9__gnu_cxx16__aligned_membufISt4pairIKNSt7__cxx1112basic_stringIcSt11char_traitsIcESaIcEEEMN3zmq14session_base_tEFPNS9_5own_tEPNS9_11io_thread_tEbEEE6_M_ptrEv
          10 .text$_ZN9__gnu_cxx16__aligned_membufISt4pairIKNSt7__cxx1112basic_stringIcSt11char_traitsIcESaIcEEEMN3zmq14session_base_tEFPNS9_5own_tEPNS9_11io_thread_tEbEEE7_M_addrEv
           C .text$_ZN9__gnu_cxx16__aligned_membufISt4pairIKNSt7__cxx1112basic_stringIcSt11char_traitsIcESaIcEEEMN3zmq14session_base_tEFPNS9_5own_tEPNS9_11io_thread_tEbEEEC1Ev
          18 .text$_ZN9__gnu_cxx16__aligned_membufISt4pairIKNSt7__cxx1112basic_stringIcSt11char_traitsIcESaIcEEEMN3zmq14session_base_tEFvPNS9_11io_thread_tEEEE6_M_ptrEv
          10 .text$_ZN9__gnu_cxx16__aligned_membufISt4pairIKNSt7__cxx1112basic_stringIcSt11char_traitsIcESaIcEEEMN3zmq14session_base_tEFvPNS9_11io_thread_tEEEE7_M_addrEv
           C .text$_ZN9__gnu_cxx16__aligned_membufISt4pairIKNSt7__cxx1112basic_stringIcSt11char_traitsIcESaIcEEEMN3zmq14session_base_tEFvPNS9_11io_thread_tEEEEC1Ev
          18 .text$_ZN9__gnu_cxx16__aligned_membufISt4pairIKNSt7__cxx1112basic_stringIcSt11char_traitsIcESaIcEEEN3zmq10endpoint_tEEE6_M_ptrEv
          10 .text$_ZN9__gnu_cxx16__aligned_membufISt4pairIKNSt7__cxx1112basic_stringIcSt11char_traitsIcESaIcEEEN3zmq10endpoint_tEEE7_M_addrEv
           C .text$_ZN9__gnu_cxx16__aligned_membufISt4pairIKNSt7__cxx1112basic_stringIcSt11char_traitsIcESaIcEEEN3zmq10endpoint_tEEEC1Ev
          18 .text$_ZN9__gnu_cxx16__aligned_membufISt4pairIKNSt7__cxx1112basic_stringIcSt11char_traitsIcESaIcEEEN3zmq5ctx_t20pending_connection_tEEE6_M_ptrEv
          10 .text$_ZN9__gnu_cxx16__aligned_membufISt4pairIKNSt7__cxx1112basic_stringIcSt11char_traitsIcESaIcEEEN3zmq5ctx_t20pending_connection_tEEE7_M_addrEv
           C .text$_ZN9__gnu_cxx16__aligned_membufISt4pairIKNSt7__cxx1112basic_stringIcSt11char_traitsIcESaIcEEEN3zmq5ctx_t20pending_connection_tEEEC1Ev
          30 .text$_ZN9__gnu_cxx16__aligned_membufISt4pairIKNSt7__cxx1112basic_stringIcSt11char_traitsIcESaIcEEEPN3zmq6pipe_tEEE6_M_ptrEv
          20 .text$_ZN9__gnu_cxx16__aligned_membufISt4pairIKNSt7__cxx1112basic_stringIcSt11char_traitsIcESaIcEEEPN3zmq6pipe_tEEE7_M_addrEv
          18 .text$_ZN9__gnu_cxx16__aligned_membufISt4pairIKNSt7__cxx1112basic_stringIcSt11char_traitsIcESaIcEEEPN3zmq6pipe_tEEEC1Ev
          18 .text$_ZN9__gnu_cxx16__aligned_membufISt4pairIKNSt7__cxx1112basic_stringIcSt11char_traitsIcESaIcEEES1_IPN3zmq5own_tEPNS9_6pipe_tEEEE6_M_ptrEv
          10 .text$_ZN9__gnu_cxx16__aligned_membufISt4pairIKNSt7__cxx1112basic_stringIcSt11char_traitsIcESaIcEEES1_IPN3zmq5own_tEPNS9_6pipe_tEEEE7_M_addrEv
           C .text$_ZN9__gnu_cxx16__aligned_membufISt4pairIKNSt7__cxx1112basic_stringIcSt11char_traitsIcESaIcEEES1_IPN3zmq5own_tEPNS9_6pipe_tEEEEC1Ev
         108 .text$_ZN9__gnu_cxx16__aligned_membufISt4pairIKNSt7__cxx1112basic_stringIcSt11char_traitsIcESaIcEEES7_EE6_M_ptrEv
          B0 .text$_ZN9__gnu_cxx16__aligned_membufISt4pairIKNSt7__cxx1112basic_stringIcSt11char_traitsIcESaIcEEES7_EE7_M_addrEv
          60 .text$_ZN9__gnu_cxx16__aligned_membufISt4pairIKNSt7__cxx1112basic_stringIcSt11char_traitsIcESaIcEEES7_EEC1Ev
          18 .text$_ZN9__gnu_cxx16__aligned_membufISt4pairIKjN3zmq8server_t9outpipe_tEEE6_M_ptrEv
          10 .text$_ZN9__gnu_cxx16__aligned_membufISt4pairIKjN3zmq8server_t9outpipe_tEEE7_M_addrEv
           C .text$_ZN9__gnu_cxx16__aligned_membufISt4pairIKjN3zmq8server_t9outpipe_tEEEC1Ev
          18 .text$_ZN9__gnu_cxx16__aligned_membufISt4pairIKtN3zmq8select_t14family_entry_tEEE6_M_ptrEv
          10 .text$_ZN9__gnu_cxx16__aligned_membufISt4pairIKtN3zmq8select_t14family_entry_tEEE7_M_addrEv
           C .text$_ZN9__gnu_cxx16__aligned_membufISt4pairIKtN3zmq8select_t14family_entry_tEEEC1Ev
          18 .text$_ZN9__gnu_cxx16__aligned_membufISt4pairIKyN3zmq13poller_base_t12timer_info_tEEE6_M_ptrEv
          10 .text$_ZN9__gnu_cxx16__aligned_membufISt4pairIKyN3zmq13poller_base_t12timer_info_tEEE7_M_addrEv
           C .text$_ZN9__gnu_cxx16__aligned_membufISt4pairIKyN3zmq13poller_base_t12timer_info_tEEEC1Ev
          18 .text$_ZN9__gnu_cxx16__aligned_membufISt4pairIKyN3zmq8timers_t7timer_tEEE6_M_ptrEv
          10 .text$_ZN9__gnu_cxx16__aligned_membufISt4pairIKyN3zmq8timers_t7timer_tEEE7_M_addrEv
           C .text$_ZN9__gnu_cxx16__aligned_membufISt4pairIKyN3zmq8timers_t7timer_tEEEC1Ev
          60 .text$_ZN9__gnu_cxx16__aligned_membufIiE6_M_ptrEv
          40 .text$_ZN9__gnu_cxx16__aligned_membufIiE7_M_addrEv
          18 .text$_ZN9__gnu_cxx16__aligned_membufIiEC1Ev
          18 .text$_ZN9__gnu_cxx17__normal_iteratorIPKN3zmq15socket_poller_t6item_tESt6vectorIS3_SaIS3_EEEC1ERKS5_
          20 .text$_ZN9__gnu_cxx17__normal_iteratorIPKN3zmq15socket_poller_t6item_tESt6vectorIS3_SaIS3_EEEC1IPS3_EERKNS0_IT_NS_11__enable_ifIXsrSt10__are_sameISC_SB_E7__valueES8_E6__typeEEE
          A8 .text$_ZN9__gnu_cxx17__normal_iteratorIPKN3zmq18tcp_address_mask_tESt6vectorIS2_SaIS2_EEEC1ERKS4_
          A8 .text$_ZN9__gnu_cxx17__normal_iteratorIPKN3zmq18tcp_address_mask_tESt6vectorIS2_SaIS2_EEEppEv
          18 .text$_ZN9__gnu_cxx17__normal_iteratorIPKN3zmq8select_t10fd_entry_tESt6vectorIS3_SaIS3_EEEC1ERKS5_
          20 .text$_ZN9__gnu_cxx17__normal_iteratorIPKN3zmq8select_t10fd_entry_tESt6vectorIS3_SaIS3_EEEC1IPS3_EERKNS0_IT_NS_11__enable_ifIXsrSt10__are_sameISC_SB_E7__valueES8_E6__typeEEE
          18 .text$_ZN9__gnu_cxx17__normal_iteratorIPKPN3zmq10signaler_tESt6vectorIS3_SaIS3_EEEC1ERKS5_
          20 .text$_ZN9__gnu_cxx17__normal_iteratorIPKPN3zmq10signaler_tESt6vectorIS3_SaIS3_EEEC1IPS3_EERKNS0_IT_NS_11__enable_ifIXsrSt10__are_sameISC_SB_E7__valueES8_E6__typeEEE
          18 .text$_ZN9__gnu_cxx17__normal_iteratorIPKPN3zmq11io_thread_tESt6vectorIS3_SaIS3_EEEC1ERKS5_
          18 .text$_ZN9__gnu_cxx17__normal_iteratorIPKPN3zmq13socket_base_tESt6vectorIS3_SaIS3_EEEC1ERKS5_
          60 .text$_ZN9__gnu_cxx17__normal_iteratorIPKPN3zmq6pipe_tESt6vectorIS3_SaIS3_EEEC1ERKS5_
          20 .text$_ZN9__gnu_cxx17__normal_iteratorIPKPN3zmq6pipe_tESt6vectorIS3_SaIS3_EEEC1IPS3_EERKNS0_IT_NS_11__enable_ifIXsrSt10__are_sameISC_SB_E7__valueES8_E6__typeEEE
          18 .text$_ZN9__gnu_cxx17__normal_iteratorIPKPN3zmq9i_mailboxESt6vectorIS3_SaIS3_EEEC1ERKS5_
          20 .text$_ZN9__gnu_cxx17__normal_iteratorIPKPN3zmq9i_mailboxESt6vectorIS3_SaIS3_EEEC1IPS3_EERKNS0_IT_NS_11__enable_ifIXsrSt10__are_sameISC_SB_E7__valueES8_E6__typeEEE
          18 .text$_ZN9__gnu_cxx17__normal_iteratorIPKhSt6vectorIhSaIhEEEC1ERKS2_
          18 .text$_ZN9__gnu_cxx17__normal_iteratorIPKjSt6vectorIjSaIjEEEC1ERKS2_
          18 .text$_ZN9__gnu_cxx17__normal_iteratorIPN3zmq15socket_poller_t6item_tESt6vectorIS3_SaIS3_EEEC1ERKS4_
          1C .text$_ZN9__gnu_cxx17__normal_iteratorIPN3zmq15socket_poller_t6item_tESt6vectorIS3_SaIS3_EEEppEv
          18 .text$_ZN9__gnu_cxx17__normal_iteratorIPN3zmq8select_t10fd_entry_tESt6vectorIS3_SaIS3_EEEC1ERKS4_
          1C .text$_ZN9__gnu_cxx17__normal_iteratorIPN3zmq8select_t10fd_entry_tESt6vectorIS3_SaIS3_EEEppEv
          18 .text$_ZN9__gnu_cxx17__normal_iteratorIPPN3zmq10signaler_tESt6vectorIS3_SaIS3_EEEC1ERKS4_
          1C .text$_ZN9__gnu_cxx17__normal_iteratorIPPN3zmq10signaler_tESt6vectorIS3_SaIS3_EEEppEv
          18 .text$_ZN9__gnu_cxx17__normal_iteratorIPPN3zmq13socket_base_tESt6vectorIS3_SaIS3_EEEC1ERKS4_
          78 .text$_ZN9__gnu_cxx17__normal_iteratorIPPN3zmq6pipe_tESt6vectorIS3_SaIS3_EEEC1ERKS4_
          1C .text$_ZN9__gnu_cxx17__normal_iteratorIPPN3zmq6pipe_tESt6vectorIS3_SaIS3_EEEppEv
          18 .text$_ZN9__gnu_cxx17__normal_iteratorIPPN3zmq9i_mailboxESt6vectorIS3_SaIS3_EEEC1ERKS4_
          30 .text$_ZN9__gnu_cxx17__normal_iteratorIPhSt6vectorIhN3zmq18secure_allocator_tIhEEEEC1ERKS1_
          48 .text$_ZN9__gnu_cxx17__normal_iteratorIPhSt6vectorIhSaIhEEEC1ERKS1_
          18 .text$_ZN9__gnu_cxx17__normal_iteratorIPjSt6vectorIjSaIjEEEC1ERKS1_
          18 .text$_ZN9__gnu_cxx5__ops10_Iter_predIN3zmq8timers_t11match_by_idEEC1ES4_
          28 .text$_ZN9__gnu_cxx5__ops10_Iter_predIN3zmq8timers_t11match_by_idEEclISt17_Rb_tree_iteratorISt4pairIKyNS3_7timer_tEEEEEbT_
          18 .text$_ZN9__gnu_cxx5__ops10_Iter_predIPFbRKN3zmq8select_t10fd_entry_tEEEC1ES8_
          24 .text$_ZN9__gnu_cxx5__ops10_Iter_predIPFbRKN3zmq8select_t10fd_entry_tEEEclINS_17__normal_iteratorIPS4_St6vectorIS4_SaIS4_EEEEEEbT_
          20 .text$_ZN9__gnu_cxx5__ops11__pred_iterIN3zmq8timers_t11match_by_idEEENS0_10_Iter_predIT_EES6_
          20 .text$_ZN9__gnu_cxx5__ops11__pred_iterIPFbRKN3zmq8select_t10fd_entry_tEEEENS0_10_Iter_predIT_EESA_
          18 .text$_ZN9__gnu_cxx5__ops16_Iter_equals_valIKPN3zmq10signaler_tEEC1ERS5_
          24 .text$_ZN9__gnu_cxx5__ops16_Iter_equals_valIKPN3zmq10signaler_tEEclINS_17__normal_iteratorIPS4_St6vectorIS4_SaIS4_EEEEEEbT_
          18 .text$_ZN9__gnu_cxx5__ops16_Iter_equals_valIKPN3zmq6pipe_tEEC1ERS5_
          24 .text$_ZN9__gnu_cxx5__ops16_Iter_equals_valIKPN3zmq6pipe_tEEclINS_17__normal_iteratorIPS4_St6vectorIS4_SaIS4_EEEEEEbT_
          20 .text$_ZN9__gnu_cxx5__ops17__iter_equals_valIKPN3zmq10signaler_tEEENS0_16_Iter_equals_valIT_EERS7_
          20 .text$_ZN9__gnu_cxx5__ops17__iter_equals_valIKPN3zmq6pipe_tEEENS0_16_Iter_equals_valIT_EERS7_
          28 .text$_ZN9__gnu_cxxeqIPKN3zmq15socket_poller_t6item_tESt6vectorIS3_SaIS3_EEEEbRKNS_17__normal_iteratorIT_T0_EESE_
          28 .text$_ZN9__gnu_cxxeqIPKN3zmq18tcp_address_mask_tESt6vectorIS2_SaIS2_EEEEbRKNS_17__normal_iteratorIT_T0_EESD_
          28 .text$_ZN9__gnu_cxxeqIPKN3zmq8select_t10fd_entry_tESt6vectorIS3_SaIS3_EEEEbRKNS_17__normal_iteratorIT_T0_EESE_
          28 .text$_ZN9__gnu_cxxeqIPKPN3zmq11io_thread_tESt6vectorIS3_SaIS3_EEEEbRKNS_17__normal_iteratorIT_T0_EESE_
          28 .text$_ZN9__gnu_cxxeqIPKPN3zmq13socket_base_tESt6vectorIS3_SaIS3_EEEEbRKNS_17__normal_iteratorIT_T0_EESE_
          78 .text$_ZN9__gnu_cxxeqIPKPN3zmq6pipe_tESt6vectorIS3_SaIS3_EEEEbRKNS_17__normal_iteratorIT_T0_EESE_
          28 .text$_ZN9__gnu_cxxeqIPKhSt6vectorIhSaIhEEEEbRKNS_17__normal_iteratorIT_T0_EESB_
          28 .text$_ZN9__gnu_cxxeqIPKjSt6vectorIjSaIjEEEEbRKNS_17__normal_iteratorIT_T0_EESB_
          28 .text$_ZN9__gnu_cxxeqIPN3zmq15socket_poller_t6item_tESt6vectorIS3_SaIS3_EEEEbRKNS_17__normal_iteratorIT_T0_EESD_
          28 .text$_ZN9__gnu_cxxeqIPN3zmq8select_t10fd_entry_tESt6vectorIS3_SaIS3_EEEEbRKNS_17__normal_iteratorIT_T0_EESD_
          2C .text$_ZN9__gnu_cxxmiIPKN3zmq15socket_poller_t6item_tESt6vectorIS3_SaIS3_EEEENS_17__normal_iteratorIT_T0_E15difference_typeERKSC_SF_
          2C .text$_ZN9__gnu_cxxmiIPKN3zmq8select_t10fd_entry_tESt6vectorIS3_SaIS3_EEEENS_17__normal_iteratorIT_T0_E15difference_typeERKSC_SF_
          2C .text$_ZN9__gnu_cxxmiIPKPN3zmq10signaler_tESt6vectorIS3_SaIS3_EEEENS_17__normal_iteratorIT_T0_E15difference_typeERKSC_SF_
          2C .text$_ZN9__gnu_cxxmiIPKPN3zmq6pipe_tESt6vectorIS3_SaIS3_EEEENS_17__normal_iteratorIT_T0_E15difference_typeERKSC_SF_
          2C .text$_ZN9__gnu_cxxmiIPKPN3zmq9i_mailboxESt6vectorIS3_SaIS3_EEEENS_17__normal_iteratorIT_T0_E15difference_typeERKSC_SF_
          28 .text$_ZN9__gnu_cxxmiIPN3zmq8select_t10fd_entry_tESt6vectorIS3_SaIS3_EEEENS_17__normal_iteratorIT_T0_E15difference_typeERKSB_SE_
          28 .text$_ZN9__gnu_cxxmiIPPN3zmq10signaler_tESt6vectorIS3_SaIS3_EEEENS_17__normal_iteratorIT_T0_E15difference_typeERKSB_SE_
          28 .text$_ZN9__gnu_cxxmiIPPN3zmq6pipe_tESt6vectorIS3_SaIS3_EEEENS_17__normal_iteratorIT_T0_E15difference_typeERKSB_SE_
          28 .text$_ZN9__gnu_cxxmiIPPN3zmq9i_mailboxESt6vectorIS3_SaIS3_EEEENS_17__normal_iteratorIT_T0_E15difference_typeERKSB_SE_
          F0 .text$_ZN9__gnu_cxxneIPKN3zmq18tcp_address_mask_tESt6vectorIS2_SaIS2_EEEEbRKNS_17__normal_iteratorIT_T0_EESD_
          28 .text$_ZN9__gnu_cxxneIPN3zmq15socket_poller_t6item_tESt6vectorIS3_SaIS3_EEEEbRKNS_17__normal_iteratorIT_T0_EESD_
          28 .text$_ZN9__gnu_cxxneIPN3zmq8select_t10fd_entry_tESt6vectorIS3_SaIS3_EEEEbRKNS_17__normal_iteratorIT_T0_EESD_
          28 .text$_ZN9__gnu_cxxneIPPN3zmq10signaler_tESt6vectorIS3_SaIS3_EEEEbRKNS_17__normal_iteratorIT_T0_EESD_
          28 .text$_ZN9__gnu_cxxneIPPN3zmq6pipe_tESt6vectorIS3_SaIS3_EEEEbRKNS_17__normal_iteratorIT_T0_EESD_
         280 .text$_ZNK3zmq12radix_tree_t5matchEPKhjb
         16C .text$_ZNK3zmq14atomic_value_t4loadEv
          2C .text$_ZNK3zmq15generic_mtrie_tINS_6pipe_tEE12is_redundantEv
          48 .text$_ZNK3zmq16atomic_counter_t3getEv
          10 .text$_ZNK3zmq18c_single_allocator4sizeEv
          24 .text$_ZNK3zmq19endpoint_uri_pair_t10identifierB5cxx11Ev
          50 .text$_ZNK3zmq20curve_client_tools_t13produce_helloEPvy
          80 .text$_ZNK3zmq5msg_t12is_subscribeEv
          80 .text$_ZNK3zmq5msg_t9is_cancelEv
          30 .text$_ZNK3zmq6blob_t4dataEv
          64 .text$_ZNK3zmq6blob_t4sizeEv
          6C .text$_ZNK3zmq6blob_tltERKS0_
          20 .text$_ZNK3zmq8timers_t11match_by_idclERKSt4pairIKyNS0_7timer_tEE
          10 .text$_ZNK9__gnu_cxx13new_allocatorIN3zmq15socket_poller_t6item_tEE8max_sizeEv
          70 .text$_ZNK9__gnu_cxx13new_allocatorIN3zmq18tcp_address_mask_tEE8max_sizeEv
          10 .text$_ZNK9__gnu_cxx13new_allocatorIN3zmq6blob_tEE8max_sizeEv
          10 .text$_ZNK9__gnu_cxx13new_allocatorIN3zmq8select_t10fd_entry_tEE8max_sizeEv
          10 .text$_ZNK9__gnu_cxx13new_allocatorIPN3zmq10metadata_tEE8max_sizeEv
          10 .text$_ZNK9__gnu_cxx13new_allocatorIPN3zmq10signaler_tEE8max_sizeEv
          10 .text$_ZNK9__gnu_cxx13new_allocatorIPN3zmq11io_thread_tEE8max_sizeEv
          10 .text$_ZNK9__gnu_cxx13new_allocatorIPN3zmq13socket_base_tEE8max_sizeEv
          10 .text$_ZNK9__gnu_cxx13new_allocatorIPN3zmq6blob_tEE8max_sizeEv
          60 .text$_ZNK9__gnu_cxx13new_allocatorIPN3zmq6pipe_tEE8max_sizeEv
          10 .text$_ZNK9__gnu_cxx13new_allocatorIPN3zmq9i_mailboxEE8max_sizeEv
          10 .text$_ZNK9__gnu_cxx13new_allocatorIPPN3zmq10metadata_tEE8max_sizeEv
          10 .text$_ZNK9__gnu_cxx13new_allocatorIPPN3zmq6pipe_tEE8max_sizeEv
          10 .text$_ZNK9__gnu_cxx13new_allocatorIPhE8max_sizeEv
          10 .text$_ZNK9__gnu_cxx13new_allocatorISt13_Rb_tree_nodeINSt7__cxx1112basic_stringIcSt11char_traitsIcESaIcEEEEE8max_sizeEv
          10 .text$_ZNK9__gnu_cxx13new_allocatorISt13_Rb_tree_nodeIPN3zmq5own_tEEE8max_sizeEv
          30 .text$_ZNK9__gnu_cxx13new_allocatorISt13_Rb_tree_nodeIPN3zmq6pipe_tEEE8max_sizeEv
          10 .text$_ZNK9__gnu_cxx13new_allocatorISt13_Rb_tree_nodeISt4pairIKN3zmq6blob_tENS3_21routing_socket_base_t10out_pipe_tEEEE8max_sizeEv
          10 .text$_ZNK9__gnu_cxx13new_allocatorISt13_Rb_tree_nodeISt4pairIKNSt7__cxx1112basic_stringIcSt11char_traitsIcESaIcEEEMN3zmq14session_base_tEFPNSA_5own_tEPNSA_11io_thread_tEbEEEE8max_sizeEv
          10 .text$_ZNK9__gnu_cxx13new_allocatorISt13_Rb_tree_nodeISt4pairIKNSt7__cxx1112basic_stringIcSt11char_traitsIcESaIcEEEMN3zmq14session_base_tEFvPNSA_11io_thread_tEEEEE8max_sizeEv
          10 .text$_ZNK9__gnu_cxx13new_allocatorISt13_Rb_tree_nodeISt4pairIKNSt7__cxx1112basic_stringIcSt11char_traitsIcESaIcEEEN3zmq10endpoint_tEEEE8max_sizeEv
          10 .text$_ZNK9__gnu_cxx13new_allocatorISt13_Rb_tree_nodeISt4pairIKNSt7__cxx1112basic_stringIcSt11char_traitsIcESaIcEEEN3zmq5ctx_t20pending_connection_tEEEE8max_sizeEv
          20 .text$_ZNK9__gnu_cxx13new_allocatorISt13_Rb_tree_nodeISt4pairIKNSt7__cxx1112basic_stringIcSt11char_traitsIcESaIcEEEPN3zmq6pipe_tEEEE8max_sizeEv
          10 .text$_ZNK9__gnu_cxx13new_allocatorISt13_Rb_tree_nodeISt4pairIKNSt7__cxx1112basic_stringIcSt11char_traitsIcESaIcEEES2_IPN3zmq5own_tEPNSA_6pipe_tEEEEE8max_sizeEv
          80 .text$_ZNK9__gnu_cxx13new_allocatorISt13_Rb_tree_nodeISt4pairIKNSt7__cxx1112basic_stringIcSt11char_traitsIcESaIcEEES8_EEE8max_sizeEv
          10 .text$_ZNK9__gnu_cxx13new_allocatorISt13_Rb_tree_nodeISt4pairIKjN3zmq8server_t9outpipe_tEEEE8max_sizeEv
          10 .text$_ZNK9__gnu_cxx13new_allocatorISt13_Rb_tree_nodeISt4pairIKtN3zmq8select_t14family_entry_tEEEE8max_sizeEv
          10 .text$_ZNK9__gnu_cxx13new_allocatorISt13_Rb_tree_nodeISt4pairIKyN3zmq13poller_base_t12timer_info_tEEEE8max_sizeEv
          10 .text$_ZNK9__gnu_cxx13new_allocatorISt13_Rb_tree_nodeISt4pairIKyN3zmq8timers_t7timer_tEEEE8max_sizeEv
          20 .text$_ZNK9__gnu_cxx13new_allocatorISt13_Rb_tree_nodeIiEE8max_sizeEv
          10 .text$_ZNK9__gnu_cxx13new_allocatorISt23_Sp_counted_ptr_inplaceISt5mutexSaIS2_ELNS_12_Lock_policyE2EEE8max_sizeEv
          50 .text$_ZNK9__gnu_cxx13new_allocatorIhE8max_sizeEv
          20 .text$_ZNK9__gnu_cxx13new_allocatorIjE8max_sizeEv
          18 .text$_ZNK9__gnu_cxx16__aligned_membufINSt7__cxx1112basic_stringIcSt11char_traitsIcESaIcEEEE6_M_ptrEv
          10 .text$_ZNK9__gnu_cxx16__aligned_membufINSt7__cxx1112basic_stringIcSt11char_traitsIcESaIcEEEE7_M_addrEv
          18 .text$_ZNK9__gnu_cxx16__aligned_membufIPN3zmq5own_tEE6_M_ptrEv
          10 .text$_ZNK9__gnu_cxx16__aligned_membufIPN3zmq5own_tEE7_M_addrEv
          60 .text$_ZNK9__gnu_cxx16__aligned_membufIPN3zmq6pipe_tEE6_M_ptrEv
          40 .text$_ZNK9__gnu_cxx16__aligned_membufIPN3zmq6pipe_tEE7_M_addrEv
          18 .text$_ZNK9__gnu_cxx16__aligned_membufISt4pairIKN3zmq6blob_tENS2_21routing_socket_base_t10out_pipe_tEEE6_M_ptrEv
          10 .text$_ZNK9__gnu_cxx16__aligned_membufISt4pairIKN3zmq6blob_tENS2_21routing_socket_base_t10out_pipe_tEEE7_M_addrEv
          18 .text$_ZNK9__gnu_cxx16__aligned_membufISt4pairIKNSt7__cxx1112basic_stringIcSt11char_traitsIcESaIcEEEMN3zmq14session_base_tEFPNS9_5own_tEPNS9_11io_thread_tEbEEE6_M_ptrEv
          10 .text$_ZNK9__gnu_cxx16__aligned_membufISt4pairIKNSt7__cxx1112basic_stringIcSt11char_traitsIcESaIcEEEMN3zmq14session_base_tEFPNS9_5own_tEPNS9_11io_thread_tEbEEE7_M_addrEv
          18 .text$_ZNK9__gnu_cxx16__aligned_membufISt4pairIKNSt7__cxx1112basic_stringIcSt11char_traitsIcESaIcEEEMN3zmq14session_base_tEFvPNS9_11io_thread_tEEEE6_M_ptrEv
          10 .text$_ZNK9__gnu_cxx16__aligned_membufISt4pairIKNSt7__cxx1112basic_stringIcSt11char_traitsIcESaIcEEEMN3zmq14session_base_tEFvPNS9_11io_thread_tEEEE7_M_addrEv
          18 .text$_ZNK9__gnu_cxx16__aligned_membufISt4pairIKNSt7__cxx1112basic_stringIcSt11char_traitsIcESaIcEEEN3zmq10endpoint_tEEE6_M_ptrEv
          10 .text$_ZNK9__gnu_cxx16__aligned_membufISt4pairIKNSt7__cxx1112basic_stringIcSt11char_traitsIcESaIcEEEN3zmq10endpoint_tEEE7_M_addrEv
          18 .text$_ZNK9__gnu_cxx16__aligned_membufISt4pairIKNSt7__cxx1112basic_stringIcSt11char_traitsIcESaIcEEEN3zmq5ctx_t20pending_connection_tEEE6_M_ptrEv
          10 .text$_ZNK9__gnu_cxx16__aligned_membufISt4pairIKNSt7__cxx1112basic_stringIcSt11char_traitsIcESaIcEEEN3zmq5ctx_t20pending_connection_tEEE7_M_addrEv
          30 .text$_ZNK9__gnu_cxx16__aligned_membufISt4pairIKNSt7__cxx1112basic_stringIcSt11char_traitsIcESaIcEEEPN3zmq6pipe_tEEE6_M_ptrEv
          20 .text$_ZNK9__gnu_cxx16__aligned_membufISt4pairIKNSt7__cxx1112basic_stringIcSt11char_traitsIcESaIcEEEPN3zmq6pipe_tEEE7_M_addrEv
          18 .text$_ZNK9__gnu_cxx16__aligned_membufISt4pairIKNSt7__cxx1112basic_stringIcSt11char_traitsIcESaIcEEES1_IPN3zmq5own_tEPNS9_6pipe_tEEEE6_M_ptrEv
          10 .text$_ZNK9__gnu_cxx16__aligned_membufISt4pairIKNSt7__cxx1112basic_stringIcSt11char_traitsIcESaIcEEES1_IPN3zmq5own_tEPNS9_6pipe_tEEEE7_M_addrEv
          C0 .text$_ZNK9__gnu_cxx16__aligned_membufISt4pairIKNSt7__cxx1112basic_stringIcSt11char_traitsIcESaIcEEES7_EE6_M_ptrEv
          80 .text$_ZNK9__gnu_cxx16__aligned_membufISt4pairIKNSt7__cxx1112basic_stringIcSt11char_traitsIcESaIcEEES7_EE7_M_addrEv
          18 .text$_ZNK9__gnu_cxx16__aligned_membufISt4pairIKjN3zmq8server_t9outpipe_tEEE6_M_ptrEv
          10 .text$_ZNK9__gnu_cxx16__aligned_membufISt4pairIKjN3zmq8server_t9outpipe_tEEE7_M_addrEv
          18 .text$_ZNK9__gnu_cxx16__aligned_membufISt4pairIKtN3zmq8select_t14family_entry_tEEE6_M_ptrEv
          10 .text$_ZNK9__gnu_cxx16__aligned_membufISt4pairIKtN3zmq8select_t14family_entry_tEEE7_M_addrEv
          18 .text$_ZNK9__gnu_cxx16__aligned_membufISt4pairIKyN3zmq13poller_base_t12timer_info_tEEE6_M_ptrEv
          10 .text$_ZNK9__gnu_cxx16__aligned_membufISt4pairIKyN3zmq13poller_base_t12timer_info_tEEE7_M_addrEv
          18 .text$_ZNK9__gnu_cxx16__aligned_membufISt4pairIKyN3zmq8timers_t7timer_tEEE6_M_ptrEv
          10 .text$_ZNK9__gnu_cxx16__aligned_membufISt4pairIKyN3zmq8timers_t7timer_tEEE7_M_addrEv
          30 .text$_ZNK9__gnu_cxx16__aligned_membufIiE6_M_ptrEv
          20 .text$_ZNK9__gnu_cxx16__aligned_membufIiE7_M_addrEv
          10 .text$_ZNK9__gnu_cxx17__normal_iteratorIPKN3zmq15socket_poller_t6item_tESt6vectorIS3_SaIS3_EEE4baseEv
          70 .text$_ZNK9__gnu_cxx17__normal_iteratorIPKN3zmq18tcp_address_mask_tESt6vectorIS2_SaIS2_EEE4baseEv
          60 .text$_ZNK9__gnu_cxx17__normal_iteratorIPKN3zmq18tcp_address_mask_tESt6vectorIS2_SaIS2_EEEdeEv
          10 .text$_ZNK9__gnu_cxx17__normal_iteratorIPKN3zmq8select_t10fd_entry_tESt6vectorIS3_SaIS3_EEE4baseEv
          10 .text$_ZNK9__gnu_cxx17__normal_iteratorIPKPN3zmq10signaler_tESt6vectorIS3_SaIS3_EEE4baseEv
          10 .text$_ZNK9__gnu_cxx17__normal_iteratorIPKPN3zmq11io_thread_tESt6vectorIS3_SaIS3_EEE4baseEv
          10 .text$_ZNK9__gnu_cxx17__normal_iteratorIPKPN3zmq13socket_base_tESt6vectorIS3_SaIS3_EEE4baseEv
          40 .text$_ZNK9__gnu_cxx17__normal_iteratorIPKPN3zmq6pipe_tESt6vectorIS3_SaIS3_EEE4baseEv
          10 .text$_ZNK9__gnu_cxx17__normal_iteratorIPKPN3zmq9i_mailboxESt6vectorIS3_SaIS3_EEE4baseEv
          10 .text$_ZNK9__gnu_cxx17__normal_iteratorIPKhSt6vectorIhSaIhEEE4baseEv
          10 .text$_ZNK9__gnu_cxx17__normal_iteratorIPKjSt6vectorIjSaIjEEE4baseEv
          10 .text$_ZNK9__gnu_cxx17__normal_iteratorIPN3zmq15socket_poller_t6item_tESt6vectorIS3_SaIS3_EEE4baseEv
          34 .text$_ZNK9__gnu_cxx17__normal_iteratorIPN3zmq15socket_poller_t6item_tESt6vectorIS3_SaIS3_EEEplEi
          10 .text$_ZNK9__gnu_cxx17__normal_iteratorIPN3zmq15socket_poller_t6item_tESt6vectorIS3_SaIS3_EEEptEv
          10 .text$_ZNK9__gnu_cxx17__normal_iteratorIPN3zmq8select_t10fd_entry_tESt6vectorIS3_SaIS3_EEE4baseEv
          10 .text$_ZNK9__gnu_cxx17__normal_iteratorIPN3zmq8select_t10fd_entry_tESt6vectorIS3_SaIS3_EEEdeEv
          34 .text$_ZNK9__gnu_cxx17__normal_iteratorIPN3zmq8select_t10fd_entry_tESt6vectorIS3_SaIS3_EEEplEi
          10 .text$_ZNK9__gnu_cxx17__normal_iteratorIPN3zmq8select_t10fd_entry_tESt6vectorIS3_SaIS3_EEEptEv
          10 .text$_ZNK9__gnu_cxx17__normal_iteratorIPPN3zmq10signaler_tESt6vectorIS3_SaIS3_EEE4baseEv
          10 .text$_ZNK9__gnu_cxx17__normal_iteratorIPPN3zmq10signaler_tESt6vectorIS3_SaIS3_EEEdeEv
          34 .text$_ZNK9__gnu_cxx17__normal_iteratorIPPN3zmq10signaler_tESt6vectorIS3_SaIS3_EEEplEi
          10 .text$_ZNK9__gnu_cxx17__normal_iteratorIPPN3zmq13socket_base_tESt6vectorIS3_SaIS3_EEEdeEv
          38 .text$_ZNK9__gnu_cxx17__normal_iteratorIPPN3zmq13socket_base_tESt6vectorIS3_SaIS3_EEEmiEi
          10 .text$_ZNK9__gnu_cxx17__normal_iteratorIPPN3zmq6pipe_tESt6vectorIS3_SaIS3_EEE4baseEv
          50 .text$_ZNK9__gnu_cxx17__normal_iteratorIPPN3zmq6pipe_tESt6vectorIS3_SaIS3_EEEdeEv
          E0 .text$_ZNK9__gnu_cxx17__normal_iteratorIPPN3zmq6pipe_tESt6vectorIS3_SaIS3_EEEmiEi
          34 .text$_ZNK9__gnu_cxx17__normal_iteratorIPPN3zmq6pipe_tESt6vectorIS3_SaIS3_EEEplEi
          10 .text$_ZNK9__gnu_cxx17__normal_iteratorIPPN3zmq9i_mailboxESt6vectorIS3_SaIS3_EEE4baseEv
          34 .text$_ZNK9__gnu_cxx17__normal_iteratorIPPN3zmq9i_mailboxESt6vectorIS3_SaIS3_EEEplEi
          20 .text$_ZNK9__gnu_cxx17__normal_iteratorIPhSt6vectorIhN3zmq18secure_allocator_tIhEEEE4baseEv
          60 .text$_ZNK9__gnu_cxx17__normal_iteratorIPhSt6vectorIhN3zmq18secure_allocator_tIhEEEEplEi
          30 .text$_ZNK9__gnu_cxx17__normal_iteratorIPhSt6vectorIhSaIhEEE4baseEv
          90 .text$_ZNK9__gnu_cxx17__normal_iteratorIPhSt6vectorIhSaIhEEEplEi
          10 .text$_ZNK9__gnu_cxx17__normal_iteratorIPjSt6vectorIjSaIjEEEdeEv
          38 .text$_ZNK9__gnu_cxx17__normal_iteratorIPjSt6vectorIjSaIjEEEmiEi
          10 .text$_ZNKSt10_Select1stISt4pairIKN3zmq6blob_tENS1_21routing_socket_base_t10out_pipe_tEEEclERKS6_
          10 .text$_ZNKSt10_Select1stISt4pairIKNSt7__cxx1112basic_stringIcSt11char_traitsIcESaIcEEEMN3zmq14session_base_tEFPNS8_5own_tEPNS8_11io_thread_tEbEEEclERKSG_
          10 .text$_ZNKSt10_Select1stISt4pairIKNSt7__cxx1112basic_stringIcSt11char_traitsIcESaIcEEEMN3zmq14session_base_tEFPNS8_5own_tEPNS8_11io_thread_tEbEEEclERSG_
          10 .text$_ZNKSt10_Select1stISt4pairIKNSt7__cxx1112basic_stringIcSt11char_traitsIcESaIcEEEMN3zmq14session_base_tEFvPNS8_11io_thread_tEEEEclERKSE_
          10 .text$_ZNKSt10_Select1stISt4pairIKNSt7__cxx1112basic_stringIcSt11char_traitsIcESaIcEEEMN3zmq14session_base_tEFvPNS8_11io_thread_tEEEEclERSE_
          10 .text$_ZNKSt10_Select1stISt4pairIKNSt7__cxx1112basic_stringIcSt11char_traitsIcESaIcEEEN3zmq10endpoint_tEEEclERKSA_
          10 .text$_ZNKSt10_Select1stISt4pairIKNSt7__cxx1112basic_stringIcSt11char_traitsIcESaIcEEEN3zmq5ctx_t20pending_connection_tEEEclERKSB_
          20 .text$_ZNKSt10_Select1stISt4pairIKNSt7__cxx1112basic_stringIcSt11char_traitsIcESaIcEEEPN3zmq6pipe_tEEEclERKSB_
          10 .text$_ZNKSt10_Select1stISt4pairIKNSt7__cxx1112basic_stringIcSt11char_traitsIcESaIcEEES0_IPN3zmq5own_tEPNS8_6pipe_tEEEEclERKSE_
          40 .text$_ZNKSt10_Select1stISt4pairIKNSt7__cxx1112basic_stringIcSt11char_traitsIcESaIcEEES6_EEclERKS8_
          10 .text$_ZNKSt10_Select1stISt4pairIKNSt7__cxx1112basic_stringIcSt11char_traitsIcESaIcEEES6_EEclIS0_IS6_S6_EEERNT_10first_typeERSC_
          10 .text$_ZNKSt10_Select1stISt4pairIKjN3zmq8server_t9outpipe_tEEEclERKS5_
          10 .text$_ZNKSt10_Select1stISt4pairIKtN3zmq8select_t14family_entry_tEEEclERKS5_
          10 .text$_ZNKSt10_Select1stISt4pairIKyN3zmq13poller_base_t12timer_info_tEEEclERKS5_
          10 .text$_ZNKSt10_Select1stISt4pairIKyN3zmq13poller_base_t12timer_info_tEEEclERS5_
          10 .text$_ZNKSt10_Select1stISt4pairIKyN3zmq8timers_t7timer_tEEEclERKS5_
          10 .text$_ZNKSt10_Select1stISt4pairIKyN3zmq8timers_t7timer_tEEEclERS5_
          10 .text$_ZNKSt11_Deque_baseIN3zmq6blob_tESaIS1_EE19_M_get_Tp_allocatorEv
          2C .text$_ZNKSt11_Deque_baseIN3zmq6blob_tESaIS1_EE20_M_get_map_allocatorEv
          10 .text$_ZNKSt11_Deque_baseIPN3zmq10metadata_tESaIS2_EE19_M_get_Tp_allocatorEv
          2C .text$_ZNKSt11_Deque_baseIPN3zmq10metadata_tESaIS2_EE20_M_get_map_allocatorEv
          10 .text$_ZNKSt11_Deque_baseIPN3zmq6pipe_tESaIS2_EE19_M_get_Tp_allocatorEv
          2C .text$_ZNKSt11_Deque_baseIPN3zmq6pipe_tESaIS2_EE20_M_get_map_allocatorEv
          10 .text$_ZNKSt11_Deque_baseIhSaIhEE19_M_get_Tp_allocatorEv
          2C .text$_ZNKSt11_Deque_baseIhSaIhEE20_M_get_map_allocatorEv
          10 .text$_ZNKSt11unique_lockISt5mutexE5mutexEv
          10 .text$_ZNKSt12_Vector_baseIN3zmq15socket_poller_t6item_tESaIS2_EE19_M_get_Tp_allocatorEv
          70 .text$_ZNKSt12_Vector_baseIN3zmq18tcp_address_mask_tESaIS1_EE19_M_get_Tp_allocatorEv
          10 .text$_ZNKSt12_Vector_baseIN3zmq8select_t10fd_entry_tESaIS2_EE19_M_get_Tp_allocatorEv
          10 .text$_ZNKSt12_Vector_baseIPN3zmq10signaler_tESaIS2_EE19_M_get_Tp_allocatorEv
          10 .text$_ZNKSt12_Vector_baseIPN3zmq11io_thread_tESaIS2_EE19_M_get_Tp_allocatorEv
          10 .text$_ZNKSt12_Vector_baseIPN3zmq13socket_base_tESaIS2_EE19_M_get_Tp_allocatorEv
          50 .text$_ZNKSt12_Vector_baseIPN3zmq6pipe_tESaIS2_EE19_M_get_Tp_allocatorEv
          10 .text$_ZNKSt12_Vector_baseIPN3zmq9i_mailboxESaIS2_EE19_M_get_Tp_allocatorEv
          10 .text$_ZNKSt12_Vector_baseIhSaIhEE19_M_get_Tp_allocatorEv
          20 .text$_ZNKSt12_Vector_baseIjSaIjEE19_M_get_Tp_allocatorEv
          10 .text$_ZNKSt12__shared_ptrISt5mutexLN9__gnu_cxx12_Lock_policyE2EEdeEv
          18 .text$_ZNKSt13_Rb_tree_nodeINSt7__cxx1112basic_stringIcSt11char_traitsIcESaIcEEEE9_M_valptrEv
          18 .text$_ZNKSt13_Rb_tree_nodeIPN3zmq5own_tEE9_M_valptrEv
          60 .text$_ZNKSt13_Rb_tree_nodeIPN3zmq6pipe_tEE9_M_valptrEv
          18 .text$_ZNKSt13_Rb_tree_nodeISt4pairIKN3zmq6blob_tENS1_21routing_socket_base_t10out_pipe_tEEE9_M_valptrEv
          18 .text$_ZNKSt13_Rb_tree_nodeISt4pairIKNSt7__cxx1112basic_stringIcSt11char_traitsIcESaIcEEEMN3zmq14session_base_tEFPNS8_5own_tEPNS8_11io_thread_tEbEEE9_M_valptrEv
          18 .text$_ZNKSt13_Rb_tree_nodeISt4pairIKNSt7__cxx1112basic_stringIcSt11char_traitsIcESaIcEEEMN3zmq14session_base_tEFvPNS8_11io_thread_tEEEE9_M_valptrEv
          18 .text$_ZNKSt13_Rb_tree_nodeISt4pairIKNSt7__cxx1112basic_stringIcSt11char_traitsIcESaIcEEEN3zmq10endpoint_tEEE9_M_valptrEv
          18 .text$_ZNKSt13_Rb_tree_nodeISt4pairIKNSt7__cxx1112basic_stringIcSt11char_traitsIcESaIcEEEN3zmq5ctx_t20pending_connection_tEEE9_M_valptrEv
          30 .text$_ZNKSt13_Rb_tree_nodeISt4pairIKNSt7__cxx1112basic_stringIcSt11char_traitsIcESaIcEEEPN3zmq6pipe_tEEE9_M_valptrEv
          18 .text$_ZNKSt13_Rb_tree_nodeISt4pairIKNSt7__cxx1112basic_stringIcSt11char_traitsIcESaIcEEES0_IPN3zmq5own_tEPNS8_6pipe_tEEEE9_M_valptrEv
          C0 .text$_ZNKSt13_Rb_tree_nodeISt4pairIKNSt7__cxx1112basic_stringIcSt11char_traitsIcESaIcEEES6_EE9_M_valptrEv
          18 .text$_ZNKSt13_Rb_tree_nodeISt4pairIKjN3zmq8server_t9outpipe_tEEE9_M_valptrEv
          18 .text$_ZNKSt13_Rb_tree_nodeISt4pairIKtN3zmq8select_t14family_entry_tEEE9_M_valptrEv
          18 .text$_ZNKSt13_Rb_tree_nodeISt4pairIKyN3zmq13poller_base_t12timer_info_tEEE9_M_valptrEv
          18 .text$_ZNKSt13_Rb_tree_nodeISt4pairIKyN3zmq8timers_t7timer_tEEE9_M_valptrEv
          30 .text$_ZNKSt13_Rb_tree_nodeIiE9_M_valptrEv
          9C .text$_ZNKSt13__atomic_baseIjEcvjEv
          10 .text$_ZNKSt13move_iteratorIPN3zmq15socket_poller_t6item_tEE4baseEv
          10 .text$_ZNKSt13move_iteratorIPN3zmq18tcp_address_mask_tEE4baseEv
          10 .text$_ZNKSt13move_iteratorIPN3zmq18tcp_address_mask_tEEdeEv
          10 .text$_ZNKSt13move_iteratorIPN3zmq8select_t10fd_entry_tEE4baseEv
          10 .text$_ZNKSt13move_iteratorIPPN3zmq10signaler_tEE4baseEv
          10 .text$_ZNKSt13move_iteratorIPPN3zmq11io_thread_tEE4baseEv
          10 .text$_ZNKSt13move_iteratorIPPN3zmq13socket_base_tEE4baseEv
          50 .text$_ZNKSt13move_iteratorIPPN3zmq6pipe_tEE4baseEv
          10 .text$_ZNKSt13move_iteratorIPPN3zmq9i_mailboxEE4baseEv
          10 .text$_ZNKSt13move_iteratorIPhE4baseEv
          20 .text$_ZNKSt13move_iteratorIPjE4baseEv
          40 .text$_ZNKSt14__shared_countILN9__gnu_cxx12_Lock_policyE2EE14_M_get_deleterERKSt9type_info
          10 .text$_ZNKSt15_Deque_iteratorIN3zmq6blob_tERS1_PS1_EdeEv
          10 .text$_ZNKSt15_Deque_iteratorIPN3zmq10metadata_tERS2_PS2_EdeEv
          10 .text$_ZNKSt15_Deque_iteratorIPN3zmq6pipe_tERS2_PS2_EdeEv
          10 .text$_ZNKSt15_Deque_iteratorIhRhPhEdeEv
          1C .text$_ZNKSt17_Rb_tree_iteratorINSt7__cxx1112basic_stringIcSt11char_traitsIcESaIcEEEEeqERKS6_
          1C .text$_ZNKSt17_Rb_tree_iteratorIPN3zmq5own_tEEeqERKS3_
          54 .text$_ZNKSt17_Rb_tree_iteratorIPN3zmq6pipe_tEEeqERKS3_
          1C .text$_ZNKSt17_Rb_tree_iteratorISt4pairIKN3zmq6blob_tENS1_21routing_socket_base_t10out_pipe_tEEEeqERKS7_
          38 .text$_ZNKSt17_Rb_tree_iteratorISt4pairIKN3zmq6blob_tENS1_21routing_socket_base_t10out_pipe_tEEEneERKS7_
          30 .text$_ZNKSt17_Rb_tree_iteratorISt4pairIKN3zmq6blob_tENS1_21routing_socket_base_t10out_pipe_tEEEptEv
          1C .text$_ZNKSt17_Rb_tree_iteratorISt4pairIKNSt7__cxx1112basic_stringIcSt11char_traitsIcESaIcEEEMN3zmq14session_base_tEFPNS8_5own_tEPNS8_11io_thread_tEbEEEeqERKSH_
          1C .text$_ZNKSt17_Rb_tree_iteratorISt4pairIKNSt7__cxx1112basic_stringIcSt11char_traitsIcESaIcEEEMN3zmq14session_base_tEFvPNS8_11io_thread_tEEEEeqERKSF_
          18 .text$_ZNKSt17_Rb_tree_iteratorISt4pairIKNSt7__cxx1112basic_stringIcSt11char_traitsIcESaIcEEEN3zmq10endpoint_tEEEdeEv
          1C .text$_ZNKSt17_Rb_tree_iteratorISt4pairIKNSt7__cxx1112basic_stringIcSt11char_traitsIcESaIcEEEN3zmq10endpoint_tEEEeqERKSB_
          1C .text$_ZNKSt17_Rb_tree_iteratorISt4pairIKNSt7__cxx1112basic_stringIcSt11char_traitsIcESaIcEEEN3zmq10endpoint_tEEEneERKSB_
          18 .text$_ZNKSt17_Rb_tree_iteratorISt4pairIKNSt7__cxx1112basic_stringIcSt11char_traitsIcESaIcEEEN3zmq10endpoint_tEEEptEv
          1C .text$_ZNKSt17_Rb_tree_iteratorISt4pairIKNSt7__cxx1112basic_stringIcSt11char_traitsIcESaIcEEEN3zmq5ctx_t20pending_connection_tEEEneERKSC_
          18 .text$_ZNKSt17_Rb_tree_iteratorISt4pairIKNSt7__cxx1112basic_stringIcSt11char_traitsIcESaIcEEEN3zmq5ctx_t20pending_connection_tEEEptEv
          1C .text$_ZNKSt17_Rb_tree_iteratorISt4pairIKNSt7__cxx1112basic_stringIcSt11char_traitsIcESaIcEEEPN3zmq6pipe_tEEEeqERKSC_
          38 .text$_ZNKSt17_Rb_tree_iteratorISt4pairIKNSt7__cxx1112basic_stringIcSt11char_traitsIcESaIcEEEPN3zmq6pipe_tEEEneERKSC_
          30 .text$_ZNKSt17_Rb_tree_iteratorISt4pairIKNSt7__cxx1112basic_stringIcSt11char_traitsIcESaIcEEEPN3zmq6pipe_tEEEptEv
          1C .text$_ZNKSt17_Rb_tree_iteratorISt4pairIKNSt7__cxx1112basic_stringIcSt11char_traitsIcESaIcEEES0_IPN3zmq5own_tEPNS8_6pipe_tEEEEeqERKSF_
          1C .text$_ZNKSt17_Rb_tree_iteratorISt4pairIKNSt7__cxx1112basic_stringIcSt11char_traitsIcESaIcEEES0_IPN3zmq5own_tEPNS8_6pipe_tEEEEneERKSF_
          18 .text$_ZNKSt17_Rb_tree_iteratorISt4pairIKNSt7__cxx1112basic_stringIcSt11char_traitsIcESaIcEEES0_IPN3zmq5own_tEPNS8_6pipe_tEEEEptEv
          54 .text$_ZNKSt17_Rb_tree_iteratorISt4pairIKNSt7__cxx1112basic_stringIcSt11char_traitsIcESaIcEEES6_EEeqERKS9_
          1C .text$_ZNKSt17_Rb_tree_iteratorISt4pairIKjN3zmq8server_t9outpipe_tEEEeqERKS6_
          1C .text$_ZNKSt17_Rb_tree_iteratorISt4pairIKjN3zmq8server_t9outpipe_tEEEneERKS6_
          18 .text$_ZNKSt17_Rb_tree_iteratorISt4pairIKjN3zmq8server_t9outpipe_tEEEptEv
          18 .text$_ZNKSt17_Rb_tree_iteratorISt4pairIKtN3zmq8select_t14family_entry_tEEEdeEv
          1C .text$_ZNKSt17_Rb_tree_iteratorISt4pairIKtN3zmq8select_t14family_entry_tEEEeqERKS6_
          1C .text$_ZNKSt17_Rb_tree_iteratorISt4pairIKtN3zmq8select_t14family_entry_tEEEneERKS6_
          18 .text$_ZNKSt17_Rb_tree_iteratorISt4pairIKtN3zmq8select_t14family_entry_tEEEptEv
          1C .text$_ZNKSt17_Rb_tree_iteratorISt4pairIKyN3zmq13poller_base_t12timer_info_tEEEneERKS6_
          18 .text$_ZNKSt17_Rb_tree_iteratorISt4pairIKyN3zmq13poller_base_t12timer_info_tEEEptEv
          18 .text$_ZNKSt17_Rb_tree_iteratorISt4pairIKyN3zmq8timers_t7timer_tEEEdeEv
          1C .text$_ZNKSt17_Rb_tree_iteratorISt4pairIKyN3zmq8timers_t7timer_tEEEeqERKS6_
          1C .text$_ZNKSt17_Rb_tree_iteratorISt4pairIKyN3zmq8timers_t7timer_tEEEneERKS6_
          18 .text$_ZNKSt17_Rb_tree_iteratorISt4pairIKyN3zmq8timers_t7timer_tEEEptEv
          38 .text$_ZNKSt17_Rb_tree_iteratorIiEeqERKS0_
          24 .text$_ZNKSt23_Rb_tree_const_iteratorINSt7__cxx1112basic_stringIcSt11char_traitsIcESaIcEEEE13_M_const_castEv
          1C .text$_ZNKSt23_Rb_tree_const_iteratorINSt7__cxx1112basic_stringIcSt11char_traitsIcESaIcEEEEeqERKS6_
          1C .text$_ZNKSt23_Rb_tree_const_iteratorINSt7__cxx1112basic_stringIcSt11char_traitsIcESaIcEEEEneERKS6_
          18 .text$_ZNKSt23_Rb_tree_const_iteratorINSt7__cxx1112basic_stringIcSt11char_traitsIcESaIcEEEEptEv
          24 .text$_ZNKSt23_Rb_tree_const_iteratorIPN3zmq5own_tEE13_M_const_castEv
          18 .text$_ZNKSt23_Rb_tree_const_iteratorIPN3zmq5own_tEEdeEv
          1C .text$_ZNKSt23_Rb_tree_const_iteratorIPN3zmq5own_tEEeqERKS3_
          1C .text$_ZNKSt23_Rb_tree_const_iteratorIPN3zmq5own_tEEneERKS3_
          90 .text$_ZNKSt23_Rb_tree_const_iteratorIPN3zmq6pipe_tEE13_M_const_castEv
          18 .text$_ZNKSt23_Rb_tree_const_iteratorIPN3zmq6pipe_tEEdeEv
          70 .text$_ZNKSt23_Rb_tree_const_iteratorIPN3zmq6pipe_tEEeqERKS3_
          70 .text$_ZNKSt23_Rb_tree_const_iteratorIPN3zmq6pipe_tEEneERKS3_
          24 .text$_ZNKSt23_Rb_tree_const_iteratorISt4pairIKN3zmq6blob_tENS1_21routing_socket_base_t10out_pipe_tEEE13_M_const_castEv
          1C .text$_ZNKSt23_Rb_tree_const_iteratorISt4pairIKN3zmq6blob_tENS1_21routing_socket_base_t10out_pipe_tEEEeqERKS7_
          1C .text$_ZNKSt23_Rb_tree_const_iteratorISt4pairIKN3zmq6blob_tENS1_21routing_socket_base_t10out_pipe_tEEEneERKS7_
          18 .text$_ZNKSt23_Rb_tree_const_iteratorISt4pairIKN3zmq6blob_tENS1_21routing_socket_base_t10out_pipe_tEEEptEv
          24 .text$_ZNKSt23_Rb_tree_const_iteratorISt4pairIKNSt7__cxx1112basic_stringIcSt11char_traitsIcESaIcEEEMN3zmq14session_base_tEFPNS8_5own_tEPNS8_11io_thread_tEbEEE13_M_const_castEv
          1C .text$_ZNKSt23_Rb_tree_const_iteratorISt4pairIKNSt7__cxx1112basic_stringIcSt11char_traitsIcESaIcEEEMN3zmq14session_base_tEFPNS8_5own_tEPNS8_11io_thread_tEbEEEneERKSH_
          18 .text$_ZNKSt23_Rb_tree_const_iteratorISt4pairIKNSt7__cxx1112basic_stringIcSt11char_traitsIcESaIcEEEMN3zmq14session_base_tEFPNS8_5own_tEPNS8_11io_thread_tEbEEEptEv
          24 .text$_ZNKSt23_Rb_tree_const_iteratorISt4pairIKNSt7__cxx1112basic_stringIcSt11char_traitsIcESaIcEEEMN3zmq14session_base_tEFvPNS8_11io_thread_tEEEE13_M_const_castEv
          1C .text$_ZNKSt23_Rb_tree_const_iteratorISt4pairIKNSt7__cxx1112basic_stringIcSt11char_traitsIcESaIcEEEMN3zmq14session_base_tEFvPNS8_11io_thread_tEEEEneERKSF_
          18 .text$_ZNKSt23_Rb_tree_const_iteratorISt4pairIKNSt7__cxx1112basic_stringIcSt11char_traitsIcESaIcEEEMN3zmq14session_base_tEFvPNS8_11io_thread_tEEEEptEv
          24 .text$_ZNKSt23_Rb_tree_const_iteratorISt4pairIKNSt7__cxx1112basic_stringIcSt11char_traitsIcESaIcEEEN3zmq10endpoint_tEEE13_M_const_castEv
          24 .text$_ZNKSt23_Rb_tree_const_iteratorISt4pairIKNSt7__cxx1112basic_stringIcSt11char_traitsIcESaIcEEEN3zmq5ctx_t20pending_connection_tEEE13_M_const_castEv
          1C .text$_ZNKSt23_Rb_tree_const_iteratorISt4pairIKNSt7__cxx1112basic_stringIcSt11char_traitsIcESaIcEEEN3zmq5ctx_t20pending_connection_tEEEeqERKSC_
          1C .text$_ZNKSt23_Rb_tree_const_iteratorISt4pairIKNSt7__cxx1112basic_stringIcSt11char_traitsIcESaIcEEEN3zmq5ctx_t20pending_connection_tEEEneERKSC_
          24 .text$_ZNKSt23_Rb_tree_const_iteratorISt4pairIKNSt7__cxx1112basic_stringIcSt11char_traitsIcESaIcEEEPN3zmq6pipe_tEEE13_M_const_castEv
          1C .text$_ZNKSt23_Rb_tree_const_iteratorISt4pairIKNSt7__cxx1112basic_stringIcSt11char_traitsIcESaIcEEEPN3zmq6pipe_tEEEeqERKSC_
          1C .text$_ZNKSt23_Rb_tree_const_iteratorISt4pairIKNSt7__cxx1112basic_stringIcSt11char_traitsIcESaIcEEEPN3zmq6pipe_tEEEneERKSC_
          24 .text$_ZNKSt23_Rb_tree_const_iteratorISt4pairIKNSt7__cxx1112basic_stringIcSt11char_traitsIcESaIcEEES0_IPN3zmq5own_tEPNS8_6pipe_tEEEE13_M_const_castEv
          1C .text$_ZNKSt23_Rb_tree_const_iteratorISt4pairIKNSt7__cxx1112basic_stringIcSt11char_traitsIcESaIcEEES0_IPN3zmq5own_tEPNS8_6pipe_tEEEEeqERKSF_
          1C .text$_ZNKSt23_Rb_tree_const_iteratorISt4pairIKNSt7__cxx1112basic_stringIcSt11char_traitsIcESaIcEEES0_IPN3zmq5own_tEPNS8_6pipe_tEEEEneERKSF_
          24 .text$_ZNKSt23_Rb_tree_const_iteratorISt4pairIKNSt7__cxx1112basic_stringIcSt11char_traitsIcESaIcEEES6_EE13_M_const_castEv
          18 .text$_ZNKSt23_Rb_tree_const_iteratorISt4pairIKNSt7__cxx1112basic_stringIcSt11char_traitsIcESaIcEEES6_EEdeEv
          1C .text$_ZNKSt23_Rb_tree_const_iteratorISt4pairIKNSt7__cxx1112basic_stringIcSt11char_traitsIcESaIcEEES6_EEeqERKS9_
          38 .text$_ZNKSt23_Rb_tree_const_iteratorISt4pairIKNSt7__cxx1112basic_stringIcSt11char_traitsIcESaIcEEES6_EEneERKS9_
          30 .text$_ZNKSt23_Rb_tree_const_iteratorISt4pairIKNSt7__cxx1112basic_stringIcSt11char_traitsIcESaIcEEES6_EEptEv
          24 .text$_ZNKSt23_Rb_tree_const_iteratorISt4pairIKtN3zmq8select_t14family_entry_tEEE13_M_const_castEv
          24 .text$_ZNKSt23_Rb_tree_const_iteratorISt4pairIKyN3zmq13poller_base_t12timer_info_tEEE13_M_const_castEv
          1C .text$_ZNKSt23_Rb_tree_const_iteratorISt4pairIKyN3zmq13poller_base_t12timer_info_tEEEeqERKS6_
          1C .text$_ZNKSt23_Rb_tree_const_iteratorISt4pairIKyN3zmq13poller_base_t12timer_info_tEEEneERKS6_
          24 .text$_ZNKSt23_Rb_tree_const_iteratorISt4pairIKyN3zmq8timers_t7timer_tEEE13_M_const_castEv
          1C .text$_ZNKSt23_Rb_tree_const_iteratorISt4pairIKyN3zmq8timers_t7timer_tEEEeqERKS6_
          1C .text$_ZNKSt23_Rb_tree_const_iteratorISt4pairIKyN3zmq8timers_t7timer_tEEEneERKS6_
          48 .text$_ZNKSt23_Rb_tree_const_iteratorIiE13_M_const_castEv
          38 .text$_ZNKSt23_Rb_tree_const_iteratorIiEeqERKS0_
          38 .text$_ZNKSt23_Rb_tree_const_iteratorIiEneERKS0_
          18 .text$_ZNKSt3mapIN3zmq6blob_tENS0_21routing_socket_base_t10out_pipe_tESt4lessIS1_ESaISt4pairIKS1_S3_EEE3endEv
          20 .text$_ZNKSt3mapIN3zmq6blob_tENS0_21routing_socket_base_t10out_pipe_tESt4lessIS1_ESaISt4pairIKS1_S3_EEE4findERS7_
          54 .text$_ZNKSt3mapIN3zmq6blob_tENS0_21routing_socket_base_t10out_pipe_tESt4lessIS1_ESaISt4pairIKS1_S3_EEE5countERS7_
          18 .text$_ZNKSt3mapIN3zmq6blob_tENS0_21routing_socket_base_t10out_pipe_tESt4lessIS1_ESaISt4pairIKS1_S3_EEE5emptyEv
          1C .text$_ZNKSt3mapINSt7__cxx1112basic_stringIcSt11char_traitsIcESaIcEEEN3zmq10endpoint_tESt4lessIS5_ESaISt4pairIKS5_S7_EEE8key_compEv
          48 .text$_ZNKSt3mapINSt7__cxx1112basic_stringIcSt11char_traitsIcESaIcEEES5_St4lessIS5_ESaISt4pairIKS5_S5_EEE3endEv
          20 .text$_ZNKSt3mapINSt7__cxx1112basic_stringIcSt11char_traitsIcESaIcEEES5_St4lessIS5_ESaISt4pairIKS5_S5_EEE4findERS9_
          30 .text$_ZNKSt3mapINSt7__cxx1112basic_stringIcSt11char_traitsIcESaIcEEES5_St4lessIS5_ESaISt4pairIKS5_S5_EEE5beginEv
          18 .text$_ZNKSt3mapINSt7__cxx1112basic_stringIcSt11char_traitsIcESaIcEEES5_St4lessIS5_ESaISt4pairIKS5_S5_EEE5emptyEv
          18 .text$_ZNKSt3mapIjN3zmq8server_t9outpipe_tESt4lessIjESaISt4pairIKjS2_EEE5emptyEv
          18 .text$_ZNKSt3mapItN3zmq8select_t14family_entry_tESt4lessItESaISt4pairIKtS2_EEE4sizeEv
          18 .text$_ZNKSt3mapItN3zmq8select_t14family_entry_tESt4lessItESaISt4pairIKtS2_EEE5emptyEv
          1C .text$_ZNKSt3mapItN3zmq8select_t14family_entry_tESt4lessItESaISt4pairIKtS2_EEE8key_compEv
          18 .text$_ZNKSt3setINSt7__cxx1112basic_stringIcSt11char_traitsIcESaIcEEESt4lessIS5_ESaIS5_EE3endEv
          18 .text$_ZNKSt3setINSt7__cxx1112basic_stringIcSt11char_traitsIcESaIcEEESt4lessIS5_ESaIS5_EE5beginEv
          54 .text$_ZNKSt3setINSt7__cxx1112basic_stringIcSt11char_traitsIcESaIcEEESt4lessIS5_ESaIS5_EE5countERKS5_
          18 .text$_ZNKSt3setIPN3zmq5own_tESt4lessIS2_ESaIS2_EE3endEv
          18 .text$_ZNKSt3setIPN3zmq5own_tESt4lessIS2_ESaIS2_EE4sizeEv
          18 .text$_ZNKSt3setIPN3zmq5own_tESt4lessIS2_ESaIS2_EE5beginEv
          18 .text$_ZNKSt3setIPN3zmq5own_tESt4lessIS2_ESaIS2_EE5emptyEv
          30 .text$_ZNKSt3setIPN3zmq6pipe_tESt4lessIS2_ESaIS2_EE3endEv
          18 .text$_ZNKSt3setIPN3zmq6pipe_tESt4lessIS2_ESaIS2_EE5beginEv
          54 .text$_ZNKSt3setIPN3zmq6pipe_tESt4lessIS2_ESaIS2_EE5countERKS2_
          60 .text$_ZNKSt3setIPN3zmq6pipe_tESt4lessIS2_ESaIS2_EE5emptyEv
          54 .text$_ZNKSt3setIiSt4lessIiESaIiEE5countERKi
          20 .text$_ZNKSt4lessIN3zmq6blob_tEEclERKS1_S4_
         120 .text$_ZNKSt4lessINSt7__cxx1112basic_stringIcSt11char_traitsIcESaIcEEEEclERKS5_S8_
          1C .text$_ZNKSt4lessIPN3zmq5own_tEEclERKS2_S5_
          70 .text$_ZNKSt4lessIPN3zmq6pipe_tEEclERKS2_S5_
          38 .text$_ZNKSt4lessIiEclERKiS2_
          1C .text$_ZNKSt4lessIjEclERKjS2_
          20 .text$_ZNKSt4lessItEclERKtS2_
          78 .text$_ZNKSt4lessIyEclERKyS2_
          24 .text$_ZNKSt5dequeIN3zmq6blob_tESaIS1_EE5emptyEv
          24 .text$_ZNKSt5dequeIPN3zmq6pipe_tESaIS2_EE5emptyEv
          14 .text$_ZNKSt6chrono10time_pointINS_3_V212system_clockENS_8durationIxSt5ratioILx1ELx1000000000EEEEE16time_since_epochEv
          14 .text$_ZNKSt6chrono10time_pointINS_3_V212system_clockENS_8durationIxSt5ratioILx1ELx1EEEEE16time_since_epochEv
          14 .text$_ZNKSt6chrono8durationIxSt5ratioILx1ELx1000000000EEE5countEv
          14 .text$_ZNKSt6chrono8durationIxSt5ratioILx1ELx1000EEE5countEv
          14 .text$_ZNKSt6chrono8durationIxSt5ratioILx1ELx1EEE5countEv
          A4 .text$_ZNKSt6vectorIN3zmq15socket_poller_t6item_tESaIS2_EE12_M_check_lenEjPKc
          2C .text$_ZNKSt6vectorIN3zmq15socket_poller_t6item_tESaIS2_EE3endEv
          20 .text$_ZNKSt6vectorIN3zmq15socket_poller_t6item_tESaIS2_EE4sizeEv
          2C .text$_ZNKSt6vectorIN3zmq15socket_poller_t6item_tESaIS2_EE5beginEv
          38 .text$_ZNKSt6vectorIN3zmq15socket_poller_t6item_tESaIS2_EE5emptyEv
          2C .text$_ZNKSt6vectorIN3zmq15socket_poller_t6item_tESaIS2_EE6cbeginEv
          20 .text$_ZNKSt6vectorIN3zmq15socket_poller_t6item_tESaIS2_EE8max_sizeEv
          A4 .text$_ZNKSt6vectorIN3zmq18tcp_address_mask_tESaIS1_EE12_M_check_lenEjPKc
         134 .text$_ZNKSt6vectorIN3zmq18tcp_address_mask_tESaIS1_EE3endEv
         100 .text$_ZNKSt6vectorIN3zmq18tcp_address_mask_tESaIS1_EE4sizeEv
         134 .text$_ZNKSt6vectorIN3zmq18tcp_address_mask_tESaIS1_EE5beginEv
          38 .text$_ZNKSt6vectorIN3zmq18tcp_address_mask_tESaIS1_EE5emptyEv
          20 .text$_ZNKSt6vectorIN3zmq18tcp_address_mask_tESaIS1_EE8max_sizeEv
          A4 .text$_ZNKSt6vectorIN3zmq8select_t10fd_entry_tESaIS2_EE12_M_check_lenEjPKc
          2C .text$_ZNKSt6vectorIN3zmq8select_t10fd_entry_tESaIS2_EE3endEv
          20 .text$_ZNKSt6vectorIN3zmq8select_t10fd_entry_tESaIS2_EE4sizeEv
          2C .text$_ZNKSt6vectorIN3zmq8select_t10fd_entry_tESaIS2_EE5beginEv
          38 .text$_ZNKSt6vectorIN3zmq8select_t10fd_entry_tESaIS2_EE5emptyEv
          2C .text$_ZNKSt6vectorIN3zmq8select_t10fd_entry_tESaIS2_EE6cbeginEv
          20 .text$_ZNKSt6vectorIN3zmq8select_t10fd_entry_tESaIS2_EE8max_sizeEv
          1C .text$_ZNKSt6vectorIN3zmq8select_t10fd_entry_tESaIS2_EEixEj
          A4 .text$_ZNKSt6vectorIPN3zmq10signaler_tESaIS2_EE12_M_check_lenEjPKc
          20 .text$_ZNKSt6vectorIPN3zmq10signaler_tESaIS2_EE4sizeEv
          2C .text$_ZNKSt6vectorIPN3zmq10signaler_tESaIS2_EE6cbeginEv
          20 .text$_ZNKSt6vectorIPN3zmq10signaler_tESaIS2_EE8max_sizeEv
          A4 .text$_ZNKSt6vectorIPN3zmq11io_thread_tESaIS2_EE12_M_check_lenEjPKc
          2C .text$_ZNKSt6vectorIPN3zmq11io_thread_tESaIS2_EE3endEv
          20 .text$_ZNKSt6vectorIPN3zmq11io_thread_tESaIS2_EE4sizeEv
          2C .text$_ZNKSt6vectorIPN3zmq11io_thread_tESaIS2_EE5beginEv
          38 .text$_ZNKSt6vectorIPN3zmq11io_thread_tESaIS2_EE5emptyEv
          20 .text$_ZNKSt6vectorIPN3zmq11io_thread_tESaIS2_EE8max_sizeEv
          A4 .text$_ZNKSt6vectorIPN3zmq13socket_base_tESaIS2_EE12_M_check_lenEjPKc
          2C .text$_ZNKSt6vectorIPN3zmq13socket_base_tESaIS2_EE3endEv
          20 .text$_ZNKSt6vectorIPN3zmq13socket_base_tESaIS2_EE4sizeEv
          2C .text$_ZNKSt6vectorIPN3zmq13socket_base_tESaIS2_EE5beginEv
          38 .text$_ZNKSt6vectorIPN3zmq13socket_base_tESaIS2_EE5emptyEv
          20 .text$_ZNKSt6vectorIPN3zmq13socket_base_tESaIS2_EE8max_sizeEv
         334 .text$_ZNKSt6vectorIPN3zmq6pipe_tESaIS2_EE12_M_check_lenEjPKc
          84 .text$_ZNKSt6vectorIPN3zmq6pipe_tESaIS2_EE3endEv
          A0 .text$_ZNKSt6vectorIPN3zmq6pipe_tESaIS2_EE4sizeEv
          84 .text$_ZNKSt6vectorIPN3zmq6pipe_tESaIS2_EE5beginEv
          A8 .text$_ZNKSt6vectorIPN3zmq6pipe_tESaIS2_EE5emptyEv
          2C .text$_ZNKSt6vectorIPN3zmq6pipe_tESaIS2_EE6cbeginEv
          A0 .text$_ZNKSt6vectorIPN3zmq6pipe_tESaIS2_EE8max_sizeEv
          A4 .text$_ZNKSt6vectorIPN3zmq9i_mailboxESaIS2_EE12_M_check_lenEjPKc
          20 .text$_ZNKSt6vectorIPN3zmq9i_mailboxESaIS2_EE4sizeEv
          2C .text$_ZNKSt6vectorIPN3zmq9i_mailboxESaIS2_EE6cbeginEv
          20 .text$_ZNKSt6vectorIPN3zmq9i_mailboxESaIS2_EE8capacityEv
          20 .text$_ZNKSt6vectorIPN3zmq9i_mailboxESaIS2_EE8max_sizeEv
          38 .text$_ZNKSt6vectorIhN3zmq18secure_allocator_tIhEEE4sizeEv
          A4 .text$_ZNKSt6vectorIhSaIhEE12_M_check_lenEjPKc
          2C .text$_ZNKSt6vectorIhSaIhEE3endEv
          1C .text$_ZNKSt6vectorIhSaIhEE4sizeEv
          2C .text$_ZNKSt6vectorIhSaIhEE5beginEv
          38 .text$_ZNKSt6vectorIhSaIhEE5emptyEv
          20 .text$_ZNKSt6vectorIhSaIhEE8max_sizeEv
         148 .text$_ZNKSt6vectorIjSaIjEE12_M_check_lenEjPKc
          2C .text$_ZNKSt6vectorIjSaIjEE3endEv
          40 .text$_ZNKSt6vectorIjSaIjEE4sizeEv
          2C .text$_ZNKSt6vectorIjSaIjEE5beginEv
          38 .text$_ZNKSt6vectorIjSaIjEE5emptyEv
          20 .text$_ZNKSt6vectorIjSaIjEE8capacityEv
          40 .text$_ZNKSt6vectorIjSaIjEE8max_sizeEv
